
display_custom.elf:     file format elf32-littlearm

Sections:
Idx Name          Size      VMA       LMA       File off  Algn
  0 .isr_vector   000000c0  08000000  08000000  00010000  2**0
                  CONTENTS, ALLOC, LOAD, READONLY, DATA
  1 .text         00005cd4  080000c0  080000c0  000100c0  2**2
                  CONTENTS, ALLOC, LOAD, READONLY, CODE
  2 .rodata       00000458  08005d94  08005d94  00015d94  2**2
                  CONTENTS, ALLOC, LOAD, READONLY, DATA
  3 .ARM.extab    00000000  080061ec  080061ec  0002007c  2**0
                  CONTENTS
  4 .ARM          00000008  080061ec  080061ec  000161ec  2**2
                  CONTENTS, ALLOC, LOAD, READONLY, DATA
  5 .preinit_array 00000000  080061f4  080061f4  0002007c  2**0
                  CONTENTS, ALLOC, LOAD, DATA
  6 .init_array   00000004  080061f4  080061f4  000161f4  2**2
                  CONTENTS, ALLOC, LOAD, DATA
  7 .fini_array   00000004  080061f8  080061f8  000161f8  2**2
                  CONTENTS, ALLOC, LOAD, DATA
  8 .data         0000007c  20000000  080061fc  00020000  2**2
                  CONTENTS, ALLOC, LOAD, DATA
  9 .bss          00000298  2000007c  08006278  0002007c  2**2
                  ALLOC
 10 ._user_heap_stack 00000604  20000314  08006278  00020314  2**0
                  ALLOC
 11 .ARM.attributes 00000028  00000000  00000000  0002007c  2**0
                  CONTENTS, READONLY
 12 .debug_info   000181f3  00000000  00000000  000200a4  2**0
                  CONTENTS, READONLY, DEBUGGING, OCTETS
 13 .debug_abbrev 00002d4d  00000000  00000000  00038297  2**0
                  CONTENTS, READONLY, DEBUGGING, OCTETS
 14 .debug_loc    0000ed56  00000000  00000000  0003afe4  2**0
                  CONTENTS, READONLY, DEBUGGING, OCTETS
 15 .debug_aranges 00000d60  00000000  00000000  00049d40  2**3
                  CONTENTS, READONLY, DEBUGGING, OCTETS
 16 .debug_ranges 00001580  00000000  00000000  0004aaa0  2**3
                  CONTENTS, READONLY, DEBUGGING, OCTETS
 17 .debug_macro  0001522d  00000000  00000000  0004c020  2**0
                  CONTENTS, READONLY, DEBUGGING, OCTETS
 18 .debug_line   000197c6  00000000  00000000  0006124d  2**0
                  CONTENTS, READONLY, DEBUGGING, OCTETS
 19 .debug_str    0007f90b  00000000  00000000  0007aa13  2**0
                  CONTENTS, READONLY, DEBUGGING, OCTETS
 20 .comment      00000050  00000000  00000000  000fa31e  2**0
                  CONTENTS, READONLY
 21 .debug_frame  00003104  00000000  00000000  000fa370  2**2
                  CONTENTS, READONLY, DEBUGGING, OCTETS

Disassembly of section .text:

080000c0 <__do_global_dtors_aux>:
 80000c0:	b510      	push	{r4, lr}
 80000c2:	4c06      	ldr	r4, [pc, #24]	; (80000dc <__do_global_dtors_aux+0x1c>)
 80000c4:	7823      	ldrb	r3, [r4, #0]
 80000c6:	2b00      	cmp	r3, #0
 80000c8:	d107      	bne.n	80000da <__do_global_dtors_aux+0x1a>
 80000ca:	4b05      	ldr	r3, [pc, #20]	; (80000e0 <__do_global_dtors_aux+0x20>)
 80000cc:	2b00      	cmp	r3, #0
 80000ce:	d002      	beq.n	80000d6 <__do_global_dtors_aux+0x16>
 80000d0:	4804      	ldr	r0, [pc, #16]	; (80000e4 <__do_global_dtors_aux+0x24>)
 80000d2:	e000      	b.n	80000d6 <__do_global_dtors_aux+0x16>
 80000d4:	bf00      	nop
 80000d6:	2301      	movs	r3, #1
 80000d8:	7023      	strb	r3, [r4, #0]
 80000da:	bd10      	pop	{r4, pc}
 80000dc:	2000007c 	.word	0x2000007c
 80000e0:	00000000 	.word	0x00000000
 80000e4:	08005d7c 	.word	0x08005d7c

080000e8 <frame_dummy>:
 80000e8:	4b04      	ldr	r3, [pc, #16]	; (80000fc <frame_dummy+0x14>)
 80000ea:	b510      	push	{r4, lr}
 80000ec:	2b00      	cmp	r3, #0
 80000ee:	d003      	beq.n	80000f8 <frame_dummy+0x10>
 80000f0:	4903      	ldr	r1, [pc, #12]	; (8000100 <frame_dummy+0x18>)
 80000f2:	4804      	ldr	r0, [pc, #16]	; (8000104 <frame_dummy+0x1c>)
 80000f4:	e000      	b.n	80000f8 <frame_dummy+0x10>
 80000f6:	bf00      	nop
 80000f8:	bd10      	pop	{r4, pc}
 80000fa:	46c0      	nop			; (mov r8, r8)
 80000fc:	00000000 	.word	0x00000000
 8000100:	20000080 	.word	0x20000080
 8000104:	08005d7c 	.word	0x08005d7c

08000108 <strlen>:
 8000108:	2300      	movs	r3, #0
 800010a:	5cc2      	ldrb	r2, [r0, r3]
 800010c:	3301      	adds	r3, #1
 800010e:	2a00      	cmp	r2, #0
 8000110:	d1fb      	bne.n	800010a <strlen+0x2>
 8000112:	1e58      	subs	r0, r3, #1
 8000114:	4770      	bx	lr
	...

08000118 <__gnu_thumb1_case_uqi>:
 8000118:	b402      	push	{r1}
 800011a:	4671      	mov	r1, lr
 800011c:	0849      	lsrs	r1, r1, #1
 800011e:	0049      	lsls	r1, r1, #1
 8000120:	5c09      	ldrb	r1, [r1, r0]
 8000122:	0049      	lsls	r1, r1, #1
 8000124:	448e      	add	lr, r1
 8000126:	bc02      	pop	{r1}
 8000128:	4770      	bx	lr
 800012a:	46c0      	nop			; (mov r8, r8)

0800012c <__gnu_thumb1_case_shi>:
 800012c:	b403      	push	{r0, r1}
 800012e:	4671      	mov	r1, lr
 8000130:	0849      	lsrs	r1, r1, #1
 8000132:	0040      	lsls	r0, r0, #1
 8000134:	0049      	lsls	r1, r1, #1
 8000136:	5e09      	ldrsh	r1, [r1, r0]
 8000138:	0049      	lsls	r1, r1, #1
 800013a:	448e      	add	lr, r1
 800013c:	bc03      	pop	{r0, r1}
 800013e:	4770      	bx	lr

08000140 <__udivsi3>:
 8000140:	2200      	movs	r2, #0
 8000142:	0843      	lsrs	r3, r0, #1
 8000144:	428b      	cmp	r3, r1
 8000146:	d374      	bcc.n	8000232 <__udivsi3+0xf2>
 8000148:	0903      	lsrs	r3, r0, #4
 800014a:	428b      	cmp	r3, r1
 800014c:	d35f      	bcc.n	800020e <__udivsi3+0xce>
 800014e:	0a03      	lsrs	r3, r0, #8
 8000150:	428b      	cmp	r3, r1
 8000152:	d344      	bcc.n	80001de <__udivsi3+0x9e>
 8000154:	0b03      	lsrs	r3, r0, #12
 8000156:	428b      	cmp	r3, r1
 8000158:	d328      	bcc.n	80001ac <__udivsi3+0x6c>
 800015a:	0c03      	lsrs	r3, r0, #16
 800015c:	428b      	cmp	r3, r1
 800015e:	d30d      	bcc.n	800017c <__udivsi3+0x3c>
 8000160:	22ff      	movs	r2, #255	; 0xff
 8000162:	0209      	lsls	r1, r1, #8
 8000164:	ba12      	rev	r2, r2
 8000166:	0c03      	lsrs	r3, r0, #16
 8000168:	428b      	cmp	r3, r1
 800016a:	d302      	bcc.n	8000172 <__udivsi3+0x32>
 800016c:	1212      	asrs	r2, r2, #8
 800016e:	0209      	lsls	r1, r1, #8
 8000170:	d065      	beq.n	800023e <__udivsi3+0xfe>
 8000172:	0b03      	lsrs	r3, r0, #12
 8000174:	428b      	cmp	r3, r1
 8000176:	d319      	bcc.n	80001ac <__udivsi3+0x6c>
 8000178:	e000      	b.n	800017c <__udivsi3+0x3c>
 800017a:	0a09      	lsrs	r1, r1, #8
 800017c:	0bc3      	lsrs	r3, r0, #15
 800017e:	428b      	cmp	r3, r1
 8000180:	d301      	bcc.n	8000186 <__udivsi3+0x46>
 8000182:	03cb      	lsls	r3, r1, #15
 8000184:	1ac0      	subs	r0, r0, r3
 8000186:	4152      	adcs	r2, r2
 8000188:	0b83      	lsrs	r3, r0, #14
 800018a:	428b      	cmp	r3, r1
 800018c:	d301      	bcc.n	8000192 <__udivsi3+0x52>
 800018e:	038b      	lsls	r3, r1, #14
 8000190:	1ac0      	subs	r0, r0, r3
 8000192:	4152      	adcs	r2, r2
 8000194:	0b43      	lsrs	r3, r0, #13
 8000196:	428b      	cmp	r3, r1
 8000198:	d301      	bcc.n	800019e <__udivsi3+0x5e>
 800019a:	034b      	lsls	r3, r1, #13
 800019c:	1ac0      	subs	r0, r0, r3
 800019e:	4152      	adcs	r2, r2
 80001a0:	0b03      	lsrs	r3, r0, #12
 80001a2:	428b      	cmp	r3, r1
 80001a4:	d301      	bcc.n	80001aa <__udivsi3+0x6a>
 80001a6:	030b      	lsls	r3, r1, #12
 80001a8:	1ac0      	subs	r0, r0, r3
 80001aa:	4152      	adcs	r2, r2
 80001ac:	0ac3      	lsrs	r3, r0, #11
 80001ae:	428b      	cmp	r3, r1
 80001b0:	d301      	bcc.n	80001b6 <__udivsi3+0x76>
 80001b2:	02cb      	lsls	r3, r1, #11
 80001b4:	1ac0      	subs	r0, r0, r3
 80001b6:	4152      	adcs	r2, r2
 80001b8:	0a83      	lsrs	r3, r0, #10
 80001ba:	428b      	cmp	r3, r1
 80001bc:	d301      	bcc.n	80001c2 <__udivsi3+0x82>
 80001be:	028b      	lsls	r3, r1, #10
 80001c0:	1ac0      	subs	r0, r0, r3
 80001c2:	4152      	adcs	r2, r2
 80001c4:	0a43      	lsrs	r3, r0, #9
 80001c6:	428b      	cmp	r3, r1
 80001c8:	d301      	bcc.n	80001ce <__udivsi3+0x8e>
 80001ca:	024b      	lsls	r3, r1, #9
 80001cc:	1ac0      	subs	r0, r0, r3
 80001ce:	4152      	adcs	r2, r2
 80001d0:	0a03      	lsrs	r3, r0, #8
 80001d2:	428b      	cmp	r3, r1
 80001d4:	d301      	bcc.n	80001da <__udivsi3+0x9a>
 80001d6:	020b      	lsls	r3, r1, #8
 80001d8:	1ac0      	subs	r0, r0, r3
 80001da:	4152      	adcs	r2, r2
 80001dc:	d2cd      	bcs.n	800017a <__udivsi3+0x3a>
 80001de:	09c3      	lsrs	r3, r0, #7
 80001e0:	428b      	cmp	r3, r1
 80001e2:	d301      	bcc.n	80001e8 <__udivsi3+0xa8>
 80001e4:	01cb      	lsls	r3, r1, #7
 80001e6:	1ac0      	subs	r0, r0, r3
 80001e8:	4152      	adcs	r2, r2
 80001ea:	0983      	lsrs	r3, r0, #6
 80001ec:	428b      	cmp	r3, r1
 80001ee:	d301      	bcc.n	80001f4 <__udivsi3+0xb4>
 80001f0:	018b      	lsls	r3, r1, #6
 80001f2:	1ac0      	subs	r0, r0, r3
 80001f4:	4152      	adcs	r2, r2
 80001f6:	0943      	lsrs	r3, r0, #5
 80001f8:	428b      	cmp	r3, r1
 80001fa:	d301      	bcc.n	8000200 <__udivsi3+0xc0>
 80001fc:	014b      	lsls	r3, r1, #5
 80001fe:	1ac0      	subs	r0, r0, r3
 8000200:	4152      	adcs	r2, r2
 8000202:	0903      	lsrs	r3, r0, #4
 8000204:	428b      	cmp	r3, r1
 8000206:	d301      	bcc.n	800020c <__udivsi3+0xcc>
 8000208:	010b      	lsls	r3, r1, #4
 800020a:	1ac0      	subs	r0, r0, r3
 800020c:	4152      	adcs	r2, r2
 800020e:	08c3      	lsrs	r3, r0, #3
 8000210:	428b      	cmp	r3, r1
 8000212:	d301      	bcc.n	8000218 <__udivsi3+0xd8>
 8000214:	00cb      	lsls	r3, r1, #3
 8000216:	1ac0      	subs	r0, r0, r3
 8000218:	4152      	adcs	r2, r2
 800021a:	0883      	lsrs	r3, r0, #2
 800021c:	428b      	cmp	r3, r1
 800021e:	d301      	bcc.n	8000224 <__udivsi3+0xe4>
 8000220:	008b      	lsls	r3, r1, #2
 8000222:	1ac0      	subs	r0, r0, r3
 8000224:	4152      	adcs	r2, r2
 8000226:	0843      	lsrs	r3, r0, #1
 8000228:	428b      	cmp	r3, r1
 800022a:	d301      	bcc.n	8000230 <__udivsi3+0xf0>
 800022c:	004b      	lsls	r3, r1, #1
 800022e:	1ac0      	subs	r0, r0, r3
 8000230:	4152      	adcs	r2, r2
 8000232:	1a41      	subs	r1, r0, r1
 8000234:	d200      	bcs.n	8000238 <__udivsi3+0xf8>
 8000236:	4601      	mov	r1, r0
 8000238:	4152      	adcs	r2, r2
 800023a:	4610      	mov	r0, r2
 800023c:	4770      	bx	lr
 800023e:	e7ff      	b.n	8000240 <__udivsi3+0x100>
 8000240:	b501      	push	{r0, lr}
 8000242:	2000      	movs	r0, #0
 8000244:	f000 f8f0 	bl	8000428 <__aeabi_idiv0>
 8000248:	bd02      	pop	{r1, pc}
 800024a:	46c0      	nop			; (mov r8, r8)

0800024c <__aeabi_uidivmod>:
 800024c:	2900      	cmp	r1, #0
 800024e:	d0f7      	beq.n	8000240 <__udivsi3+0x100>
 8000250:	e776      	b.n	8000140 <__udivsi3>
 8000252:	4770      	bx	lr

08000254 <__divsi3>:
 8000254:	4603      	mov	r3, r0
 8000256:	430b      	orrs	r3, r1
 8000258:	d47f      	bmi.n	800035a <__divsi3+0x106>
 800025a:	2200      	movs	r2, #0
 800025c:	0843      	lsrs	r3, r0, #1
 800025e:	428b      	cmp	r3, r1
 8000260:	d374      	bcc.n	800034c <__divsi3+0xf8>
 8000262:	0903      	lsrs	r3, r0, #4
 8000264:	428b      	cmp	r3, r1
 8000266:	d35f      	bcc.n	8000328 <__divsi3+0xd4>
 8000268:	0a03      	lsrs	r3, r0, #8
 800026a:	428b      	cmp	r3, r1
 800026c:	d344      	bcc.n	80002f8 <__divsi3+0xa4>
 800026e:	0b03      	lsrs	r3, r0, #12
 8000270:	428b      	cmp	r3, r1
 8000272:	d328      	bcc.n	80002c6 <__divsi3+0x72>
 8000274:	0c03      	lsrs	r3, r0, #16
 8000276:	428b      	cmp	r3, r1
 8000278:	d30d      	bcc.n	8000296 <__divsi3+0x42>
 800027a:	22ff      	movs	r2, #255	; 0xff
 800027c:	0209      	lsls	r1, r1, #8
 800027e:	ba12      	rev	r2, r2
 8000280:	0c03      	lsrs	r3, r0, #16
 8000282:	428b      	cmp	r3, r1
 8000284:	d302      	bcc.n	800028c <__divsi3+0x38>
 8000286:	1212      	asrs	r2, r2, #8
 8000288:	0209      	lsls	r1, r1, #8
 800028a:	d065      	beq.n	8000358 <__divsi3+0x104>
 800028c:	0b03      	lsrs	r3, r0, #12
 800028e:	428b      	cmp	r3, r1
 8000290:	d319      	bcc.n	80002c6 <__divsi3+0x72>
 8000292:	e000      	b.n	8000296 <__divsi3+0x42>
 8000294:	0a09      	lsrs	r1, r1, #8
 8000296:	0bc3      	lsrs	r3, r0, #15
 8000298:	428b      	cmp	r3, r1
 800029a:	d301      	bcc.n	80002a0 <__divsi3+0x4c>
 800029c:	03cb      	lsls	r3, r1, #15
 800029e:	1ac0      	subs	r0, r0, r3
 80002a0:	4152      	adcs	r2, r2
 80002a2:	0b83      	lsrs	r3, r0, #14
 80002a4:	428b      	cmp	r3, r1
 80002a6:	d301      	bcc.n	80002ac <__divsi3+0x58>
 80002a8:	038b      	lsls	r3, r1, #14
 80002aa:	1ac0      	subs	r0, r0, r3
 80002ac:	4152      	adcs	r2, r2
 80002ae:	0b43      	lsrs	r3, r0, #13
 80002b0:	428b      	cmp	r3, r1
 80002b2:	d301      	bcc.n	80002b8 <__divsi3+0x64>
 80002b4:	034b      	lsls	r3, r1, #13
 80002b6:	1ac0      	subs	r0, r0, r3
 80002b8:	4152      	adcs	r2, r2
 80002ba:	0b03      	lsrs	r3, r0, #12
 80002bc:	428b      	cmp	r3, r1
 80002be:	d301      	bcc.n	80002c4 <__divsi3+0x70>
 80002c0:	030b      	lsls	r3, r1, #12
 80002c2:	1ac0      	subs	r0, r0, r3
 80002c4:	4152      	adcs	r2, r2
 80002c6:	0ac3      	lsrs	r3, r0, #11
 80002c8:	428b      	cmp	r3, r1
 80002ca:	d301      	bcc.n	80002d0 <__divsi3+0x7c>
 80002cc:	02cb      	lsls	r3, r1, #11
 80002ce:	1ac0      	subs	r0, r0, r3
 80002d0:	4152      	adcs	r2, r2
 80002d2:	0a83      	lsrs	r3, r0, #10
 80002d4:	428b      	cmp	r3, r1
 80002d6:	d301      	bcc.n	80002dc <__divsi3+0x88>
 80002d8:	028b      	lsls	r3, r1, #10
 80002da:	1ac0      	subs	r0, r0, r3
 80002dc:	4152      	adcs	r2, r2
 80002de:	0a43      	lsrs	r3, r0, #9
 80002e0:	428b      	cmp	r3, r1
 80002e2:	d301      	bcc.n	80002e8 <__divsi3+0x94>
 80002e4:	024b      	lsls	r3, r1, #9
 80002e6:	1ac0      	subs	r0, r0, r3
 80002e8:	4152      	adcs	r2, r2
 80002ea:	0a03      	lsrs	r3, r0, #8
 80002ec:	428b      	cmp	r3, r1
 80002ee:	d301      	bcc.n	80002f4 <__divsi3+0xa0>
 80002f0:	020b      	lsls	r3, r1, #8
 80002f2:	1ac0      	subs	r0, r0, r3
 80002f4:	4152      	adcs	r2, r2
 80002f6:	d2cd      	bcs.n	8000294 <__divsi3+0x40>
 80002f8:	09c3      	lsrs	r3, r0, #7
 80002fa:	428b      	cmp	r3, r1
 80002fc:	d301      	bcc.n	8000302 <__divsi3+0xae>
 80002fe:	01cb      	lsls	r3, r1, #7
 8000300:	1ac0      	subs	r0, r0, r3
 8000302:	4152      	adcs	r2, r2
 8000304:	0983      	lsrs	r3, r0, #6
 8000306:	428b      	cmp	r3, r1
 8000308:	d301      	bcc.n	800030e <__divsi3+0xba>
 800030a:	018b      	lsls	r3, r1, #6
 800030c:	1ac0      	subs	r0, r0, r3
 800030e:	4152      	adcs	r2, r2
 8000310:	0943      	lsrs	r3, r0, #5
 8000312:	428b      	cmp	r3, r1
 8000314:	d301      	bcc.n	800031a <__divsi3+0xc6>
 8000316:	014b      	lsls	r3, r1, #5
 8000318:	1ac0      	subs	r0, r0, r3
 800031a:	4152      	adcs	r2, r2
 800031c:	0903      	lsrs	r3, r0, #4
 800031e:	428b      	cmp	r3, r1
 8000320:	d301      	bcc.n	8000326 <__divsi3+0xd2>
 8000322:	010b      	lsls	r3, r1, #4
 8000324:	1ac0      	subs	r0, r0, r3
 8000326:	4152      	adcs	r2, r2
 8000328:	08c3      	lsrs	r3, r0, #3
 800032a:	428b      	cmp	r3, r1
 800032c:	d301      	bcc.n	8000332 <__divsi3+0xde>
 800032e:	00cb      	lsls	r3, r1, #3
 8000330:	1ac0      	subs	r0, r0, r3
 8000332:	4152      	adcs	r2, r2
 8000334:	0883      	lsrs	r3, r0, #2
 8000336:	428b      	cmp	r3, r1
 8000338:	d301      	bcc.n	800033e <__divsi3+0xea>
 800033a:	008b      	lsls	r3, r1, #2
 800033c:	1ac0      	subs	r0, r0, r3
 800033e:	4152      	adcs	r2, r2
 8000340:	0843      	lsrs	r3, r0, #1
 8000342:	428b      	cmp	r3, r1
 8000344:	d301      	bcc.n	800034a <__divsi3+0xf6>
 8000346:	004b      	lsls	r3, r1, #1
 8000348:	1ac0      	subs	r0, r0, r3
 800034a:	4152      	adcs	r2, r2
 800034c:	1a41      	subs	r1, r0, r1
 800034e:	d200      	bcs.n	8000352 <__divsi3+0xfe>
 8000350:	4601      	mov	r1, r0
 8000352:	4152      	adcs	r2, r2
 8000354:	4610      	mov	r0, r2
 8000356:	4770      	bx	lr
 8000358:	e05d      	b.n	8000416 <__divsi3+0x1c2>
 800035a:	0fca      	lsrs	r2, r1, #31
 800035c:	d000      	beq.n	8000360 <__divsi3+0x10c>
 800035e:	4249      	negs	r1, r1
 8000360:	1003      	asrs	r3, r0, #32
 8000362:	d300      	bcc.n	8000366 <__divsi3+0x112>
 8000364:	4240      	negs	r0, r0
 8000366:	4053      	eors	r3, r2
 8000368:	2200      	movs	r2, #0
 800036a:	469c      	mov	ip, r3
 800036c:	0903      	lsrs	r3, r0, #4
 800036e:	428b      	cmp	r3, r1
 8000370:	d32d      	bcc.n	80003ce <__divsi3+0x17a>
 8000372:	0a03      	lsrs	r3, r0, #8
 8000374:	428b      	cmp	r3, r1
 8000376:	d312      	bcc.n	800039e <__divsi3+0x14a>
 8000378:	22fc      	movs	r2, #252	; 0xfc
 800037a:	0189      	lsls	r1, r1, #6
 800037c:	ba12      	rev	r2, r2
 800037e:	0a03      	lsrs	r3, r0, #8
 8000380:	428b      	cmp	r3, r1
 8000382:	d30c      	bcc.n	800039e <__divsi3+0x14a>
 8000384:	0189      	lsls	r1, r1, #6
 8000386:	1192      	asrs	r2, r2, #6
 8000388:	428b      	cmp	r3, r1
 800038a:	d308      	bcc.n	800039e <__divsi3+0x14a>
 800038c:	0189      	lsls	r1, r1, #6
 800038e:	1192      	asrs	r2, r2, #6
 8000390:	428b      	cmp	r3, r1
 8000392:	d304      	bcc.n	800039e <__divsi3+0x14a>
 8000394:	0189      	lsls	r1, r1, #6
 8000396:	d03a      	beq.n	800040e <__divsi3+0x1ba>
 8000398:	1192      	asrs	r2, r2, #6
 800039a:	e000      	b.n	800039e <__divsi3+0x14a>
 800039c:	0989      	lsrs	r1, r1, #6
 800039e:	09c3      	lsrs	r3, r0, #7
 80003a0:	428b      	cmp	r3, r1
 80003a2:	d301      	bcc.n	80003a8 <__divsi3+0x154>
 80003a4:	01cb      	lsls	r3, r1, #7
 80003a6:	1ac0      	subs	r0, r0, r3
 80003a8:	4152      	adcs	r2, r2
 80003aa:	0983      	lsrs	r3, r0, #6
 80003ac:	428b      	cmp	r3, r1
 80003ae:	d301      	bcc.n	80003b4 <__divsi3+0x160>
 80003b0:	018b      	lsls	r3, r1, #6
 80003b2:	1ac0      	subs	r0, r0, r3
 80003b4:	4152      	adcs	r2, r2
 80003b6:	0943      	lsrs	r3, r0, #5
 80003b8:	428b      	cmp	r3, r1
 80003ba:	d301      	bcc.n	80003c0 <__divsi3+0x16c>
 80003bc:	014b      	lsls	r3, r1, #5
 80003be:	1ac0      	subs	r0, r0, r3
 80003c0:	4152      	adcs	r2, r2
 80003c2:	0903      	lsrs	r3, r0, #4
 80003c4:	428b      	cmp	r3, r1
 80003c6:	d301      	bcc.n	80003cc <__divsi3+0x178>
 80003c8:	010b      	lsls	r3, r1, #4
 80003ca:	1ac0      	subs	r0, r0, r3
 80003cc:	4152      	adcs	r2, r2
 80003ce:	08c3      	lsrs	r3, r0, #3
 80003d0:	428b      	cmp	r3, r1
 80003d2:	d301      	bcc.n	80003d8 <__divsi3+0x184>
 80003d4:	00cb      	lsls	r3, r1, #3
 80003d6:	1ac0      	subs	r0, r0, r3
 80003d8:	4152      	adcs	r2, r2
 80003da:	0883      	lsrs	r3, r0, #2
 80003dc:	428b      	cmp	r3, r1
 80003de:	d301      	bcc.n	80003e4 <__divsi3+0x190>
 80003e0:	008b      	lsls	r3, r1, #2
 80003e2:	1ac0      	subs	r0, r0, r3
 80003e4:	4152      	adcs	r2, r2
 80003e6:	d2d9      	bcs.n	800039c <__divsi3+0x148>
 80003e8:	0843      	lsrs	r3, r0, #1
 80003ea:	428b      	cmp	r3, r1
 80003ec:	d301      	bcc.n	80003f2 <__divsi3+0x19e>
 80003ee:	004b      	lsls	r3, r1, #1
 80003f0:	1ac0      	subs	r0, r0, r3
 80003f2:	4152      	adcs	r2, r2
 80003f4:	1a41      	subs	r1, r0, r1
 80003f6:	d200      	bcs.n	80003fa <__divsi3+0x1a6>
 80003f8:	4601      	mov	r1, r0
 80003fa:	4663      	mov	r3, ip
 80003fc:	4152      	adcs	r2, r2
 80003fe:	105b      	asrs	r3, r3, #1
 8000400:	4610      	mov	r0, r2
 8000402:	d301      	bcc.n	8000408 <__divsi3+0x1b4>
 8000404:	4240      	negs	r0, r0
 8000406:	2b00      	cmp	r3, #0
 8000408:	d500      	bpl.n	800040c <__divsi3+0x1b8>
 800040a:	4249      	negs	r1, r1
 800040c:	4770      	bx	lr
 800040e:	4663      	mov	r3, ip
 8000410:	105b      	asrs	r3, r3, #1
 8000412:	d300      	bcc.n	8000416 <__divsi3+0x1c2>
 8000414:	4240      	negs	r0, r0
 8000416:	b501      	push	{r0, lr}
 8000418:	2000      	movs	r0, #0
 800041a:	f000 f805 	bl	8000428 <__aeabi_idiv0>
 800041e:	bd02      	pop	{r1, pc}

08000420 <__aeabi_idivmod>:
 8000420:	2900      	cmp	r1, #0
 8000422:	d0f8      	beq.n	8000416 <__divsi3+0x1c2>
 8000424:	e716      	b.n	8000254 <__divsi3>
 8000426:	4770      	bx	lr

08000428 <__aeabi_idiv0>:
 8000428:	4770      	bx	lr
 800042a:	46c0      	nop			; (mov r8, r8)

0800042c <__aeabi_uldivmod>:
 800042c:	2b00      	cmp	r3, #0
 800042e:	d111      	bne.n	8000454 <__aeabi_uldivmod+0x28>
 8000430:	2a00      	cmp	r2, #0
 8000432:	d10f      	bne.n	8000454 <__aeabi_uldivmod+0x28>
 8000434:	2900      	cmp	r1, #0
 8000436:	d100      	bne.n	800043a <__aeabi_uldivmod+0xe>
 8000438:	2800      	cmp	r0, #0
 800043a:	d002      	beq.n	8000442 <__aeabi_uldivmod+0x16>
 800043c:	2100      	movs	r1, #0
 800043e:	43c9      	mvns	r1, r1
 8000440:	0008      	movs	r0, r1
 8000442:	b407      	push	{r0, r1, r2}
 8000444:	4802      	ldr	r0, [pc, #8]	; (8000450 <__aeabi_uldivmod+0x24>)
 8000446:	a102      	add	r1, pc, #8	; (adr r1, 8000450 <__aeabi_uldivmod+0x24>)
 8000448:	1840      	adds	r0, r0, r1
 800044a:	9002      	str	r0, [sp, #8]
 800044c:	bd03      	pop	{r0, r1, pc}
 800044e:	46c0      	nop			; (mov r8, r8)
 8000450:	ffffffd9 	.word	0xffffffd9
 8000454:	b403      	push	{r0, r1}
 8000456:	4668      	mov	r0, sp
 8000458:	b501      	push	{r0, lr}
 800045a:	9802      	ldr	r0, [sp, #8]
 800045c:	f000 f86a 	bl	8000534 <__udivmoddi4>
 8000460:	9b01      	ldr	r3, [sp, #4]
 8000462:	469e      	mov	lr, r3
 8000464:	b002      	add	sp, #8
 8000466:	bc0c      	pop	{r2, r3}
 8000468:	4770      	bx	lr
 800046a:	46c0      	nop			; (mov r8, r8)

0800046c <__aeabi_lmul>:
 800046c:	b5f0      	push	{r4, r5, r6, r7, lr}
 800046e:	46ce      	mov	lr, r9
 8000470:	4647      	mov	r7, r8
 8000472:	b580      	push	{r7, lr}
 8000474:	0007      	movs	r7, r0
 8000476:	4699      	mov	r9, r3
 8000478:	0c3b      	lsrs	r3, r7, #16
 800047a:	469c      	mov	ip, r3
 800047c:	0413      	lsls	r3, r2, #16
 800047e:	0c1b      	lsrs	r3, r3, #16
 8000480:	001d      	movs	r5, r3
 8000482:	000e      	movs	r6, r1
 8000484:	4661      	mov	r1, ip
 8000486:	0400      	lsls	r0, r0, #16
 8000488:	0c14      	lsrs	r4, r2, #16
 800048a:	0c00      	lsrs	r0, r0, #16
 800048c:	4345      	muls	r5, r0
 800048e:	434b      	muls	r3, r1
 8000490:	4360      	muls	r0, r4
 8000492:	4361      	muls	r1, r4
 8000494:	18c0      	adds	r0, r0, r3
 8000496:	0c2c      	lsrs	r4, r5, #16
 8000498:	1820      	adds	r0, r4, r0
 800049a:	468c      	mov	ip, r1
 800049c:	4283      	cmp	r3, r0
 800049e:	d903      	bls.n	80004a8 <__aeabi_lmul+0x3c>
 80004a0:	2380      	movs	r3, #128	; 0x80
 80004a2:	025b      	lsls	r3, r3, #9
 80004a4:	4698      	mov	r8, r3
 80004a6:	44c4      	add	ip, r8
 80004a8:	4649      	mov	r1, r9
 80004aa:	4379      	muls	r1, r7
 80004ac:	4372      	muls	r2, r6
 80004ae:	0c03      	lsrs	r3, r0, #16
 80004b0:	4463      	add	r3, ip
 80004b2:	042d      	lsls	r5, r5, #16
 80004b4:	0c2d      	lsrs	r5, r5, #16
 80004b6:	18c9      	adds	r1, r1, r3
 80004b8:	0400      	lsls	r0, r0, #16
 80004ba:	1940      	adds	r0, r0, r5
 80004bc:	1889      	adds	r1, r1, r2
 80004be:	bcc0      	pop	{r6, r7}
 80004c0:	46b9      	mov	r9, r7
 80004c2:	46b0      	mov	r8, r6
 80004c4:	bdf0      	pop	{r4, r5, r6, r7, pc}
 80004c6:	46c0      	nop			; (mov r8, r8)

080004c8 <__aeabi_f2uiz>:
 80004c8:	219e      	movs	r1, #158	; 0x9e
 80004ca:	b510      	push	{r4, lr}
 80004cc:	05c9      	lsls	r1, r1, #23
 80004ce:	1c04      	adds	r4, r0, #0
 80004d0:	f001 fc34 	bl	8001d3c <__aeabi_fcmpge>
 80004d4:	2800      	cmp	r0, #0
 80004d6:	d103      	bne.n	80004e0 <__aeabi_f2uiz+0x18>
 80004d8:	1c20      	adds	r0, r4, #0
 80004da:	f000 fce3 	bl	8000ea4 <__aeabi_f2iz>
 80004de:	bd10      	pop	{r4, pc}
 80004e0:	219e      	movs	r1, #158	; 0x9e
 80004e2:	1c20      	adds	r0, r4, #0
 80004e4:	05c9      	lsls	r1, r1, #23
 80004e6:	f000 fb2f 	bl	8000b48 <__aeabi_fsub>
 80004ea:	f000 fcdb 	bl	8000ea4 <__aeabi_f2iz>
 80004ee:	2380      	movs	r3, #128	; 0x80
 80004f0:	061b      	lsls	r3, r3, #24
 80004f2:	469c      	mov	ip, r3
 80004f4:	4460      	add	r0, ip
 80004f6:	e7f2      	b.n	80004de <__aeabi_f2uiz+0x16>

080004f8 <__aeabi_d2uiz>:
 80004f8:	b570      	push	{r4, r5, r6, lr}
 80004fa:	2200      	movs	r2, #0
 80004fc:	4b0c      	ldr	r3, [pc, #48]	; (8000530 <__aeabi_d2uiz+0x38>)
 80004fe:	0004      	movs	r4, r0
 8000500:	000d      	movs	r5, r1
 8000502:	f001 fbe1 	bl	8001cc8 <__aeabi_dcmpge>
 8000506:	2800      	cmp	r0, #0
 8000508:	d104      	bne.n	8000514 <__aeabi_d2uiz+0x1c>
 800050a:	0020      	movs	r0, r4
 800050c:	0029      	movs	r1, r5
 800050e:	f001 fb29 	bl	8001b64 <__aeabi_d2iz>
 8000512:	bd70      	pop	{r4, r5, r6, pc}
 8000514:	4b06      	ldr	r3, [pc, #24]	; (8000530 <__aeabi_d2uiz+0x38>)
 8000516:	2200      	movs	r2, #0
 8000518:	0020      	movs	r0, r4
 800051a:	0029      	movs	r1, r5
 800051c:	f000 ff90 	bl	8001440 <__aeabi_dsub>
 8000520:	f001 fb20 	bl	8001b64 <__aeabi_d2iz>
 8000524:	2380      	movs	r3, #128	; 0x80
 8000526:	061b      	lsls	r3, r3, #24
 8000528:	469c      	mov	ip, r3
 800052a:	4460      	add	r0, ip
 800052c:	e7f1      	b.n	8000512 <__aeabi_d2uiz+0x1a>
 800052e:	46c0      	nop			; (mov r8, r8)
 8000530:	41e00000 	.word	0x41e00000

08000534 <__udivmoddi4>:
 8000534:	b5f0      	push	{r4, r5, r6, r7, lr}
 8000536:	4657      	mov	r7, sl
 8000538:	464e      	mov	r6, r9
 800053a:	4645      	mov	r5, r8
 800053c:	46de      	mov	lr, fp
 800053e:	b5e0      	push	{r5, r6, r7, lr}
 8000540:	0004      	movs	r4, r0
 8000542:	000d      	movs	r5, r1
 8000544:	4692      	mov	sl, r2
 8000546:	4699      	mov	r9, r3
 8000548:	b083      	sub	sp, #12
 800054a:	428b      	cmp	r3, r1
 800054c:	d830      	bhi.n	80005b0 <__udivmoddi4+0x7c>
 800054e:	d02d      	beq.n	80005ac <__udivmoddi4+0x78>
 8000550:	4649      	mov	r1, r9
 8000552:	4650      	mov	r0, sl
 8000554:	f001 fc1a 	bl	8001d8c <__clzdi2>
 8000558:	0029      	movs	r1, r5
 800055a:	0006      	movs	r6, r0
 800055c:	0020      	movs	r0, r4
 800055e:	f001 fc15 	bl	8001d8c <__clzdi2>
 8000562:	1a33      	subs	r3, r6, r0
 8000564:	4698      	mov	r8, r3
 8000566:	3b20      	subs	r3, #32
 8000568:	469b      	mov	fp, r3
 800056a:	d433      	bmi.n	80005d4 <__udivmoddi4+0xa0>
 800056c:	465a      	mov	r2, fp
 800056e:	4653      	mov	r3, sl
 8000570:	4093      	lsls	r3, r2
 8000572:	4642      	mov	r2, r8
 8000574:	001f      	movs	r7, r3
 8000576:	4653      	mov	r3, sl
 8000578:	4093      	lsls	r3, r2
 800057a:	001e      	movs	r6, r3
 800057c:	42af      	cmp	r7, r5
 800057e:	d83a      	bhi.n	80005f6 <__udivmoddi4+0xc2>
 8000580:	42af      	cmp	r7, r5
 8000582:	d100      	bne.n	8000586 <__udivmoddi4+0x52>
 8000584:	e078      	b.n	8000678 <__udivmoddi4+0x144>
 8000586:	465b      	mov	r3, fp
 8000588:	1ba4      	subs	r4, r4, r6
 800058a:	41bd      	sbcs	r5, r7
 800058c:	2b00      	cmp	r3, #0
 800058e:	da00      	bge.n	8000592 <__udivmoddi4+0x5e>
 8000590:	e075      	b.n	800067e <__udivmoddi4+0x14a>
 8000592:	2200      	movs	r2, #0
 8000594:	2300      	movs	r3, #0
 8000596:	9200      	str	r2, [sp, #0]
 8000598:	9301      	str	r3, [sp, #4]
 800059a:	2301      	movs	r3, #1
 800059c:	465a      	mov	r2, fp
 800059e:	4093      	lsls	r3, r2
 80005a0:	9301      	str	r3, [sp, #4]
 80005a2:	2301      	movs	r3, #1
 80005a4:	4642      	mov	r2, r8
 80005a6:	4093      	lsls	r3, r2
 80005a8:	9300      	str	r3, [sp, #0]
 80005aa:	e028      	b.n	80005fe <__udivmoddi4+0xca>
 80005ac:	4282      	cmp	r2, r0
 80005ae:	d9cf      	bls.n	8000550 <__udivmoddi4+0x1c>
 80005b0:	2200      	movs	r2, #0
 80005b2:	2300      	movs	r3, #0
 80005b4:	9200      	str	r2, [sp, #0]
 80005b6:	9301      	str	r3, [sp, #4]
 80005b8:	9b0c      	ldr	r3, [sp, #48]	; 0x30
 80005ba:	2b00      	cmp	r3, #0
 80005bc:	d001      	beq.n	80005c2 <__udivmoddi4+0x8e>
 80005be:	601c      	str	r4, [r3, #0]
 80005c0:	605d      	str	r5, [r3, #4]
 80005c2:	9800      	ldr	r0, [sp, #0]
 80005c4:	9901      	ldr	r1, [sp, #4]
 80005c6:	b003      	add	sp, #12
 80005c8:	bcf0      	pop	{r4, r5, r6, r7}
 80005ca:	46bb      	mov	fp, r7
 80005cc:	46b2      	mov	sl, r6
 80005ce:	46a9      	mov	r9, r5
 80005d0:	46a0      	mov	r8, r4
 80005d2:	bdf0      	pop	{r4, r5, r6, r7, pc}
 80005d4:	4642      	mov	r2, r8
 80005d6:	2320      	movs	r3, #32
 80005d8:	1a9b      	subs	r3, r3, r2
 80005da:	4652      	mov	r2, sl
 80005dc:	40da      	lsrs	r2, r3
 80005de:	4641      	mov	r1, r8
 80005e0:	0013      	movs	r3, r2
 80005e2:	464a      	mov	r2, r9
 80005e4:	408a      	lsls	r2, r1
 80005e6:	0017      	movs	r7, r2
 80005e8:	4642      	mov	r2, r8
 80005ea:	431f      	orrs	r7, r3
 80005ec:	4653      	mov	r3, sl
 80005ee:	4093      	lsls	r3, r2
 80005f0:	001e      	movs	r6, r3
 80005f2:	42af      	cmp	r7, r5
 80005f4:	d9c4      	bls.n	8000580 <__udivmoddi4+0x4c>
 80005f6:	2200      	movs	r2, #0
 80005f8:	2300      	movs	r3, #0
 80005fa:	9200      	str	r2, [sp, #0]
 80005fc:	9301      	str	r3, [sp, #4]
 80005fe:	4643      	mov	r3, r8
 8000600:	2b00      	cmp	r3, #0
 8000602:	d0d9      	beq.n	80005b8 <__udivmoddi4+0x84>
 8000604:	07fb      	lsls	r3, r7, #31
 8000606:	0872      	lsrs	r2, r6, #1
 8000608:	431a      	orrs	r2, r3
 800060a:	4646      	mov	r6, r8
 800060c:	087b      	lsrs	r3, r7, #1
 800060e:	e00e      	b.n	800062e <__udivmoddi4+0xfa>
 8000610:	42ab      	cmp	r3, r5
 8000612:	d101      	bne.n	8000618 <__udivmoddi4+0xe4>
 8000614:	42a2      	cmp	r2, r4
 8000616:	d80c      	bhi.n	8000632 <__udivmoddi4+0xfe>
 8000618:	1aa4      	subs	r4, r4, r2
 800061a:	419d      	sbcs	r5, r3
 800061c:	2001      	movs	r0, #1
 800061e:	1924      	adds	r4, r4, r4
 8000620:	416d      	adcs	r5, r5
 8000622:	2100      	movs	r1, #0
 8000624:	3e01      	subs	r6, #1
 8000626:	1824      	adds	r4, r4, r0
 8000628:	414d      	adcs	r5, r1
 800062a:	2e00      	cmp	r6, #0
 800062c:	d006      	beq.n	800063c <__udivmoddi4+0x108>
 800062e:	42ab      	cmp	r3, r5
 8000630:	d9ee      	bls.n	8000610 <__udivmoddi4+0xdc>
 8000632:	3e01      	subs	r6, #1
 8000634:	1924      	adds	r4, r4, r4
 8000636:	416d      	adcs	r5, r5
 8000638:	2e00      	cmp	r6, #0
 800063a:	d1f8      	bne.n	800062e <__udivmoddi4+0xfa>
 800063c:	9800      	ldr	r0, [sp, #0]
 800063e:	9901      	ldr	r1, [sp, #4]
 8000640:	465b      	mov	r3, fp
 8000642:	1900      	adds	r0, r0, r4
 8000644:	4169      	adcs	r1, r5
 8000646:	2b00      	cmp	r3, #0
 8000648:	db24      	blt.n	8000694 <__udivmoddi4+0x160>
 800064a:	002b      	movs	r3, r5
 800064c:	465a      	mov	r2, fp
 800064e:	4644      	mov	r4, r8
 8000650:	40d3      	lsrs	r3, r2
 8000652:	002a      	movs	r2, r5
 8000654:	40e2      	lsrs	r2, r4
 8000656:	001c      	movs	r4, r3
 8000658:	465b      	mov	r3, fp
 800065a:	0015      	movs	r5, r2
 800065c:	2b00      	cmp	r3, #0
 800065e:	db2a      	blt.n	80006b6 <__udivmoddi4+0x182>
 8000660:	0026      	movs	r6, r4
 8000662:	409e      	lsls	r6, r3
 8000664:	0033      	movs	r3, r6
 8000666:	0026      	movs	r6, r4
 8000668:	4647      	mov	r7, r8
 800066a:	40be      	lsls	r6, r7
 800066c:	0032      	movs	r2, r6
 800066e:	1a80      	subs	r0, r0, r2
 8000670:	4199      	sbcs	r1, r3
 8000672:	9000      	str	r0, [sp, #0]
 8000674:	9101      	str	r1, [sp, #4]
 8000676:	e79f      	b.n	80005b8 <__udivmoddi4+0x84>
 8000678:	42a3      	cmp	r3, r4
 800067a:	d8bc      	bhi.n	80005f6 <__udivmoddi4+0xc2>
 800067c:	e783      	b.n	8000586 <__udivmoddi4+0x52>
 800067e:	4642      	mov	r2, r8
 8000680:	2320      	movs	r3, #32
 8000682:	2100      	movs	r1, #0
 8000684:	1a9b      	subs	r3, r3, r2
 8000686:	2200      	movs	r2, #0
 8000688:	9100      	str	r1, [sp, #0]
 800068a:	9201      	str	r2, [sp, #4]
 800068c:	2201      	movs	r2, #1
 800068e:	40da      	lsrs	r2, r3
 8000690:	9201      	str	r2, [sp, #4]
 8000692:	e786      	b.n	80005a2 <__udivmoddi4+0x6e>
 8000694:	4642      	mov	r2, r8
 8000696:	2320      	movs	r3, #32
 8000698:	1a9b      	subs	r3, r3, r2
 800069a:	002a      	movs	r2, r5
 800069c:	4646      	mov	r6, r8
 800069e:	409a      	lsls	r2, r3
 80006a0:	0023      	movs	r3, r4
 80006a2:	40f3      	lsrs	r3, r6
 80006a4:	4644      	mov	r4, r8
 80006a6:	4313      	orrs	r3, r2
 80006a8:	002a      	movs	r2, r5
 80006aa:	40e2      	lsrs	r2, r4
 80006ac:	001c      	movs	r4, r3
 80006ae:	465b      	mov	r3, fp
 80006b0:	0015      	movs	r5, r2
 80006b2:	2b00      	cmp	r3, #0
 80006b4:	dad4      	bge.n	8000660 <__udivmoddi4+0x12c>
 80006b6:	4642      	mov	r2, r8
 80006b8:	002f      	movs	r7, r5
 80006ba:	2320      	movs	r3, #32
 80006bc:	0026      	movs	r6, r4
 80006be:	4097      	lsls	r7, r2
 80006c0:	1a9b      	subs	r3, r3, r2
 80006c2:	40de      	lsrs	r6, r3
 80006c4:	003b      	movs	r3, r7
 80006c6:	4333      	orrs	r3, r6
 80006c8:	e7cd      	b.n	8000666 <__udivmoddi4+0x132>
 80006ca:	46c0      	nop			; (mov r8, r8)

080006cc <__aeabi_fdiv>:
 80006cc:	b5f0      	push	{r4, r5, r6, r7, lr}
 80006ce:	464f      	mov	r7, r9
 80006d0:	4646      	mov	r6, r8
 80006d2:	46d6      	mov	lr, sl
 80006d4:	0245      	lsls	r5, r0, #9
 80006d6:	b5c0      	push	{r6, r7, lr}
 80006d8:	0047      	lsls	r7, r0, #1
 80006da:	1c0c      	adds	r4, r1, #0
 80006dc:	0a6d      	lsrs	r5, r5, #9
 80006de:	0e3f      	lsrs	r7, r7, #24
 80006e0:	0fc6      	lsrs	r6, r0, #31
 80006e2:	2f00      	cmp	r7, #0
 80006e4:	d100      	bne.n	80006e8 <__aeabi_fdiv+0x1c>
 80006e6:	e070      	b.n	80007ca <__aeabi_fdiv+0xfe>
 80006e8:	2fff      	cmp	r7, #255	; 0xff
 80006ea:	d100      	bne.n	80006ee <__aeabi_fdiv+0x22>
 80006ec:	e075      	b.n	80007da <__aeabi_fdiv+0x10e>
 80006ee:	00eb      	lsls	r3, r5, #3
 80006f0:	2580      	movs	r5, #128	; 0x80
 80006f2:	04ed      	lsls	r5, r5, #19
 80006f4:	431d      	orrs	r5, r3
 80006f6:	2300      	movs	r3, #0
 80006f8:	4699      	mov	r9, r3
 80006fa:	469a      	mov	sl, r3
 80006fc:	3f7f      	subs	r7, #127	; 0x7f
 80006fe:	0260      	lsls	r0, r4, #9
 8000700:	0a43      	lsrs	r3, r0, #9
 8000702:	4698      	mov	r8, r3
 8000704:	0063      	lsls	r3, r4, #1
 8000706:	0e1b      	lsrs	r3, r3, #24
 8000708:	0fe4      	lsrs	r4, r4, #31
 800070a:	2b00      	cmp	r3, #0
 800070c:	d04e      	beq.n	80007ac <__aeabi_fdiv+0xe0>
 800070e:	2bff      	cmp	r3, #255	; 0xff
 8000710:	d046      	beq.n	80007a0 <__aeabi_fdiv+0xd4>
 8000712:	4642      	mov	r2, r8
 8000714:	00d0      	lsls	r0, r2, #3
 8000716:	2280      	movs	r2, #128	; 0x80
 8000718:	04d2      	lsls	r2, r2, #19
 800071a:	4302      	orrs	r2, r0
 800071c:	4690      	mov	r8, r2
 800071e:	2200      	movs	r2, #0
 8000720:	3b7f      	subs	r3, #127	; 0x7f
 8000722:	0031      	movs	r1, r6
 8000724:	1aff      	subs	r7, r7, r3
 8000726:	464b      	mov	r3, r9
 8000728:	4061      	eors	r1, r4
 800072a:	b2c9      	uxtb	r1, r1
 800072c:	4313      	orrs	r3, r2
 800072e:	2b0f      	cmp	r3, #15
 8000730:	d900      	bls.n	8000734 <__aeabi_fdiv+0x68>
 8000732:	e0b5      	b.n	80008a0 <__aeabi_fdiv+0x1d4>
 8000734:	486e      	ldr	r0, [pc, #440]	; (80008f0 <__aeabi_fdiv+0x224>)
 8000736:	009b      	lsls	r3, r3, #2
 8000738:	58c3      	ldr	r3, [r0, r3]
 800073a:	469f      	mov	pc, r3
 800073c:	2300      	movs	r3, #0
 800073e:	4698      	mov	r8, r3
 8000740:	0026      	movs	r6, r4
 8000742:	4645      	mov	r5, r8
 8000744:	4692      	mov	sl, r2
 8000746:	4653      	mov	r3, sl
 8000748:	2b02      	cmp	r3, #2
 800074a:	d100      	bne.n	800074e <__aeabi_fdiv+0x82>
 800074c:	e089      	b.n	8000862 <__aeabi_fdiv+0x196>
 800074e:	2b03      	cmp	r3, #3
 8000750:	d100      	bne.n	8000754 <__aeabi_fdiv+0x88>
 8000752:	e09e      	b.n	8000892 <__aeabi_fdiv+0x1c6>
 8000754:	2b01      	cmp	r3, #1
 8000756:	d018      	beq.n	800078a <__aeabi_fdiv+0xbe>
 8000758:	003b      	movs	r3, r7
 800075a:	337f      	adds	r3, #127	; 0x7f
 800075c:	2b00      	cmp	r3, #0
 800075e:	dd69      	ble.n	8000834 <__aeabi_fdiv+0x168>
 8000760:	076a      	lsls	r2, r5, #29
 8000762:	d004      	beq.n	800076e <__aeabi_fdiv+0xa2>
 8000764:	220f      	movs	r2, #15
 8000766:	402a      	ands	r2, r5
 8000768:	2a04      	cmp	r2, #4
 800076a:	d000      	beq.n	800076e <__aeabi_fdiv+0xa2>
 800076c:	3504      	adds	r5, #4
 800076e:	012a      	lsls	r2, r5, #4
 8000770:	d503      	bpl.n	800077a <__aeabi_fdiv+0xae>
 8000772:	4b60      	ldr	r3, [pc, #384]	; (80008f4 <__aeabi_fdiv+0x228>)
 8000774:	401d      	ands	r5, r3
 8000776:	003b      	movs	r3, r7
 8000778:	3380      	adds	r3, #128	; 0x80
 800077a:	2bfe      	cmp	r3, #254	; 0xfe
 800077c:	dd00      	ble.n	8000780 <__aeabi_fdiv+0xb4>
 800077e:	e070      	b.n	8000862 <__aeabi_fdiv+0x196>
 8000780:	01ad      	lsls	r5, r5, #6
 8000782:	0a6d      	lsrs	r5, r5, #9
 8000784:	b2d8      	uxtb	r0, r3
 8000786:	e002      	b.n	800078e <__aeabi_fdiv+0xc2>
 8000788:	000e      	movs	r6, r1
 800078a:	2000      	movs	r0, #0
 800078c:	2500      	movs	r5, #0
 800078e:	05c0      	lsls	r0, r0, #23
 8000790:	4328      	orrs	r0, r5
 8000792:	07f6      	lsls	r6, r6, #31
 8000794:	4330      	orrs	r0, r6
 8000796:	bce0      	pop	{r5, r6, r7}
 8000798:	46ba      	mov	sl, r7
 800079a:	46b1      	mov	r9, r6
 800079c:	46a8      	mov	r8, r5
 800079e:	bdf0      	pop	{r4, r5, r6, r7, pc}
 80007a0:	4643      	mov	r3, r8
 80007a2:	2b00      	cmp	r3, #0
 80007a4:	d13f      	bne.n	8000826 <__aeabi_fdiv+0x15a>
 80007a6:	2202      	movs	r2, #2
 80007a8:	3fff      	subs	r7, #255	; 0xff
 80007aa:	e003      	b.n	80007b4 <__aeabi_fdiv+0xe8>
 80007ac:	4643      	mov	r3, r8
 80007ae:	2b00      	cmp	r3, #0
 80007b0:	d12d      	bne.n	800080e <__aeabi_fdiv+0x142>
 80007b2:	2201      	movs	r2, #1
 80007b4:	0031      	movs	r1, r6
 80007b6:	464b      	mov	r3, r9
 80007b8:	4061      	eors	r1, r4
 80007ba:	b2c9      	uxtb	r1, r1
 80007bc:	4313      	orrs	r3, r2
 80007be:	2b0f      	cmp	r3, #15
 80007c0:	d834      	bhi.n	800082c <__aeabi_fdiv+0x160>
 80007c2:	484d      	ldr	r0, [pc, #308]	; (80008f8 <__aeabi_fdiv+0x22c>)
 80007c4:	009b      	lsls	r3, r3, #2
 80007c6:	58c3      	ldr	r3, [r0, r3]
 80007c8:	469f      	mov	pc, r3
 80007ca:	2d00      	cmp	r5, #0
 80007cc:	d113      	bne.n	80007f6 <__aeabi_fdiv+0x12a>
 80007ce:	2304      	movs	r3, #4
 80007d0:	4699      	mov	r9, r3
 80007d2:	3b03      	subs	r3, #3
 80007d4:	2700      	movs	r7, #0
 80007d6:	469a      	mov	sl, r3
 80007d8:	e791      	b.n	80006fe <__aeabi_fdiv+0x32>
 80007da:	2d00      	cmp	r5, #0
 80007dc:	d105      	bne.n	80007ea <__aeabi_fdiv+0x11e>
 80007de:	2308      	movs	r3, #8
 80007e0:	4699      	mov	r9, r3
 80007e2:	3b06      	subs	r3, #6
 80007e4:	27ff      	movs	r7, #255	; 0xff
 80007e6:	469a      	mov	sl, r3
 80007e8:	e789      	b.n	80006fe <__aeabi_fdiv+0x32>
 80007ea:	230c      	movs	r3, #12
 80007ec:	4699      	mov	r9, r3
 80007ee:	3b09      	subs	r3, #9
 80007f0:	27ff      	movs	r7, #255	; 0xff
 80007f2:	469a      	mov	sl, r3
 80007f4:	e783      	b.n	80006fe <__aeabi_fdiv+0x32>
 80007f6:	0028      	movs	r0, r5
 80007f8:	f001 faaa 	bl	8001d50 <__clzsi2>
 80007fc:	2776      	movs	r7, #118	; 0x76
 80007fe:	1f43      	subs	r3, r0, #5
 8000800:	409d      	lsls	r5, r3
 8000802:	2300      	movs	r3, #0
 8000804:	427f      	negs	r7, r7
 8000806:	4699      	mov	r9, r3
 8000808:	469a      	mov	sl, r3
 800080a:	1a3f      	subs	r7, r7, r0
 800080c:	e777      	b.n	80006fe <__aeabi_fdiv+0x32>
 800080e:	4640      	mov	r0, r8
 8000810:	f001 fa9e 	bl	8001d50 <__clzsi2>
 8000814:	4642      	mov	r2, r8
 8000816:	1f43      	subs	r3, r0, #5
 8000818:	409a      	lsls	r2, r3
 800081a:	2376      	movs	r3, #118	; 0x76
 800081c:	425b      	negs	r3, r3
 800081e:	4690      	mov	r8, r2
 8000820:	1a1b      	subs	r3, r3, r0
 8000822:	2200      	movs	r2, #0
 8000824:	e77d      	b.n	8000722 <__aeabi_fdiv+0x56>
 8000826:	23ff      	movs	r3, #255	; 0xff
 8000828:	2203      	movs	r2, #3
 800082a:	e77a      	b.n	8000722 <__aeabi_fdiv+0x56>
 800082c:	000e      	movs	r6, r1
 800082e:	20ff      	movs	r0, #255	; 0xff
 8000830:	2500      	movs	r5, #0
 8000832:	e7ac      	b.n	800078e <__aeabi_fdiv+0xc2>
 8000834:	2001      	movs	r0, #1
 8000836:	1ac0      	subs	r0, r0, r3
 8000838:	281b      	cmp	r0, #27
 800083a:	dca6      	bgt.n	800078a <__aeabi_fdiv+0xbe>
 800083c:	379e      	adds	r7, #158	; 0x9e
 800083e:	002a      	movs	r2, r5
 8000840:	40bd      	lsls	r5, r7
 8000842:	40c2      	lsrs	r2, r0
 8000844:	1e6b      	subs	r3, r5, #1
 8000846:	419d      	sbcs	r5, r3
 8000848:	4315      	orrs	r5, r2
 800084a:	076b      	lsls	r3, r5, #29
 800084c:	d004      	beq.n	8000858 <__aeabi_fdiv+0x18c>
 800084e:	230f      	movs	r3, #15
 8000850:	402b      	ands	r3, r5
 8000852:	2b04      	cmp	r3, #4
 8000854:	d000      	beq.n	8000858 <__aeabi_fdiv+0x18c>
 8000856:	3504      	adds	r5, #4
 8000858:	016b      	lsls	r3, r5, #5
 800085a:	d544      	bpl.n	80008e6 <__aeabi_fdiv+0x21a>
 800085c:	2001      	movs	r0, #1
 800085e:	2500      	movs	r5, #0
 8000860:	e795      	b.n	800078e <__aeabi_fdiv+0xc2>
 8000862:	20ff      	movs	r0, #255	; 0xff
 8000864:	2500      	movs	r5, #0
 8000866:	e792      	b.n	800078e <__aeabi_fdiv+0xc2>
 8000868:	2580      	movs	r5, #128	; 0x80
 800086a:	2600      	movs	r6, #0
 800086c:	20ff      	movs	r0, #255	; 0xff
 800086e:	03ed      	lsls	r5, r5, #15
 8000870:	e78d      	b.n	800078e <__aeabi_fdiv+0xc2>
 8000872:	2300      	movs	r3, #0
 8000874:	4698      	mov	r8, r3
 8000876:	2080      	movs	r0, #128	; 0x80
 8000878:	03c0      	lsls	r0, r0, #15
 800087a:	4205      	tst	r5, r0
 800087c:	d009      	beq.n	8000892 <__aeabi_fdiv+0x1c6>
 800087e:	4643      	mov	r3, r8
 8000880:	4203      	tst	r3, r0
 8000882:	d106      	bne.n	8000892 <__aeabi_fdiv+0x1c6>
 8000884:	4645      	mov	r5, r8
 8000886:	4305      	orrs	r5, r0
 8000888:	026d      	lsls	r5, r5, #9
 800088a:	0026      	movs	r6, r4
 800088c:	20ff      	movs	r0, #255	; 0xff
 800088e:	0a6d      	lsrs	r5, r5, #9
 8000890:	e77d      	b.n	800078e <__aeabi_fdiv+0xc2>
 8000892:	2080      	movs	r0, #128	; 0x80
 8000894:	03c0      	lsls	r0, r0, #15
 8000896:	4305      	orrs	r5, r0
 8000898:	026d      	lsls	r5, r5, #9
 800089a:	20ff      	movs	r0, #255	; 0xff
 800089c:	0a6d      	lsrs	r5, r5, #9
 800089e:	e776      	b.n	800078e <__aeabi_fdiv+0xc2>
 80008a0:	4642      	mov	r2, r8
 80008a2:	016b      	lsls	r3, r5, #5
 80008a4:	0150      	lsls	r0, r2, #5
 80008a6:	4283      	cmp	r3, r0
 80008a8:	d219      	bcs.n	80008de <__aeabi_fdiv+0x212>
 80008aa:	221b      	movs	r2, #27
 80008ac:	2500      	movs	r5, #0
 80008ae:	3f01      	subs	r7, #1
 80008b0:	2601      	movs	r6, #1
 80008b2:	001c      	movs	r4, r3
 80008b4:	006d      	lsls	r5, r5, #1
 80008b6:	005b      	lsls	r3, r3, #1
 80008b8:	2c00      	cmp	r4, #0
 80008ba:	db01      	blt.n	80008c0 <__aeabi_fdiv+0x1f4>
 80008bc:	4298      	cmp	r0, r3
 80008be:	d801      	bhi.n	80008c4 <__aeabi_fdiv+0x1f8>
 80008c0:	1a1b      	subs	r3, r3, r0
 80008c2:	4335      	orrs	r5, r6
 80008c4:	3a01      	subs	r2, #1
 80008c6:	2a00      	cmp	r2, #0
 80008c8:	d1f3      	bne.n	80008b2 <__aeabi_fdiv+0x1e6>
 80008ca:	1e5a      	subs	r2, r3, #1
 80008cc:	4193      	sbcs	r3, r2
 80008ce:	431d      	orrs	r5, r3
 80008d0:	003b      	movs	r3, r7
 80008d2:	337f      	adds	r3, #127	; 0x7f
 80008d4:	000e      	movs	r6, r1
 80008d6:	2b00      	cmp	r3, #0
 80008d8:	dd00      	ble.n	80008dc <__aeabi_fdiv+0x210>
 80008da:	e741      	b.n	8000760 <__aeabi_fdiv+0x94>
 80008dc:	e7aa      	b.n	8000834 <__aeabi_fdiv+0x168>
 80008de:	221a      	movs	r2, #26
 80008e0:	2501      	movs	r5, #1
 80008e2:	1a1b      	subs	r3, r3, r0
 80008e4:	e7e4      	b.n	80008b0 <__aeabi_fdiv+0x1e4>
 80008e6:	01ad      	lsls	r5, r5, #6
 80008e8:	2000      	movs	r0, #0
 80008ea:	0a6d      	lsrs	r5, r5, #9
 80008ec:	e74f      	b.n	800078e <__aeabi_fdiv+0xc2>
 80008ee:	46c0      	nop			; (mov r8, r8)
 80008f0:	08005d94 	.word	0x08005d94
 80008f4:	f7ffffff 	.word	0xf7ffffff
 80008f8:	08005dd4 	.word	0x08005dd4

080008fc <__aeabi_fmul>:
 80008fc:	b5f0      	push	{r4, r5, r6, r7, lr}
 80008fe:	464f      	mov	r7, r9
 8000900:	4646      	mov	r6, r8
 8000902:	46d6      	mov	lr, sl
 8000904:	0244      	lsls	r4, r0, #9
 8000906:	0045      	lsls	r5, r0, #1
 8000908:	b5c0      	push	{r6, r7, lr}
 800090a:	0a64      	lsrs	r4, r4, #9
 800090c:	1c0f      	adds	r7, r1, #0
 800090e:	0e2d      	lsrs	r5, r5, #24
 8000910:	0fc6      	lsrs	r6, r0, #31
 8000912:	2d00      	cmp	r5, #0
 8000914:	d100      	bne.n	8000918 <__aeabi_fmul+0x1c>
 8000916:	e08d      	b.n	8000a34 <__aeabi_fmul+0x138>
 8000918:	2dff      	cmp	r5, #255	; 0xff
 800091a:	d100      	bne.n	800091e <__aeabi_fmul+0x22>
 800091c:	e092      	b.n	8000a44 <__aeabi_fmul+0x148>
 800091e:	2300      	movs	r3, #0
 8000920:	2080      	movs	r0, #128	; 0x80
 8000922:	4699      	mov	r9, r3
 8000924:	469a      	mov	sl, r3
 8000926:	00e4      	lsls	r4, r4, #3
 8000928:	04c0      	lsls	r0, r0, #19
 800092a:	4304      	orrs	r4, r0
 800092c:	3d7f      	subs	r5, #127	; 0x7f
 800092e:	0278      	lsls	r0, r7, #9
 8000930:	0a43      	lsrs	r3, r0, #9
 8000932:	4698      	mov	r8, r3
 8000934:	007b      	lsls	r3, r7, #1
 8000936:	0e1b      	lsrs	r3, r3, #24
 8000938:	0fff      	lsrs	r7, r7, #31
 800093a:	2b00      	cmp	r3, #0
 800093c:	d100      	bne.n	8000940 <__aeabi_fmul+0x44>
 800093e:	e070      	b.n	8000a22 <__aeabi_fmul+0x126>
 8000940:	2bff      	cmp	r3, #255	; 0xff
 8000942:	d100      	bne.n	8000946 <__aeabi_fmul+0x4a>
 8000944:	e086      	b.n	8000a54 <__aeabi_fmul+0x158>
 8000946:	4642      	mov	r2, r8
 8000948:	00d0      	lsls	r0, r2, #3
 800094a:	2280      	movs	r2, #128	; 0x80
 800094c:	3b7f      	subs	r3, #127	; 0x7f
 800094e:	18ed      	adds	r5, r5, r3
 8000950:	2300      	movs	r3, #0
 8000952:	04d2      	lsls	r2, r2, #19
 8000954:	4302      	orrs	r2, r0
 8000956:	4690      	mov	r8, r2
 8000958:	469c      	mov	ip, r3
 800095a:	0031      	movs	r1, r6
 800095c:	464b      	mov	r3, r9
 800095e:	4079      	eors	r1, r7
 8000960:	1c68      	adds	r0, r5, #1
 8000962:	2b0f      	cmp	r3, #15
 8000964:	d81c      	bhi.n	80009a0 <__aeabi_fmul+0xa4>
 8000966:	4a76      	ldr	r2, [pc, #472]	; (8000b40 <__aeabi_fmul+0x244>)
 8000968:	009b      	lsls	r3, r3, #2
 800096a:	58d3      	ldr	r3, [r2, r3]
 800096c:	469f      	mov	pc, r3
 800096e:	0039      	movs	r1, r7
 8000970:	4644      	mov	r4, r8
 8000972:	46e2      	mov	sl, ip
 8000974:	4653      	mov	r3, sl
 8000976:	2b02      	cmp	r3, #2
 8000978:	d00f      	beq.n	800099a <__aeabi_fmul+0x9e>
 800097a:	2b03      	cmp	r3, #3
 800097c:	d100      	bne.n	8000980 <__aeabi_fmul+0x84>
 800097e:	e0d7      	b.n	8000b30 <__aeabi_fmul+0x234>
 8000980:	2b01      	cmp	r3, #1
 8000982:	d137      	bne.n	80009f4 <__aeabi_fmul+0xf8>
 8000984:	2000      	movs	r0, #0
 8000986:	2400      	movs	r4, #0
 8000988:	05c0      	lsls	r0, r0, #23
 800098a:	4320      	orrs	r0, r4
 800098c:	07c9      	lsls	r1, r1, #31
 800098e:	4308      	orrs	r0, r1
 8000990:	bce0      	pop	{r5, r6, r7}
 8000992:	46ba      	mov	sl, r7
 8000994:	46b1      	mov	r9, r6
 8000996:	46a8      	mov	r8, r5
 8000998:	bdf0      	pop	{r4, r5, r6, r7, pc}
 800099a:	20ff      	movs	r0, #255	; 0xff
 800099c:	2400      	movs	r4, #0
 800099e:	e7f3      	b.n	8000988 <__aeabi_fmul+0x8c>
 80009a0:	0c26      	lsrs	r6, r4, #16
 80009a2:	0424      	lsls	r4, r4, #16
 80009a4:	0c22      	lsrs	r2, r4, #16
 80009a6:	4644      	mov	r4, r8
 80009a8:	0424      	lsls	r4, r4, #16
 80009aa:	0c24      	lsrs	r4, r4, #16
 80009ac:	4643      	mov	r3, r8
 80009ae:	0027      	movs	r7, r4
 80009b0:	0c1b      	lsrs	r3, r3, #16
 80009b2:	4357      	muls	r7, r2
 80009b4:	4374      	muls	r4, r6
 80009b6:	435a      	muls	r2, r3
 80009b8:	435e      	muls	r6, r3
 80009ba:	1912      	adds	r2, r2, r4
 80009bc:	0c3b      	lsrs	r3, r7, #16
 80009be:	189b      	adds	r3, r3, r2
 80009c0:	429c      	cmp	r4, r3
 80009c2:	d903      	bls.n	80009cc <__aeabi_fmul+0xd0>
 80009c4:	2280      	movs	r2, #128	; 0x80
 80009c6:	0252      	lsls	r2, r2, #9
 80009c8:	4694      	mov	ip, r2
 80009ca:	4466      	add	r6, ip
 80009cc:	043f      	lsls	r7, r7, #16
 80009ce:	041a      	lsls	r2, r3, #16
 80009d0:	0c3f      	lsrs	r7, r7, #16
 80009d2:	19d2      	adds	r2, r2, r7
 80009d4:	0194      	lsls	r4, r2, #6
 80009d6:	1e67      	subs	r7, r4, #1
 80009d8:	41bc      	sbcs	r4, r7
 80009da:	0c1b      	lsrs	r3, r3, #16
 80009dc:	0e92      	lsrs	r2, r2, #26
 80009de:	199b      	adds	r3, r3, r6
 80009e0:	4314      	orrs	r4, r2
 80009e2:	019b      	lsls	r3, r3, #6
 80009e4:	431c      	orrs	r4, r3
 80009e6:	011b      	lsls	r3, r3, #4
 80009e8:	d400      	bmi.n	80009ec <__aeabi_fmul+0xf0>
 80009ea:	e09b      	b.n	8000b24 <__aeabi_fmul+0x228>
 80009ec:	2301      	movs	r3, #1
 80009ee:	0862      	lsrs	r2, r4, #1
 80009f0:	401c      	ands	r4, r3
 80009f2:	4314      	orrs	r4, r2
 80009f4:	0002      	movs	r2, r0
 80009f6:	327f      	adds	r2, #127	; 0x7f
 80009f8:	2a00      	cmp	r2, #0
 80009fa:	dd64      	ble.n	8000ac6 <__aeabi_fmul+0x1ca>
 80009fc:	0763      	lsls	r3, r4, #29
 80009fe:	d004      	beq.n	8000a0a <__aeabi_fmul+0x10e>
 8000a00:	230f      	movs	r3, #15
 8000a02:	4023      	ands	r3, r4
 8000a04:	2b04      	cmp	r3, #4
 8000a06:	d000      	beq.n	8000a0a <__aeabi_fmul+0x10e>
 8000a08:	3404      	adds	r4, #4
 8000a0a:	0123      	lsls	r3, r4, #4
 8000a0c:	d503      	bpl.n	8000a16 <__aeabi_fmul+0x11a>
 8000a0e:	0002      	movs	r2, r0
 8000a10:	4b4c      	ldr	r3, [pc, #304]	; (8000b44 <__aeabi_fmul+0x248>)
 8000a12:	3280      	adds	r2, #128	; 0x80
 8000a14:	401c      	ands	r4, r3
 8000a16:	2afe      	cmp	r2, #254	; 0xfe
 8000a18:	dcbf      	bgt.n	800099a <__aeabi_fmul+0x9e>
 8000a1a:	01a4      	lsls	r4, r4, #6
 8000a1c:	0a64      	lsrs	r4, r4, #9
 8000a1e:	b2d0      	uxtb	r0, r2
 8000a20:	e7b2      	b.n	8000988 <__aeabi_fmul+0x8c>
 8000a22:	4643      	mov	r3, r8
 8000a24:	2b00      	cmp	r3, #0
 8000a26:	d13d      	bne.n	8000aa4 <__aeabi_fmul+0x1a8>
 8000a28:	464a      	mov	r2, r9
 8000a2a:	3301      	adds	r3, #1
 8000a2c:	431a      	orrs	r2, r3
 8000a2e:	4691      	mov	r9, r2
 8000a30:	469c      	mov	ip, r3
 8000a32:	e792      	b.n	800095a <__aeabi_fmul+0x5e>
 8000a34:	2c00      	cmp	r4, #0
 8000a36:	d129      	bne.n	8000a8c <__aeabi_fmul+0x190>
 8000a38:	2304      	movs	r3, #4
 8000a3a:	4699      	mov	r9, r3
 8000a3c:	3b03      	subs	r3, #3
 8000a3e:	2500      	movs	r5, #0
 8000a40:	469a      	mov	sl, r3
 8000a42:	e774      	b.n	800092e <__aeabi_fmul+0x32>
 8000a44:	2c00      	cmp	r4, #0
 8000a46:	d11b      	bne.n	8000a80 <__aeabi_fmul+0x184>
 8000a48:	2308      	movs	r3, #8
 8000a4a:	4699      	mov	r9, r3
 8000a4c:	3b06      	subs	r3, #6
 8000a4e:	25ff      	movs	r5, #255	; 0xff
 8000a50:	469a      	mov	sl, r3
 8000a52:	e76c      	b.n	800092e <__aeabi_fmul+0x32>
 8000a54:	4643      	mov	r3, r8
 8000a56:	35ff      	adds	r5, #255	; 0xff
 8000a58:	2b00      	cmp	r3, #0
 8000a5a:	d10b      	bne.n	8000a74 <__aeabi_fmul+0x178>
 8000a5c:	2302      	movs	r3, #2
 8000a5e:	464a      	mov	r2, r9
 8000a60:	431a      	orrs	r2, r3
 8000a62:	4691      	mov	r9, r2
 8000a64:	469c      	mov	ip, r3
 8000a66:	e778      	b.n	800095a <__aeabi_fmul+0x5e>
 8000a68:	4653      	mov	r3, sl
 8000a6a:	0031      	movs	r1, r6
 8000a6c:	2b02      	cmp	r3, #2
 8000a6e:	d000      	beq.n	8000a72 <__aeabi_fmul+0x176>
 8000a70:	e783      	b.n	800097a <__aeabi_fmul+0x7e>
 8000a72:	e792      	b.n	800099a <__aeabi_fmul+0x9e>
 8000a74:	2303      	movs	r3, #3
 8000a76:	464a      	mov	r2, r9
 8000a78:	431a      	orrs	r2, r3
 8000a7a:	4691      	mov	r9, r2
 8000a7c:	469c      	mov	ip, r3
 8000a7e:	e76c      	b.n	800095a <__aeabi_fmul+0x5e>
 8000a80:	230c      	movs	r3, #12
 8000a82:	4699      	mov	r9, r3
 8000a84:	3b09      	subs	r3, #9
 8000a86:	25ff      	movs	r5, #255	; 0xff
 8000a88:	469a      	mov	sl, r3
 8000a8a:	e750      	b.n	800092e <__aeabi_fmul+0x32>
 8000a8c:	0020      	movs	r0, r4
 8000a8e:	f001 f95f 	bl	8001d50 <__clzsi2>
 8000a92:	2576      	movs	r5, #118	; 0x76
 8000a94:	1f43      	subs	r3, r0, #5
 8000a96:	409c      	lsls	r4, r3
 8000a98:	2300      	movs	r3, #0
 8000a9a:	426d      	negs	r5, r5
 8000a9c:	4699      	mov	r9, r3
 8000a9e:	469a      	mov	sl, r3
 8000aa0:	1a2d      	subs	r5, r5, r0
 8000aa2:	e744      	b.n	800092e <__aeabi_fmul+0x32>
 8000aa4:	4640      	mov	r0, r8
 8000aa6:	f001 f953 	bl	8001d50 <__clzsi2>
 8000aaa:	4642      	mov	r2, r8
 8000aac:	1f43      	subs	r3, r0, #5
 8000aae:	409a      	lsls	r2, r3
 8000ab0:	2300      	movs	r3, #0
 8000ab2:	1a2d      	subs	r5, r5, r0
 8000ab4:	4690      	mov	r8, r2
 8000ab6:	469c      	mov	ip, r3
 8000ab8:	3d76      	subs	r5, #118	; 0x76
 8000aba:	e74e      	b.n	800095a <__aeabi_fmul+0x5e>
 8000abc:	2480      	movs	r4, #128	; 0x80
 8000abe:	2100      	movs	r1, #0
 8000ac0:	20ff      	movs	r0, #255	; 0xff
 8000ac2:	03e4      	lsls	r4, r4, #15
 8000ac4:	e760      	b.n	8000988 <__aeabi_fmul+0x8c>
 8000ac6:	2301      	movs	r3, #1
 8000ac8:	1a9b      	subs	r3, r3, r2
 8000aca:	2b1b      	cmp	r3, #27
 8000acc:	dd00      	ble.n	8000ad0 <__aeabi_fmul+0x1d4>
 8000ace:	e759      	b.n	8000984 <__aeabi_fmul+0x88>
 8000ad0:	0022      	movs	r2, r4
 8000ad2:	309e      	adds	r0, #158	; 0x9e
 8000ad4:	40da      	lsrs	r2, r3
 8000ad6:	4084      	lsls	r4, r0
 8000ad8:	0013      	movs	r3, r2
 8000ada:	1e62      	subs	r2, r4, #1
 8000adc:	4194      	sbcs	r4, r2
 8000ade:	431c      	orrs	r4, r3
 8000ae0:	0763      	lsls	r3, r4, #29
 8000ae2:	d004      	beq.n	8000aee <__aeabi_fmul+0x1f2>
 8000ae4:	230f      	movs	r3, #15
 8000ae6:	4023      	ands	r3, r4
 8000ae8:	2b04      	cmp	r3, #4
 8000aea:	d000      	beq.n	8000aee <__aeabi_fmul+0x1f2>
 8000aec:	3404      	adds	r4, #4
 8000aee:	0163      	lsls	r3, r4, #5
 8000af0:	d51a      	bpl.n	8000b28 <__aeabi_fmul+0x22c>
 8000af2:	2001      	movs	r0, #1
 8000af4:	2400      	movs	r4, #0
 8000af6:	e747      	b.n	8000988 <__aeabi_fmul+0x8c>
 8000af8:	2080      	movs	r0, #128	; 0x80
 8000afa:	03c0      	lsls	r0, r0, #15
 8000afc:	4204      	tst	r4, r0
 8000afe:	d009      	beq.n	8000b14 <__aeabi_fmul+0x218>
 8000b00:	4643      	mov	r3, r8
 8000b02:	4203      	tst	r3, r0
 8000b04:	d106      	bne.n	8000b14 <__aeabi_fmul+0x218>
 8000b06:	4644      	mov	r4, r8
 8000b08:	4304      	orrs	r4, r0
 8000b0a:	0264      	lsls	r4, r4, #9
 8000b0c:	0039      	movs	r1, r7
 8000b0e:	20ff      	movs	r0, #255	; 0xff
 8000b10:	0a64      	lsrs	r4, r4, #9
 8000b12:	e739      	b.n	8000988 <__aeabi_fmul+0x8c>
 8000b14:	2080      	movs	r0, #128	; 0x80
 8000b16:	03c0      	lsls	r0, r0, #15
 8000b18:	4304      	orrs	r4, r0
 8000b1a:	0264      	lsls	r4, r4, #9
 8000b1c:	0031      	movs	r1, r6
 8000b1e:	20ff      	movs	r0, #255	; 0xff
 8000b20:	0a64      	lsrs	r4, r4, #9
 8000b22:	e731      	b.n	8000988 <__aeabi_fmul+0x8c>
 8000b24:	0028      	movs	r0, r5
 8000b26:	e765      	b.n	80009f4 <__aeabi_fmul+0xf8>
 8000b28:	01a4      	lsls	r4, r4, #6
 8000b2a:	2000      	movs	r0, #0
 8000b2c:	0a64      	lsrs	r4, r4, #9
 8000b2e:	e72b      	b.n	8000988 <__aeabi_fmul+0x8c>
 8000b30:	2080      	movs	r0, #128	; 0x80
 8000b32:	03c0      	lsls	r0, r0, #15
 8000b34:	4304      	orrs	r4, r0
 8000b36:	0264      	lsls	r4, r4, #9
 8000b38:	20ff      	movs	r0, #255	; 0xff
 8000b3a:	0a64      	lsrs	r4, r4, #9
 8000b3c:	e724      	b.n	8000988 <__aeabi_fmul+0x8c>
 8000b3e:	46c0      	nop			; (mov r8, r8)
 8000b40:	08005e14 	.word	0x08005e14
 8000b44:	f7ffffff 	.word	0xf7ffffff

08000b48 <__aeabi_fsub>:
 8000b48:	b5f8      	push	{r3, r4, r5, r6, r7, lr}
 8000b4a:	46ce      	mov	lr, r9
 8000b4c:	4647      	mov	r7, r8
 8000b4e:	0243      	lsls	r3, r0, #9
 8000b50:	0a5b      	lsrs	r3, r3, #9
 8000b52:	024e      	lsls	r6, r1, #9
 8000b54:	00da      	lsls	r2, r3, #3
 8000b56:	4694      	mov	ip, r2
 8000b58:	0a72      	lsrs	r2, r6, #9
 8000b5a:	4691      	mov	r9, r2
 8000b5c:	0045      	lsls	r5, r0, #1
 8000b5e:	004a      	lsls	r2, r1, #1
 8000b60:	b580      	push	{r7, lr}
 8000b62:	0e2d      	lsrs	r5, r5, #24
 8000b64:	001f      	movs	r7, r3
 8000b66:	0fc4      	lsrs	r4, r0, #31
 8000b68:	0e12      	lsrs	r2, r2, #24
 8000b6a:	0fc9      	lsrs	r1, r1, #31
 8000b6c:	09b6      	lsrs	r6, r6, #6
 8000b6e:	2aff      	cmp	r2, #255	; 0xff
 8000b70:	d05b      	beq.n	8000c2a <__aeabi_fsub+0xe2>
 8000b72:	2001      	movs	r0, #1
 8000b74:	4041      	eors	r1, r0
 8000b76:	428c      	cmp	r4, r1
 8000b78:	d039      	beq.n	8000bee <__aeabi_fsub+0xa6>
 8000b7a:	1aa8      	subs	r0, r5, r2
 8000b7c:	2800      	cmp	r0, #0
 8000b7e:	dd5a      	ble.n	8000c36 <__aeabi_fsub+0xee>
 8000b80:	2a00      	cmp	r2, #0
 8000b82:	d06a      	beq.n	8000c5a <__aeabi_fsub+0x112>
 8000b84:	2dff      	cmp	r5, #255	; 0xff
 8000b86:	d100      	bne.n	8000b8a <__aeabi_fsub+0x42>
 8000b88:	e0d9      	b.n	8000d3e <__aeabi_fsub+0x1f6>
 8000b8a:	2280      	movs	r2, #128	; 0x80
 8000b8c:	04d2      	lsls	r2, r2, #19
 8000b8e:	4316      	orrs	r6, r2
 8000b90:	281b      	cmp	r0, #27
 8000b92:	dc00      	bgt.n	8000b96 <__aeabi_fsub+0x4e>
 8000b94:	e0e9      	b.n	8000d6a <__aeabi_fsub+0x222>
 8000b96:	2001      	movs	r0, #1
 8000b98:	4663      	mov	r3, ip
 8000b9a:	1a18      	subs	r0, r3, r0
 8000b9c:	0143      	lsls	r3, r0, #5
 8000b9e:	d400      	bmi.n	8000ba2 <__aeabi_fsub+0x5a>
 8000ba0:	e0b4      	b.n	8000d0c <__aeabi_fsub+0x1c4>
 8000ba2:	0180      	lsls	r0, r0, #6
 8000ba4:	0987      	lsrs	r7, r0, #6
 8000ba6:	0038      	movs	r0, r7
 8000ba8:	f001 f8d2 	bl	8001d50 <__clzsi2>
 8000bac:	3805      	subs	r0, #5
 8000bae:	4087      	lsls	r7, r0
 8000bb0:	4285      	cmp	r5, r0
 8000bb2:	dc00      	bgt.n	8000bb6 <__aeabi_fsub+0x6e>
 8000bb4:	e0cc      	b.n	8000d50 <__aeabi_fsub+0x208>
 8000bb6:	1a2d      	subs	r5, r5, r0
 8000bb8:	48b5      	ldr	r0, [pc, #724]	; (8000e90 <__aeabi_fsub+0x348>)
 8000bba:	4038      	ands	r0, r7
 8000bbc:	0743      	lsls	r3, r0, #29
 8000bbe:	d004      	beq.n	8000bca <__aeabi_fsub+0x82>
 8000bc0:	230f      	movs	r3, #15
 8000bc2:	4003      	ands	r3, r0
 8000bc4:	2b04      	cmp	r3, #4
 8000bc6:	d000      	beq.n	8000bca <__aeabi_fsub+0x82>
 8000bc8:	3004      	adds	r0, #4
 8000bca:	0143      	lsls	r3, r0, #5
 8000bcc:	d400      	bmi.n	8000bd0 <__aeabi_fsub+0x88>
 8000bce:	e0a0      	b.n	8000d12 <__aeabi_fsub+0x1ca>
 8000bd0:	1c6a      	adds	r2, r5, #1
 8000bd2:	2dfe      	cmp	r5, #254	; 0xfe
 8000bd4:	d100      	bne.n	8000bd8 <__aeabi_fsub+0x90>
 8000bd6:	e08d      	b.n	8000cf4 <__aeabi_fsub+0x1ac>
 8000bd8:	0180      	lsls	r0, r0, #6
 8000bda:	0a47      	lsrs	r7, r0, #9
 8000bdc:	b2d2      	uxtb	r2, r2
 8000bde:	05d0      	lsls	r0, r2, #23
 8000be0:	4338      	orrs	r0, r7
 8000be2:	07e4      	lsls	r4, r4, #31
 8000be4:	4320      	orrs	r0, r4
 8000be6:	bcc0      	pop	{r6, r7}
 8000be8:	46b9      	mov	r9, r7
 8000bea:	46b0      	mov	r8, r6
 8000bec:	bdf8      	pop	{r3, r4, r5, r6, r7, pc}
 8000bee:	1aa8      	subs	r0, r5, r2
 8000bf0:	4680      	mov	r8, r0
 8000bf2:	2800      	cmp	r0, #0
 8000bf4:	dd45      	ble.n	8000c82 <__aeabi_fsub+0x13a>
 8000bf6:	2a00      	cmp	r2, #0
 8000bf8:	d070      	beq.n	8000cdc <__aeabi_fsub+0x194>
 8000bfa:	2dff      	cmp	r5, #255	; 0xff
 8000bfc:	d100      	bne.n	8000c00 <__aeabi_fsub+0xb8>
 8000bfe:	e09e      	b.n	8000d3e <__aeabi_fsub+0x1f6>
 8000c00:	2380      	movs	r3, #128	; 0x80
 8000c02:	04db      	lsls	r3, r3, #19
 8000c04:	431e      	orrs	r6, r3
 8000c06:	4643      	mov	r3, r8
 8000c08:	2b1b      	cmp	r3, #27
 8000c0a:	dc00      	bgt.n	8000c0e <__aeabi_fsub+0xc6>
 8000c0c:	e0d2      	b.n	8000db4 <__aeabi_fsub+0x26c>
 8000c0e:	2001      	movs	r0, #1
 8000c10:	4460      	add	r0, ip
 8000c12:	0143      	lsls	r3, r0, #5
 8000c14:	d57a      	bpl.n	8000d0c <__aeabi_fsub+0x1c4>
 8000c16:	3501      	adds	r5, #1
 8000c18:	2dff      	cmp	r5, #255	; 0xff
 8000c1a:	d06b      	beq.n	8000cf4 <__aeabi_fsub+0x1ac>
 8000c1c:	2301      	movs	r3, #1
 8000c1e:	4a9d      	ldr	r2, [pc, #628]	; (8000e94 <__aeabi_fsub+0x34c>)
 8000c20:	4003      	ands	r3, r0
 8000c22:	0840      	lsrs	r0, r0, #1
 8000c24:	4010      	ands	r0, r2
 8000c26:	4318      	orrs	r0, r3
 8000c28:	e7c8      	b.n	8000bbc <__aeabi_fsub+0x74>
 8000c2a:	2e00      	cmp	r6, #0
 8000c2c:	d020      	beq.n	8000c70 <__aeabi_fsub+0x128>
 8000c2e:	428c      	cmp	r4, r1
 8000c30:	d023      	beq.n	8000c7a <__aeabi_fsub+0x132>
 8000c32:	0028      	movs	r0, r5
 8000c34:	38ff      	subs	r0, #255	; 0xff
 8000c36:	2800      	cmp	r0, #0
 8000c38:	d039      	beq.n	8000cae <__aeabi_fsub+0x166>
 8000c3a:	1b57      	subs	r7, r2, r5
 8000c3c:	2d00      	cmp	r5, #0
 8000c3e:	d000      	beq.n	8000c42 <__aeabi_fsub+0xfa>
 8000c40:	e09d      	b.n	8000d7e <__aeabi_fsub+0x236>
 8000c42:	4663      	mov	r3, ip
 8000c44:	2b00      	cmp	r3, #0
 8000c46:	d100      	bne.n	8000c4a <__aeabi_fsub+0x102>
 8000c48:	e0db      	b.n	8000e02 <__aeabi_fsub+0x2ba>
 8000c4a:	1e7b      	subs	r3, r7, #1
 8000c4c:	2f01      	cmp	r7, #1
 8000c4e:	d100      	bne.n	8000c52 <__aeabi_fsub+0x10a>
 8000c50:	e10d      	b.n	8000e6e <__aeabi_fsub+0x326>
 8000c52:	2fff      	cmp	r7, #255	; 0xff
 8000c54:	d071      	beq.n	8000d3a <__aeabi_fsub+0x1f2>
 8000c56:	001f      	movs	r7, r3
 8000c58:	e098      	b.n	8000d8c <__aeabi_fsub+0x244>
 8000c5a:	2e00      	cmp	r6, #0
 8000c5c:	d100      	bne.n	8000c60 <__aeabi_fsub+0x118>
 8000c5e:	e0a7      	b.n	8000db0 <__aeabi_fsub+0x268>
 8000c60:	1e42      	subs	r2, r0, #1
 8000c62:	2801      	cmp	r0, #1
 8000c64:	d100      	bne.n	8000c68 <__aeabi_fsub+0x120>
 8000c66:	e0e6      	b.n	8000e36 <__aeabi_fsub+0x2ee>
 8000c68:	28ff      	cmp	r0, #255	; 0xff
 8000c6a:	d068      	beq.n	8000d3e <__aeabi_fsub+0x1f6>
 8000c6c:	0010      	movs	r0, r2
 8000c6e:	e78f      	b.n	8000b90 <__aeabi_fsub+0x48>
 8000c70:	2001      	movs	r0, #1
 8000c72:	4041      	eors	r1, r0
 8000c74:	42a1      	cmp	r1, r4
 8000c76:	d000      	beq.n	8000c7a <__aeabi_fsub+0x132>
 8000c78:	e77f      	b.n	8000b7a <__aeabi_fsub+0x32>
 8000c7a:	20ff      	movs	r0, #255	; 0xff
 8000c7c:	4240      	negs	r0, r0
 8000c7e:	4680      	mov	r8, r0
 8000c80:	44a8      	add	r8, r5
 8000c82:	4640      	mov	r0, r8
 8000c84:	2800      	cmp	r0, #0
 8000c86:	d038      	beq.n	8000cfa <__aeabi_fsub+0x1b2>
 8000c88:	1b51      	subs	r1, r2, r5
 8000c8a:	2d00      	cmp	r5, #0
 8000c8c:	d100      	bne.n	8000c90 <__aeabi_fsub+0x148>
 8000c8e:	e0ae      	b.n	8000dee <__aeabi_fsub+0x2a6>
 8000c90:	2aff      	cmp	r2, #255	; 0xff
 8000c92:	d100      	bne.n	8000c96 <__aeabi_fsub+0x14e>
 8000c94:	e0df      	b.n	8000e56 <__aeabi_fsub+0x30e>
 8000c96:	2380      	movs	r3, #128	; 0x80
 8000c98:	4660      	mov	r0, ip
 8000c9a:	04db      	lsls	r3, r3, #19
 8000c9c:	4318      	orrs	r0, r3
 8000c9e:	4684      	mov	ip, r0
 8000ca0:	291b      	cmp	r1, #27
 8000ca2:	dc00      	bgt.n	8000ca6 <__aeabi_fsub+0x15e>
 8000ca4:	e0d9      	b.n	8000e5a <__aeabi_fsub+0x312>
 8000ca6:	2001      	movs	r0, #1
 8000ca8:	0015      	movs	r5, r2
 8000caa:	1980      	adds	r0, r0, r6
 8000cac:	e7b1      	b.n	8000c12 <__aeabi_fsub+0xca>
 8000cae:	20fe      	movs	r0, #254	; 0xfe
 8000cb0:	1c6a      	adds	r2, r5, #1
 8000cb2:	4210      	tst	r0, r2
 8000cb4:	d171      	bne.n	8000d9a <__aeabi_fsub+0x252>
 8000cb6:	2d00      	cmp	r5, #0
 8000cb8:	d000      	beq.n	8000cbc <__aeabi_fsub+0x174>
 8000cba:	e0a6      	b.n	8000e0a <__aeabi_fsub+0x2c2>
 8000cbc:	4663      	mov	r3, ip
 8000cbe:	2b00      	cmp	r3, #0
 8000cc0:	d100      	bne.n	8000cc4 <__aeabi_fsub+0x17c>
 8000cc2:	e0d9      	b.n	8000e78 <__aeabi_fsub+0x330>
 8000cc4:	2200      	movs	r2, #0
 8000cc6:	2e00      	cmp	r6, #0
 8000cc8:	d100      	bne.n	8000ccc <__aeabi_fsub+0x184>
 8000cca:	e788      	b.n	8000bde <__aeabi_fsub+0x96>
 8000ccc:	1b98      	subs	r0, r3, r6
 8000cce:	0143      	lsls	r3, r0, #5
 8000cd0:	d400      	bmi.n	8000cd4 <__aeabi_fsub+0x18c>
 8000cd2:	e0e1      	b.n	8000e98 <__aeabi_fsub+0x350>
 8000cd4:	4663      	mov	r3, ip
 8000cd6:	000c      	movs	r4, r1
 8000cd8:	1af0      	subs	r0, r6, r3
 8000cda:	e76f      	b.n	8000bbc <__aeabi_fsub+0x74>
 8000cdc:	2e00      	cmp	r6, #0
 8000cde:	d100      	bne.n	8000ce2 <__aeabi_fsub+0x19a>
 8000ce0:	e0b7      	b.n	8000e52 <__aeabi_fsub+0x30a>
 8000ce2:	0002      	movs	r2, r0
 8000ce4:	3a01      	subs	r2, #1
 8000ce6:	2801      	cmp	r0, #1
 8000ce8:	d100      	bne.n	8000cec <__aeabi_fsub+0x1a4>
 8000cea:	e09c      	b.n	8000e26 <__aeabi_fsub+0x2de>
 8000cec:	28ff      	cmp	r0, #255	; 0xff
 8000cee:	d026      	beq.n	8000d3e <__aeabi_fsub+0x1f6>
 8000cf0:	4690      	mov	r8, r2
 8000cf2:	e788      	b.n	8000c06 <__aeabi_fsub+0xbe>
 8000cf4:	22ff      	movs	r2, #255	; 0xff
 8000cf6:	2700      	movs	r7, #0
 8000cf8:	e771      	b.n	8000bde <__aeabi_fsub+0x96>
 8000cfa:	20fe      	movs	r0, #254	; 0xfe
 8000cfc:	1c6a      	adds	r2, r5, #1
 8000cfe:	4210      	tst	r0, r2
 8000d00:	d064      	beq.n	8000dcc <__aeabi_fsub+0x284>
 8000d02:	2aff      	cmp	r2, #255	; 0xff
 8000d04:	d0f6      	beq.n	8000cf4 <__aeabi_fsub+0x1ac>
 8000d06:	0015      	movs	r5, r2
 8000d08:	4466      	add	r6, ip
 8000d0a:	0870      	lsrs	r0, r6, #1
 8000d0c:	0743      	lsls	r3, r0, #29
 8000d0e:	d000      	beq.n	8000d12 <__aeabi_fsub+0x1ca>
 8000d10:	e756      	b.n	8000bc0 <__aeabi_fsub+0x78>
 8000d12:	08c3      	lsrs	r3, r0, #3
 8000d14:	2dff      	cmp	r5, #255	; 0xff
 8000d16:	d012      	beq.n	8000d3e <__aeabi_fsub+0x1f6>
 8000d18:	025b      	lsls	r3, r3, #9
 8000d1a:	0a5f      	lsrs	r7, r3, #9
 8000d1c:	b2ea      	uxtb	r2, r5
 8000d1e:	e75e      	b.n	8000bde <__aeabi_fsub+0x96>
 8000d20:	4662      	mov	r2, ip
 8000d22:	2a00      	cmp	r2, #0
 8000d24:	d100      	bne.n	8000d28 <__aeabi_fsub+0x1e0>
 8000d26:	e096      	b.n	8000e56 <__aeabi_fsub+0x30e>
 8000d28:	2e00      	cmp	r6, #0
 8000d2a:	d008      	beq.n	8000d3e <__aeabi_fsub+0x1f6>
 8000d2c:	2280      	movs	r2, #128	; 0x80
 8000d2e:	03d2      	lsls	r2, r2, #15
 8000d30:	4213      	tst	r3, r2
 8000d32:	d004      	beq.n	8000d3e <__aeabi_fsub+0x1f6>
 8000d34:	4648      	mov	r0, r9
 8000d36:	4210      	tst	r0, r2
 8000d38:	d101      	bne.n	8000d3e <__aeabi_fsub+0x1f6>
 8000d3a:	000c      	movs	r4, r1
 8000d3c:	464b      	mov	r3, r9
 8000d3e:	2b00      	cmp	r3, #0
 8000d40:	d0d8      	beq.n	8000cf4 <__aeabi_fsub+0x1ac>
 8000d42:	2780      	movs	r7, #128	; 0x80
 8000d44:	03ff      	lsls	r7, r7, #15
 8000d46:	431f      	orrs	r7, r3
 8000d48:	027f      	lsls	r7, r7, #9
 8000d4a:	22ff      	movs	r2, #255	; 0xff
 8000d4c:	0a7f      	lsrs	r7, r7, #9
 8000d4e:	e746      	b.n	8000bde <__aeabi_fsub+0x96>
 8000d50:	2320      	movs	r3, #32
 8000d52:	003a      	movs	r2, r7
 8000d54:	1b45      	subs	r5, r0, r5
 8000d56:	0038      	movs	r0, r7
 8000d58:	3501      	adds	r5, #1
 8000d5a:	40ea      	lsrs	r2, r5
 8000d5c:	1b5d      	subs	r5, r3, r5
 8000d5e:	40a8      	lsls	r0, r5
 8000d60:	1e43      	subs	r3, r0, #1
 8000d62:	4198      	sbcs	r0, r3
 8000d64:	2500      	movs	r5, #0
 8000d66:	4310      	orrs	r0, r2
 8000d68:	e728      	b.n	8000bbc <__aeabi_fsub+0x74>
 8000d6a:	2320      	movs	r3, #32
 8000d6c:	1a1b      	subs	r3, r3, r0
 8000d6e:	0032      	movs	r2, r6
 8000d70:	409e      	lsls	r6, r3
 8000d72:	40c2      	lsrs	r2, r0
 8000d74:	0030      	movs	r0, r6
 8000d76:	1e43      	subs	r3, r0, #1
 8000d78:	4198      	sbcs	r0, r3
 8000d7a:	4310      	orrs	r0, r2
 8000d7c:	e70c      	b.n	8000b98 <__aeabi_fsub+0x50>
 8000d7e:	2aff      	cmp	r2, #255	; 0xff
 8000d80:	d0db      	beq.n	8000d3a <__aeabi_fsub+0x1f2>
 8000d82:	2380      	movs	r3, #128	; 0x80
 8000d84:	4660      	mov	r0, ip
 8000d86:	04db      	lsls	r3, r3, #19
 8000d88:	4318      	orrs	r0, r3
 8000d8a:	4684      	mov	ip, r0
 8000d8c:	2f1b      	cmp	r7, #27
 8000d8e:	dd56      	ble.n	8000e3e <__aeabi_fsub+0x2f6>
 8000d90:	2001      	movs	r0, #1
 8000d92:	000c      	movs	r4, r1
 8000d94:	0015      	movs	r5, r2
 8000d96:	1a30      	subs	r0, r6, r0
 8000d98:	e700      	b.n	8000b9c <__aeabi_fsub+0x54>
 8000d9a:	4663      	mov	r3, ip
 8000d9c:	1b9f      	subs	r7, r3, r6
 8000d9e:	017b      	lsls	r3, r7, #5
 8000da0:	d43d      	bmi.n	8000e1e <__aeabi_fsub+0x2d6>
 8000da2:	2f00      	cmp	r7, #0
 8000da4:	d000      	beq.n	8000da8 <__aeabi_fsub+0x260>
 8000da6:	e6fe      	b.n	8000ba6 <__aeabi_fsub+0x5e>
 8000da8:	2400      	movs	r4, #0
 8000daa:	2200      	movs	r2, #0
 8000dac:	2700      	movs	r7, #0
 8000dae:	e716      	b.n	8000bde <__aeabi_fsub+0x96>
 8000db0:	0005      	movs	r5, r0
 8000db2:	e7af      	b.n	8000d14 <__aeabi_fsub+0x1cc>
 8000db4:	0032      	movs	r2, r6
 8000db6:	4643      	mov	r3, r8
 8000db8:	4641      	mov	r1, r8
 8000dba:	40da      	lsrs	r2, r3
 8000dbc:	2320      	movs	r3, #32
 8000dbe:	1a5b      	subs	r3, r3, r1
 8000dc0:	409e      	lsls	r6, r3
 8000dc2:	0030      	movs	r0, r6
 8000dc4:	1e43      	subs	r3, r0, #1
 8000dc6:	4198      	sbcs	r0, r3
 8000dc8:	4310      	orrs	r0, r2
 8000dca:	e721      	b.n	8000c10 <__aeabi_fsub+0xc8>
 8000dcc:	2d00      	cmp	r5, #0
 8000dce:	d1a7      	bne.n	8000d20 <__aeabi_fsub+0x1d8>
 8000dd0:	4663      	mov	r3, ip
 8000dd2:	2b00      	cmp	r3, #0
 8000dd4:	d059      	beq.n	8000e8a <__aeabi_fsub+0x342>
 8000dd6:	2200      	movs	r2, #0
 8000dd8:	2e00      	cmp	r6, #0
 8000dda:	d100      	bne.n	8000dde <__aeabi_fsub+0x296>
 8000ddc:	e6ff      	b.n	8000bde <__aeabi_fsub+0x96>
 8000dde:	0030      	movs	r0, r6
 8000de0:	4460      	add	r0, ip
 8000de2:	0143      	lsls	r3, r0, #5
 8000de4:	d592      	bpl.n	8000d0c <__aeabi_fsub+0x1c4>
 8000de6:	4b2a      	ldr	r3, [pc, #168]	; (8000e90 <__aeabi_fsub+0x348>)
 8000de8:	3501      	adds	r5, #1
 8000dea:	4018      	ands	r0, r3
 8000dec:	e78e      	b.n	8000d0c <__aeabi_fsub+0x1c4>
 8000dee:	4663      	mov	r3, ip
 8000df0:	2b00      	cmp	r3, #0
 8000df2:	d047      	beq.n	8000e84 <__aeabi_fsub+0x33c>
 8000df4:	1e4b      	subs	r3, r1, #1
 8000df6:	2901      	cmp	r1, #1
 8000df8:	d015      	beq.n	8000e26 <__aeabi_fsub+0x2de>
 8000dfa:	29ff      	cmp	r1, #255	; 0xff
 8000dfc:	d02b      	beq.n	8000e56 <__aeabi_fsub+0x30e>
 8000dfe:	0019      	movs	r1, r3
 8000e00:	e74e      	b.n	8000ca0 <__aeabi_fsub+0x158>
 8000e02:	000c      	movs	r4, r1
 8000e04:	464b      	mov	r3, r9
 8000e06:	003d      	movs	r5, r7
 8000e08:	e784      	b.n	8000d14 <__aeabi_fsub+0x1cc>
 8000e0a:	4662      	mov	r2, ip
 8000e0c:	2a00      	cmp	r2, #0
 8000e0e:	d18b      	bne.n	8000d28 <__aeabi_fsub+0x1e0>
 8000e10:	2e00      	cmp	r6, #0
 8000e12:	d192      	bne.n	8000d3a <__aeabi_fsub+0x1f2>
 8000e14:	2780      	movs	r7, #128	; 0x80
 8000e16:	2400      	movs	r4, #0
 8000e18:	22ff      	movs	r2, #255	; 0xff
 8000e1a:	03ff      	lsls	r7, r7, #15
 8000e1c:	e6df      	b.n	8000bde <__aeabi_fsub+0x96>
 8000e1e:	4663      	mov	r3, ip
 8000e20:	000c      	movs	r4, r1
 8000e22:	1af7      	subs	r7, r6, r3
 8000e24:	e6bf      	b.n	8000ba6 <__aeabi_fsub+0x5e>
 8000e26:	0030      	movs	r0, r6
 8000e28:	4460      	add	r0, ip
 8000e2a:	2501      	movs	r5, #1
 8000e2c:	0143      	lsls	r3, r0, #5
 8000e2e:	d400      	bmi.n	8000e32 <__aeabi_fsub+0x2ea>
 8000e30:	e76c      	b.n	8000d0c <__aeabi_fsub+0x1c4>
 8000e32:	2502      	movs	r5, #2
 8000e34:	e6f2      	b.n	8000c1c <__aeabi_fsub+0xd4>
 8000e36:	4663      	mov	r3, ip
 8000e38:	2501      	movs	r5, #1
 8000e3a:	1b98      	subs	r0, r3, r6
 8000e3c:	e6ae      	b.n	8000b9c <__aeabi_fsub+0x54>
 8000e3e:	2320      	movs	r3, #32
 8000e40:	4664      	mov	r4, ip
 8000e42:	4660      	mov	r0, ip
 8000e44:	40fc      	lsrs	r4, r7
 8000e46:	1bdf      	subs	r7, r3, r7
 8000e48:	40b8      	lsls	r0, r7
 8000e4a:	1e43      	subs	r3, r0, #1
 8000e4c:	4198      	sbcs	r0, r3
 8000e4e:	4320      	orrs	r0, r4
 8000e50:	e79f      	b.n	8000d92 <__aeabi_fsub+0x24a>
 8000e52:	0005      	movs	r5, r0
 8000e54:	e75e      	b.n	8000d14 <__aeabi_fsub+0x1cc>
 8000e56:	464b      	mov	r3, r9
 8000e58:	e771      	b.n	8000d3e <__aeabi_fsub+0x1f6>
 8000e5a:	2320      	movs	r3, #32
 8000e5c:	4665      	mov	r5, ip
 8000e5e:	4660      	mov	r0, ip
 8000e60:	40cd      	lsrs	r5, r1
 8000e62:	1a59      	subs	r1, r3, r1
 8000e64:	4088      	lsls	r0, r1
 8000e66:	1e43      	subs	r3, r0, #1
 8000e68:	4198      	sbcs	r0, r3
 8000e6a:	4328      	orrs	r0, r5
 8000e6c:	e71c      	b.n	8000ca8 <__aeabi_fsub+0x160>
 8000e6e:	4663      	mov	r3, ip
 8000e70:	000c      	movs	r4, r1
 8000e72:	2501      	movs	r5, #1
 8000e74:	1af0      	subs	r0, r6, r3
 8000e76:	e691      	b.n	8000b9c <__aeabi_fsub+0x54>
 8000e78:	2e00      	cmp	r6, #0
 8000e7a:	d095      	beq.n	8000da8 <__aeabi_fsub+0x260>
 8000e7c:	000c      	movs	r4, r1
 8000e7e:	464f      	mov	r7, r9
 8000e80:	2200      	movs	r2, #0
 8000e82:	e6ac      	b.n	8000bde <__aeabi_fsub+0x96>
 8000e84:	464b      	mov	r3, r9
 8000e86:	000d      	movs	r5, r1
 8000e88:	e744      	b.n	8000d14 <__aeabi_fsub+0x1cc>
 8000e8a:	464f      	mov	r7, r9
 8000e8c:	2200      	movs	r2, #0
 8000e8e:	e6a6      	b.n	8000bde <__aeabi_fsub+0x96>
 8000e90:	fbffffff 	.word	0xfbffffff
 8000e94:	7dffffff 	.word	0x7dffffff
 8000e98:	2800      	cmp	r0, #0
 8000e9a:	d000      	beq.n	8000e9e <__aeabi_fsub+0x356>
 8000e9c:	e736      	b.n	8000d0c <__aeabi_fsub+0x1c4>
 8000e9e:	2400      	movs	r4, #0
 8000ea0:	2700      	movs	r7, #0
 8000ea2:	e69c      	b.n	8000bde <__aeabi_fsub+0x96>

08000ea4 <__aeabi_f2iz>:
 8000ea4:	0241      	lsls	r1, r0, #9
 8000ea6:	0042      	lsls	r2, r0, #1
 8000ea8:	0fc3      	lsrs	r3, r0, #31
 8000eaa:	0a49      	lsrs	r1, r1, #9
 8000eac:	2000      	movs	r0, #0
 8000eae:	0e12      	lsrs	r2, r2, #24
 8000eb0:	2a7e      	cmp	r2, #126	; 0x7e
 8000eb2:	dd03      	ble.n	8000ebc <__aeabi_f2iz+0x18>
 8000eb4:	2a9d      	cmp	r2, #157	; 0x9d
 8000eb6:	dd02      	ble.n	8000ebe <__aeabi_f2iz+0x1a>
 8000eb8:	4a09      	ldr	r2, [pc, #36]	; (8000ee0 <__aeabi_f2iz+0x3c>)
 8000eba:	1898      	adds	r0, r3, r2
 8000ebc:	4770      	bx	lr
 8000ebe:	2080      	movs	r0, #128	; 0x80
 8000ec0:	0400      	lsls	r0, r0, #16
 8000ec2:	4301      	orrs	r1, r0
 8000ec4:	2a95      	cmp	r2, #149	; 0x95
 8000ec6:	dc07      	bgt.n	8000ed8 <__aeabi_f2iz+0x34>
 8000ec8:	2096      	movs	r0, #150	; 0x96
 8000eca:	1a82      	subs	r2, r0, r2
 8000ecc:	40d1      	lsrs	r1, r2
 8000ece:	4248      	negs	r0, r1
 8000ed0:	2b00      	cmp	r3, #0
 8000ed2:	d1f3      	bne.n	8000ebc <__aeabi_f2iz+0x18>
 8000ed4:	0008      	movs	r0, r1
 8000ed6:	e7f1      	b.n	8000ebc <__aeabi_f2iz+0x18>
 8000ed8:	3a96      	subs	r2, #150	; 0x96
 8000eda:	4091      	lsls	r1, r2
 8000edc:	e7f7      	b.n	8000ece <__aeabi_f2iz+0x2a>
 8000ede:	46c0      	nop			; (mov r8, r8)
 8000ee0:	7fffffff 	.word	0x7fffffff

08000ee4 <__aeabi_ui2f>:
 8000ee4:	b570      	push	{r4, r5, r6, lr}
 8000ee6:	1e05      	subs	r5, r0, #0
 8000ee8:	d00e      	beq.n	8000f08 <__aeabi_ui2f+0x24>
 8000eea:	f000 ff31 	bl	8001d50 <__clzsi2>
 8000eee:	239e      	movs	r3, #158	; 0x9e
 8000ef0:	0004      	movs	r4, r0
 8000ef2:	1a1b      	subs	r3, r3, r0
 8000ef4:	2b96      	cmp	r3, #150	; 0x96
 8000ef6:	dc0c      	bgt.n	8000f12 <__aeabi_ui2f+0x2e>
 8000ef8:	2808      	cmp	r0, #8
 8000efa:	dd01      	ble.n	8000f00 <__aeabi_ui2f+0x1c>
 8000efc:	3c08      	subs	r4, #8
 8000efe:	40a5      	lsls	r5, r4
 8000f00:	026d      	lsls	r5, r5, #9
 8000f02:	0a6d      	lsrs	r5, r5, #9
 8000f04:	b2d8      	uxtb	r0, r3
 8000f06:	e001      	b.n	8000f0c <__aeabi_ui2f+0x28>
 8000f08:	2000      	movs	r0, #0
 8000f0a:	2500      	movs	r5, #0
 8000f0c:	05c0      	lsls	r0, r0, #23
 8000f0e:	4328      	orrs	r0, r5
 8000f10:	bd70      	pop	{r4, r5, r6, pc}
 8000f12:	2b99      	cmp	r3, #153	; 0x99
 8000f14:	dd09      	ble.n	8000f2a <__aeabi_ui2f+0x46>
 8000f16:	0002      	movs	r2, r0
 8000f18:	0029      	movs	r1, r5
 8000f1a:	321b      	adds	r2, #27
 8000f1c:	4091      	lsls	r1, r2
 8000f1e:	1e4a      	subs	r2, r1, #1
 8000f20:	4191      	sbcs	r1, r2
 8000f22:	2205      	movs	r2, #5
 8000f24:	1a12      	subs	r2, r2, r0
 8000f26:	40d5      	lsrs	r5, r2
 8000f28:	430d      	orrs	r5, r1
 8000f2a:	2c05      	cmp	r4, #5
 8000f2c:	dc12      	bgt.n	8000f54 <__aeabi_ui2f+0x70>
 8000f2e:	0029      	movs	r1, r5
 8000f30:	4e0c      	ldr	r6, [pc, #48]	; (8000f64 <__aeabi_ui2f+0x80>)
 8000f32:	4031      	ands	r1, r6
 8000f34:	076a      	lsls	r2, r5, #29
 8000f36:	d009      	beq.n	8000f4c <__aeabi_ui2f+0x68>
 8000f38:	200f      	movs	r0, #15
 8000f3a:	4028      	ands	r0, r5
 8000f3c:	2804      	cmp	r0, #4
 8000f3e:	d005      	beq.n	8000f4c <__aeabi_ui2f+0x68>
 8000f40:	3104      	adds	r1, #4
 8000f42:	014a      	lsls	r2, r1, #5
 8000f44:	d502      	bpl.n	8000f4c <__aeabi_ui2f+0x68>
 8000f46:	239f      	movs	r3, #159	; 0x9f
 8000f48:	4031      	ands	r1, r6
 8000f4a:	1b1b      	subs	r3, r3, r4
 8000f4c:	0189      	lsls	r1, r1, #6
 8000f4e:	0a4d      	lsrs	r5, r1, #9
 8000f50:	b2d8      	uxtb	r0, r3
 8000f52:	e7db      	b.n	8000f0c <__aeabi_ui2f+0x28>
 8000f54:	1f62      	subs	r2, r4, #5
 8000f56:	4095      	lsls	r5, r2
 8000f58:	0029      	movs	r1, r5
 8000f5a:	4e02      	ldr	r6, [pc, #8]	; (8000f64 <__aeabi_ui2f+0x80>)
 8000f5c:	4031      	ands	r1, r6
 8000f5e:	076a      	lsls	r2, r5, #29
 8000f60:	d0f4      	beq.n	8000f4c <__aeabi_ui2f+0x68>
 8000f62:	e7e9      	b.n	8000f38 <__aeabi_ui2f+0x54>
 8000f64:	fbffffff 	.word	0xfbffffff

08000f68 <__aeabi_dmul>:
 8000f68:	b5f0      	push	{r4, r5, r6, r7, lr}
 8000f6a:	4657      	mov	r7, sl
 8000f6c:	464e      	mov	r6, r9
 8000f6e:	4645      	mov	r5, r8
 8000f70:	46de      	mov	lr, fp
 8000f72:	b5e0      	push	{r5, r6, r7, lr}
 8000f74:	4698      	mov	r8, r3
 8000f76:	030c      	lsls	r4, r1, #12
 8000f78:	004b      	lsls	r3, r1, #1
 8000f7a:	0006      	movs	r6, r0
 8000f7c:	4692      	mov	sl, r2
 8000f7e:	b087      	sub	sp, #28
 8000f80:	0b24      	lsrs	r4, r4, #12
 8000f82:	0d5b      	lsrs	r3, r3, #21
 8000f84:	0fcf      	lsrs	r7, r1, #31
 8000f86:	2b00      	cmp	r3, #0
 8000f88:	d100      	bne.n	8000f8c <__aeabi_dmul+0x24>
 8000f8a:	e15c      	b.n	8001246 <__aeabi_dmul+0x2de>
 8000f8c:	4ad9      	ldr	r2, [pc, #868]	; (80012f4 <__aeabi_dmul+0x38c>)
 8000f8e:	4293      	cmp	r3, r2
 8000f90:	d100      	bne.n	8000f94 <__aeabi_dmul+0x2c>
 8000f92:	e175      	b.n	8001280 <__aeabi_dmul+0x318>
 8000f94:	0f42      	lsrs	r2, r0, #29
 8000f96:	00e4      	lsls	r4, r4, #3
 8000f98:	4314      	orrs	r4, r2
 8000f9a:	2280      	movs	r2, #128	; 0x80
 8000f9c:	0412      	lsls	r2, r2, #16
 8000f9e:	4314      	orrs	r4, r2
 8000fa0:	4ad5      	ldr	r2, [pc, #852]	; (80012f8 <__aeabi_dmul+0x390>)
 8000fa2:	00c5      	lsls	r5, r0, #3
 8000fa4:	4694      	mov	ip, r2
 8000fa6:	4463      	add	r3, ip
 8000fa8:	9300      	str	r3, [sp, #0]
 8000faa:	2300      	movs	r3, #0
 8000fac:	4699      	mov	r9, r3
 8000fae:	469b      	mov	fp, r3
 8000fb0:	4643      	mov	r3, r8
 8000fb2:	4642      	mov	r2, r8
 8000fb4:	031e      	lsls	r6, r3, #12
 8000fb6:	0fd2      	lsrs	r2, r2, #31
 8000fb8:	005b      	lsls	r3, r3, #1
 8000fba:	4650      	mov	r0, sl
 8000fbc:	4690      	mov	r8, r2
 8000fbe:	0b36      	lsrs	r6, r6, #12
 8000fc0:	0d5b      	lsrs	r3, r3, #21
 8000fc2:	d100      	bne.n	8000fc6 <__aeabi_dmul+0x5e>
 8000fc4:	e120      	b.n	8001208 <__aeabi_dmul+0x2a0>
 8000fc6:	4acb      	ldr	r2, [pc, #812]	; (80012f4 <__aeabi_dmul+0x38c>)
 8000fc8:	4293      	cmp	r3, r2
 8000fca:	d100      	bne.n	8000fce <__aeabi_dmul+0x66>
 8000fcc:	e162      	b.n	8001294 <__aeabi_dmul+0x32c>
 8000fce:	49ca      	ldr	r1, [pc, #808]	; (80012f8 <__aeabi_dmul+0x390>)
 8000fd0:	0f42      	lsrs	r2, r0, #29
 8000fd2:	468c      	mov	ip, r1
 8000fd4:	9900      	ldr	r1, [sp, #0]
 8000fd6:	4463      	add	r3, ip
 8000fd8:	00f6      	lsls	r6, r6, #3
 8000fda:	468c      	mov	ip, r1
 8000fdc:	4316      	orrs	r6, r2
 8000fde:	2280      	movs	r2, #128	; 0x80
 8000fe0:	449c      	add	ip, r3
 8000fe2:	0412      	lsls	r2, r2, #16
 8000fe4:	4663      	mov	r3, ip
 8000fe6:	4316      	orrs	r6, r2
 8000fe8:	00c2      	lsls	r2, r0, #3
 8000fea:	2000      	movs	r0, #0
 8000fec:	9300      	str	r3, [sp, #0]
 8000fee:	9900      	ldr	r1, [sp, #0]
 8000ff0:	4643      	mov	r3, r8
 8000ff2:	3101      	adds	r1, #1
 8000ff4:	468c      	mov	ip, r1
 8000ff6:	4649      	mov	r1, r9
 8000ff8:	407b      	eors	r3, r7
 8000ffa:	9301      	str	r3, [sp, #4]
 8000ffc:	290f      	cmp	r1, #15
 8000ffe:	d826      	bhi.n	800104e <__aeabi_dmul+0xe6>
 8001000:	4bbe      	ldr	r3, [pc, #760]	; (80012fc <__aeabi_dmul+0x394>)
 8001002:	0089      	lsls	r1, r1, #2
 8001004:	5859      	ldr	r1, [r3, r1]
 8001006:	468f      	mov	pc, r1
 8001008:	4643      	mov	r3, r8
 800100a:	9301      	str	r3, [sp, #4]
 800100c:	0034      	movs	r4, r6
 800100e:	0015      	movs	r5, r2
 8001010:	4683      	mov	fp, r0
 8001012:	465b      	mov	r3, fp
 8001014:	2b02      	cmp	r3, #2
 8001016:	d016      	beq.n	8001046 <__aeabi_dmul+0xde>
 8001018:	2b03      	cmp	r3, #3
 800101a:	d100      	bne.n	800101e <__aeabi_dmul+0xb6>
 800101c:	e203      	b.n	8001426 <__aeabi_dmul+0x4be>
 800101e:	2b01      	cmp	r3, #1
 8001020:	d000      	beq.n	8001024 <__aeabi_dmul+0xbc>
 8001022:	e0cd      	b.n	80011c0 <__aeabi_dmul+0x258>
 8001024:	2200      	movs	r2, #0
 8001026:	2400      	movs	r4, #0
 8001028:	2500      	movs	r5, #0
 800102a:	9b01      	ldr	r3, [sp, #4]
 800102c:	0512      	lsls	r2, r2, #20
 800102e:	4322      	orrs	r2, r4
 8001030:	07db      	lsls	r3, r3, #31
 8001032:	431a      	orrs	r2, r3
 8001034:	0028      	movs	r0, r5
 8001036:	0011      	movs	r1, r2
 8001038:	b007      	add	sp, #28
 800103a:	bcf0      	pop	{r4, r5, r6, r7}
 800103c:	46bb      	mov	fp, r7
 800103e:	46b2      	mov	sl, r6
 8001040:	46a9      	mov	r9, r5
 8001042:	46a0      	mov	r8, r4
 8001044:	bdf0      	pop	{r4, r5, r6, r7, pc}
 8001046:	2400      	movs	r4, #0
 8001048:	2500      	movs	r5, #0
 800104a:	4aaa      	ldr	r2, [pc, #680]	; (80012f4 <__aeabi_dmul+0x38c>)
 800104c:	e7ed      	b.n	800102a <__aeabi_dmul+0xc2>
 800104e:	0c28      	lsrs	r0, r5, #16
 8001050:	042d      	lsls	r5, r5, #16
 8001052:	0c2d      	lsrs	r5, r5, #16
 8001054:	002b      	movs	r3, r5
 8001056:	0c11      	lsrs	r1, r2, #16
 8001058:	0412      	lsls	r2, r2, #16
 800105a:	0c12      	lsrs	r2, r2, #16
 800105c:	4353      	muls	r3, r2
 800105e:	4698      	mov	r8, r3
 8001060:	0013      	movs	r3, r2
 8001062:	002f      	movs	r7, r5
 8001064:	4343      	muls	r3, r0
 8001066:	4699      	mov	r9, r3
 8001068:	434f      	muls	r7, r1
 800106a:	444f      	add	r7, r9
 800106c:	46bb      	mov	fp, r7
 800106e:	4647      	mov	r7, r8
 8001070:	000b      	movs	r3, r1
 8001072:	0c3f      	lsrs	r7, r7, #16
 8001074:	46ba      	mov	sl, r7
 8001076:	4343      	muls	r3, r0
 8001078:	44da      	add	sl, fp
 800107a:	9302      	str	r3, [sp, #8]
 800107c:	45d1      	cmp	r9, sl
 800107e:	d904      	bls.n	800108a <__aeabi_dmul+0x122>
 8001080:	2780      	movs	r7, #128	; 0x80
 8001082:	027f      	lsls	r7, r7, #9
 8001084:	46b9      	mov	r9, r7
 8001086:	444b      	add	r3, r9
 8001088:	9302      	str	r3, [sp, #8]
 800108a:	4653      	mov	r3, sl
 800108c:	0c1b      	lsrs	r3, r3, #16
 800108e:	469b      	mov	fp, r3
 8001090:	4653      	mov	r3, sl
 8001092:	041f      	lsls	r7, r3, #16
 8001094:	4643      	mov	r3, r8
 8001096:	041b      	lsls	r3, r3, #16
 8001098:	0c1b      	lsrs	r3, r3, #16
 800109a:	4698      	mov	r8, r3
 800109c:	003b      	movs	r3, r7
 800109e:	4443      	add	r3, r8
 80010a0:	9304      	str	r3, [sp, #16]
 80010a2:	0c33      	lsrs	r3, r6, #16
 80010a4:	0436      	lsls	r6, r6, #16
 80010a6:	0c36      	lsrs	r6, r6, #16
 80010a8:	4698      	mov	r8, r3
 80010aa:	0033      	movs	r3, r6
 80010ac:	4343      	muls	r3, r0
 80010ae:	4699      	mov	r9, r3
 80010b0:	4643      	mov	r3, r8
 80010b2:	4343      	muls	r3, r0
 80010b4:	002f      	movs	r7, r5
 80010b6:	469a      	mov	sl, r3
 80010b8:	4643      	mov	r3, r8
 80010ba:	4377      	muls	r7, r6
 80010bc:	435d      	muls	r5, r3
 80010be:	0c38      	lsrs	r0, r7, #16
 80010c0:	444d      	add	r5, r9
 80010c2:	1945      	adds	r5, r0, r5
 80010c4:	45a9      	cmp	r9, r5
 80010c6:	d903      	bls.n	80010d0 <__aeabi_dmul+0x168>
 80010c8:	2380      	movs	r3, #128	; 0x80
 80010ca:	025b      	lsls	r3, r3, #9
 80010cc:	4699      	mov	r9, r3
 80010ce:	44ca      	add	sl, r9
 80010d0:	043f      	lsls	r7, r7, #16
 80010d2:	0c28      	lsrs	r0, r5, #16
 80010d4:	0c3f      	lsrs	r7, r7, #16
 80010d6:	042d      	lsls	r5, r5, #16
 80010d8:	19ed      	adds	r5, r5, r7
 80010da:	0c27      	lsrs	r7, r4, #16
 80010dc:	0424      	lsls	r4, r4, #16
 80010de:	0c24      	lsrs	r4, r4, #16
 80010e0:	0003      	movs	r3, r0
 80010e2:	0020      	movs	r0, r4
 80010e4:	4350      	muls	r0, r2
 80010e6:	437a      	muls	r2, r7
 80010e8:	4691      	mov	r9, r2
 80010ea:	003a      	movs	r2, r7
 80010ec:	4453      	add	r3, sl
 80010ee:	9305      	str	r3, [sp, #20]
 80010f0:	0c03      	lsrs	r3, r0, #16
 80010f2:	469a      	mov	sl, r3
 80010f4:	434a      	muls	r2, r1
 80010f6:	4361      	muls	r1, r4
 80010f8:	4449      	add	r1, r9
 80010fa:	4451      	add	r1, sl
 80010fc:	44ab      	add	fp, r5
 80010fe:	4589      	cmp	r9, r1
 8001100:	d903      	bls.n	800110a <__aeabi_dmul+0x1a2>
 8001102:	2380      	movs	r3, #128	; 0x80
 8001104:	025b      	lsls	r3, r3, #9
 8001106:	4699      	mov	r9, r3
 8001108:	444a      	add	r2, r9
 800110a:	0400      	lsls	r0, r0, #16
 800110c:	0c0b      	lsrs	r3, r1, #16
 800110e:	0c00      	lsrs	r0, r0, #16
 8001110:	0409      	lsls	r1, r1, #16
 8001112:	1809      	adds	r1, r1, r0
 8001114:	0020      	movs	r0, r4
 8001116:	4699      	mov	r9, r3
 8001118:	4643      	mov	r3, r8
 800111a:	4370      	muls	r0, r6
 800111c:	435c      	muls	r4, r3
 800111e:	437e      	muls	r6, r7
 8001120:	435f      	muls	r7, r3
 8001122:	0c03      	lsrs	r3, r0, #16
 8001124:	4698      	mov	r8, r3
 8001126:	19a4      	adds	r4, r4, r6
 8001128:	4444      	add	r4, r8
 800112a:	444a      	add	r2, r9
 800112c:	9703      	str	r7, [sp, #12]
 800112e:	42a6      	cmp	r6, r4
 8001130:	d904      	bls.n	800113c <__aeabi_dmul+0x1d4>
 8001132:	2380      	movs	r3, #128	; 0x80
 8001134:	025b      	lsls	r3, r3, #9
 8001136:	4698      	mov	r8, r3
 8001138:	4447      	add	r7, r8
 800113a:	9703      	str	r7, [sp, #12]
 800113c:	0423      	lsls	r3, r4, #16
 800113e:	9e02      	ldr	r6, [sp, #8]
 8001140:	469a      	mov	sl, r3
 8001142:	9b05      	ldr	r3, [sp, #20]
 8001144:	445e      	add	r6, fp
 8001146:	4698      	mov	r8, r3
 8001148:	42ae      	cmp	r6, r5
 800114a:	41ad      	sbcs	r5, r5
 800114c:	1876      	adds	r6, r6, r1
 800114e:	428e      	cmp	r6, r1
 8001150:	4189      	sbcs	r1, r1
 8001152:	0400      	lsls	r0, r0, #16
 8001154:	0c00      	lsrs	r0, r0, #16
 8001156:	4450      	add	r0, sl
 8001158:	4440      	add	r0, r8
 800115a:	426d      	negs	r5, r5
 800115c:	1947      	adds	r7, r0, r5
 800115e:	46b8      	mov	r8, r7
 8001160:	4693      	mov	fp, r2
 8001162:	4249      	negs	r1, r1
 8001164:	4689      	mov	r9, r1
 8001166:	44c3      	add	fp, r8
 8001168:	44d9      	add	r9, fp
 800116a:	4298      	cmp	r0, r3
 800116c:	4180      	sbcs	r0, r0
 800116e:	45a8      	cmp	r8, r5
 8001170:	41ad      	sbcs	r5, r5
 8001172:	4593      	cmp	fp, r2
 8001174:	4192      	sbcs	r2, r2
 8001176:	4589      	cmp	r9, r1
 8001178:	4189      	sbcs	r1, r1
 800117a:	426d      	negs	r5, r5
 800117c:	4240      	negs	r0, r0
 800117e:	4328      	orrs	r0, r5
 8001180:	0c24      	lsrs	r4, r4, #16
 8001182:	4252      	negs	r2, r2
 8001184:	4249      	negs	r1, r1
 8001186:	430a      	orrs	r2, r1
 8001188:	9b03      	ldr	r3, [sp, #12]
 800118a:	1900      	adds	r0, r0, r4
 800118c:	1880      	adds	r0, r0, r2
 800118e:	18c7      	adds	r7, r0, r3
 8001190:	464b      	mov	r3, r9
 8001192:	0ddc      	lsrs	r4, r3, #23
 8001194:	9b04      	ldr	r3, [sp, #16]
 8001196:	0275      	lsls	r5, r6, #9
 8001198:	431d      	orrs	r5, r3
 800119a:	1e6a      	subs	r2, r5, #1
 800119c:	4195      	sbcs	r5, r2
 800119e:	464b      	mov	r3, r9
 80011a0:	0df6      	lsrs	r6, r6, #23
 80011a2:	027f      	lsls	r7, r7, #9
 80011a4:	4335      	orrs	r5, r6
 80011a6:	025a      	lsls	r2, r3, #9
 80011a8:	433c      	orrs	r4, r7
 80011aa:	4315      	orrs	r5, r2
 80011ac:	01fb      	lsls	r3, r7, #7
 80011ae:	d400      	bmi.n	80011b2 <__aeabi_dmul+0x24a>
 80011b0:	e11c      	b.n	80013ec <__aeabi_dmul+0x484>
 80011b2:	2101      	movs	r1, #1
 80011b4:	086a      	lsrs	r2, r5, #1
 80011b6:	400d      	ands	r5, r1
 80011b8:	4315      	orrs	r5, r2
 80011ba:	07e2      	lsls	r2, r4, #31
 80011bc:	4315      	orrs	r5, r2
 80011be:	0864      	lsrs	r4, r4, #1
 80011c0:	494f      	ldr	r1, [pc, #316]	; (8001300 <__aeabi_dmul+0x398>)
 80011c2:	4461      	add	r1, ip
 80011c4:	2900      	cmp	r1, #0
 80011c6:	dc00      	bgt.n	80011ca <__aeabi_dmul+0x262>
 80011c8:	e0b0      	b.n	800132c <__aeabi_dmul+0x3c4>
 80011ca:	076b      	lsls	r3, r5, #29
 80011cc:	d009      	beq.n	80011e2 <__aeabi_dmul+0x27a>
 80011ce:	220f      	movs	r2, #15
 80011d0:	402a      	ands	r2, r5
 80011d2:	2a04      	cmp	r2, #4
 80011d4:	d005      	beq.n	80011e2 <__aeabi_dmul+0x27a>
 80011d6:	1d2a      	adds	r2, r5, #4
 80011d8:	42aa      	cmp	r2, r5
 80011da:	41ad      	sbcs	r5, r5
 80011dc:	426d      	negs	r5, r5
 80011de:	1964      	adds	r4, r4, r5
 80011e0:	0015      	movs	r5, r2
 80011e2:	01e3      	lsls	r3, r4, #7
 80011e4:	d504      	bpl.n	80011f0 <__aeabi_dmul+0x288>
 80011e6:	2180      	movs	r1, #128	; 0x80
 80011e8:	4a46      	ldr	r2, [pc, #280]	; (8001304 <__aeabi_dmul+0x39c>)
 80011ea:	00c9      	lsls	r1, r1, #3
 80011ec:	4014      	ands	r4, r2
 80011ee:	4461      	add	r1, ip
 80011f0:	4a45      	ldr	r2, [pc, #276]	; (8001308 <__aeabi_dmul+0x3a0>)
 80011f2:	4291      	cmp	r1, r2
 80011f4:	dd00      	ble.n	80011f8 <__aeabi_dmul+0x290>
 80011f6:	e726      	b.n	8001046 <__aeabi_dmul+0xde>
 80011f8:	0762      	lsls	r2, r4, #29
 80011fa:	08ed      	lsrs	r5, r5, #3
 80011fc:	0264      	lsls	r4, r4, #9
 80011fe:	0549      	lsls	r1, r1, #21
 8001200:	4315      	orrs	r5, r2
 8001202:	0b24      	lsrs	r4, r4, #12
 8001204:	0d4a      	lsrs	r2, r1, #21
 8001206:	e710      	b.n	800102a <__aeabi_dmul+0xc2>
 8001208:	4652      	mov	r2, sl
 800120a:	4332      	orrs	r2, r6
 800120c:	d100      	bne.n	8001210 <__aeabi_dmul+0x2a8>
 800120e:	e07f      	b.n	8001310 <__aeabi_dmul+0x3a8>
 8001210:	2e00      	cmp	r6, #0
 8001212:	d100      	bne.n	8001216 <__aeabi_dmul+0x2ae>
 8001214:	e0dc      	b.n	80013d0 <__aeabi_dmul+0x468>
 8001216:	0030      	movs	r0, r6
 8001218:	f000 fd9a 	bl	8001d50 <__clzsi2>
 800121c:	0002      	movs	r2, r0
 800121e:	3a0b      	subs	r2, #11
 8001220:	231d      	movs	r3, #29
 8001222:	0001      	movs	r1, r0
 8001224:	1a9b      	subs	r3, r3, r2
 8001226:	4652      	mov	r2, sl
 8001228:	3908      	subs	r1, #8
 800122a:	40da      	lsrs	r2, r3
 800122c:	408e      	lsls	r6, r1
 800122e:	4316      	orrs	r6, r2
 8001230:	4652      	mov	r2, sl
 8001232:	408a      	lsls	r2, r1
 8001234:	9b00      	ldr	r3, [sp, #0]
 8001236:	4935      	ldr	r1, [pc, #212]	; (800130c <__aeabi_dmul+0x3a4>)
 8001238:	1a18      	subs	r0, r3, r0
 800123a:	0003      	movs	r3, r0
 800123c:	468c      	mov	ip, r1
 800123e:	4463      	add	r3, ip
 8001240:	2000      	movs	r0, #0
 8001242:	9300      	str	r3, [sp, #0]
 8001244:	e6d3      	b.n	8000fee <__aeabi_dmul+0x86>
 8001246:	0025      	movs	r5, r4
 8001248:	4305      	orrs	r5, r0
 800124a:	d04a      	beq.n	80012e2 <__aeabi_dmul+0x37a>
 800124c:	2c00      	cmp	r4, #0
 800124e:	d100      	bne.n	8001252 <__aeabi_dmul+0x2ea>
 8001250:	e0b0      	b.n	80013b4 <__aeabi_dmul+0x44c>
 8001252:	0020      	movs	r0, r4
 8001254:	f000 fd7c 	bl	8001d50 <__clzsi2>
 8001258:	0001      	movs	r1, r0
 800125a:	0002      	movs	r2, r0
 800125c:	390b      	subs	r1, #11
 800125e:	231d      	movs	r3, #29
 8001260:	0010      	movs	r0, r2
 8001262:	1a5b      	subs	r3, r3, r1
 8001264:	0031      	movs	r1, r6
 8001266:	0035      	movs	r5, r6
 8001268:	3808      	subs	r0, #8
 800126a:	4084      	lsls	r4, r0
 800126c:	40d9      	lsrs	r1, r3
 800126e:	4085      	lsls	r5, r0
 8001270:	430c      	orrs	r4, r1
 8001272:	4826      	ldr	r0, [pc, #152]	; (800130c <__aeabi_dmul+0x3a4>)
 8001274:	1a83      	subs	r3, r0, r2
 8001276:	9300      	str	r3, [sp, #0]
 8001278:	2300      	movs	r3, #0
 800127a:	4699      	mov	r9, r3
 800127c:	469b      	mov	fp, r3
 800127e:	e697      	b.n	8000fb0 <__aeabi_dmul+0x48>
 8001280:	0005      	movs	r5, r0
 8001282:	4325      	orrs	r5, r4
 8001284:	d126      	bne.n	80012d4 <__aeabi_dmul+0x36c>
 8001286:	2208      	movs	r2, #8
 8001288:	9300      	str	r3, [sp, #0]
 800128a:	2302      	movs	r3, #2
 800128c:	2400      	movs	r4, #0
 800128e:	4691      	mov	r9, r2
 8001290:	469b      	mov	fp, r3
 8001292:	e68d      	b.n	8000fb0 <__aeabi_dmul+0x48>
 8001294:	4652      	mov	r2, sl
 8001296:	9b00      	ldr	r3, [sp, #0]
 8001298:	4332      	orrs	r2, r6
 800129a:	d110      	bne.n	80012be <__aeabi_dmul+0x356>
 800129c:	4915      	ldr	r1, [pc, #84]	; (80012f4 <__aeabi_dmul+0x38c>)
 800129e:	2600      	movs	r6, #0
 80012a0:	468c      	mov	ip, r1
 80012a2:	4463      	add	r3, ip
 80012a4:	4649      	mov	r1, r9
 80012a6:	9300      	str	r3, [sp, #0]
 80012a8:	2302      	movs	r3, #2
 80012aa:	4319      	orrs	r1, r3
 80012ac:	4689      	mov	r9, r1
 80012ae:	2002      	movs	r0, #2
 80012b0:	e69d      	b.n	8000fee <__aeabi_dmul+0x86>
 80012b2:	465b      	mov	r3, fp
 80012b4:	9701      	str	r7, [sp, #4]
 80012b6:	2b02      	cmp	r3, #2
 80012b8:	d000      	beq.n	80012bc <__aeabi_dmul+0x354>
 80012ba:	e6ad      	b.n	8001018 <__aeabi_dmul+0xb0>
 80012bc:	e6c3      	b.n	8001046 <__aeabi_dmul+0xde>
 80012be:	4a0d      	ldr	r2, [pc, #52]	; (80012f4 <__aeabi_dmul+0x38c>)
 80012c0:	2003      	movs	r0, #3
 80012c2:	4694      	mov	ip, r2
 80012c4:	4463      	add	r3, ip
 80012c6:	464a      	mov	r2, r9
 80012c8:	9300      	str	r3, [sp, #0]
 80012ca:	2303      	movs	r3, #3
 80012cc:	431a      	orrs	r2, r3
 80012ce:	4691      	mov	r9, r2
 80012d0:	4652      	mov	r2, sl
 80012d2:	e68c      	b.n	8000fee <__aeabi_dmul+0x86>
 80012d4:	220c      	movs	r2, #12
 80012d6:	9300      	str	r3, [sp, #0]
 80012d8:	2303      	movs	r3, #3
 80012da:	0005      	movs	r5, r0
 80012dc:	4691      	mov	r9, r2
 80012de:	469b      	mov	fp, r3
 80012e0:	e666      	b.n	8000fb0 <__aeabi_dmul+0x48>
 80012e2:	2304      	movs	r3, #4
 80012e4:	4699      	mov	r9, r3
 80012e6:	2300      	movs	r3, #0
 80012e8:	9300      	str	r3, [sp, #0]
 80012ea:	3301      	adds	r3, #1
 80012ec:	2400      	movs	r4, #0
 80012ee:	469b      	mov	fp, r3
 80012f0:	e65e      	b.n	8000fb0 <__aeabi_dmul+0x48>
 80012f2:	46c0      	nop			; (mov r8, r8)
 80012f4:	000007ff 	.word	0x000007ff
 80012f8:	fffffc01 	.word	0xfffffc01
 80012fc:	08005e54 	.word	0x08005e54
 8001300:	000003ff 	.word	0x000003ff
 8001304:	feffffff 	.word	0xfeffffff
 8001308:	000007fe 	.word	0x000007fe
 800130c:	fffffc0d 	.word	0xfffffc0d
 8001310:	4649      	mov	r1, r9
 8001312:	2301      	movs	r3, #1
 8001314:	4319      	orrs	r1, r3
 8001316:	4689      	mov	r9, r1
 8001318:	2600      	movs	r6, #0
 800131a:	2001      	movs	r0, #1
 800131c:	e667      	b.n	8000fee <__aeabi_dmul+0x86>
 800131e:	2300      	movs	r3, #0
 8001320:	2480      	movs	r4, #128	; 0x80
 8001322:	2500      	movs	r5, #0
 8001324:	4a43      	ldr	r2, [pc, #268]	; (8001434 <__aeabi_dmul+0x4cc>)
 8001326:	9301      	str	r3, [sp, #4]
 8001328:	0324      	lsls	r4, r4, #12
 800132a:	e67e      	b.n	800102a <__aeabi_dmul+0xc2>
 800132c:	2001      	movs	r0, #1
 800132e:	1a40      	subs	r0, r0, r1
 8001330:	2838      	cmp	r0, #56	; 0x38
 8001332:	dd00      	ble.n	8001336 <__aeabi_dmul+0x3ce>
 8001334:	e676      	b.n	8001024 <__aeabi_dmul+0xbc>
 8001336:	281f      	cmp	r0, #31
 8001338:	dd5b      	ble.n	80013f2 <__aeabi_dmul+0x48a>
 800133a:	221f      	movs	r2, #31
 800133c:	0023      	movs	r3, r4
 800133e:	4252      	negs	r2, r2
 8001340:	1a51      	subs	r1, r2, r1
 8001342:	40cb      	lsrs	r3, r1
 8001344:	0019      	movs	r1, r3
 8001346:	2820      	cmp	r0, #32
 8001348:	d003      	beq.n	8001352 <__aeabi_dmul+0x3ea>
 800134a:	4a3b      	ldr	r2, [pc, #236]	; (8001438 <__aeabi_dmul+0x4d0>)
 800134c:	4462      	add	r2, ip
 800134e:	4094      	lsls	r4, r2
 8001350:	4325      	orrs	r5, r4
 8001352:	1e6a      	subs	r2, r5, #1
 8001354:	4195      	sbcs	r5, r2
 8001356:	002a      	movs	r2, r5
 8001358:	430a      	orrs	r2, r1
 800135a:	2107      	movs	r1, #7
 800135c:	000d      	movs	r5, r1
 800135e:	2400      	movs	r4, #0
 8001360:	4015      	ands	r5, r2
 8001362:	4211      	tst	r1, r2
 8001364:	d05b      	beq.n	800141e <__aeabi_dmul+0x4b6>
 8001366:	210f      	movs	r1, #15
 8001368:	2400      	movs	r4, #0
 800136a:	4011      	ands	r1, r2
 800136c:	2904      	cmp	r1, #4
 800136e:	d053      	beq.n	8001418 <__aeabi_dmul+0x4b0>
 8001370:	1d11      	adds	r1, r2, #4
 8001372:	4291      	cmp	r1, r2
 8001374:	4192      	sbcs	r2, r2
 8001376:	4252      	negs	r2, r2
 8001378:	18a4      	adds	r4, r4, r2
 800137a:	000a      	movs	r2, r1
 800137c:	0223      	lsls	r3, r4, #8
 800137e:	d54b      	bpl.n	8001418 <__aeabi_dmul+0x4b0>
 8001380:	2201      	movs	r2, #1
 8001382:	2400      	movs	r4, #0
 8001384:	2500      	movs	r5, #0
 8001386:	e650      	b.n	800102a <__aeabi_dmul+0xc2>
 8001388:	2380      	movs	r3, #128	; 0x80
 800138a:	031b      	lsls	r3, r3, #12
 800138c:	421c      	tst	r4, r3
 800138e:	d009      	beq.n	80013a4 <__aeabi_dmul+0x43c>
 8001390:	421e      	tst	r6, r3
 8001392:	d107      	bne.n	80013a4 <__aeabi_dmul+0x43c>
 8001394:	4333      	orrs	r3, r6
 8001396:	031c      	lsls	r4, r3, #12
 8001398:	4643      	mov	r3, r8
 800139a:	0015      	movs	r5, r2
 800139c:	0b24      	lsrs	r4, r4, #12
 800139e:	4a25      	ldr	r2, [pc, #148]	; (8001434 <__aeabi_dmul+0x4cc>)
 80013a0:	9301      	str	r3, [sp, #4]
 80013a2:	e642      	b.n	800102a <__aeabi_dmul+0xc2>
 80013a4:	2280      	movs	r2, #128	; 0x80
 80013a6:	0312      	lsls	r2, r2, #12
 80013a8:	4314      	orrs	r4, r2
 80013aa:	0324      	lsls	r4, r4, #12
 80013ac:	4a21      	ldr	r2, [pc, #132]	; (8001434 <__aeabi_dmul+0x4cc>)
 80013ae:	0b24      	lsrs	r4, r4, #12
 80013b0:	9701      	str	r7, [sp, #4]
 80013b2:	e63a      	b.n	800102a <__aeabi_dmul+0xc2>
 80013b4:	f000 fccc 	bl	8001d50 <__clzsi2>
 80013b8:	0001      	movs	r1, r0
 80013ba:	0002      	movs	r2, r0
 80013bc:	3115      	adds	r1, #21
 80013be:	3220      	adds	r2, #32
 80013c0:	291c      	cmp	r1, #28
 80013c2:	dc00      	bgt.n	80013c6 <__aeabi_dmul+0x45e>
 80013c4:	e74b      	b.n	800125e <__aeabi_dmul+0x2f6>
 80013c6:	0034      	movs	r4, r6
 80013c8:	3808      	subs	r0, #8
 80013ca:	2500      	movs	r5, #0
 80013cc:	4084      	lsls	r4, r0
 80013ce:	e750      	b.n	8001272 <__aeabi_dmul+0x30a>
 80013d0:	f000 fcbe 	bl	8001d50 <__clzsi2>
 80013d4:	0003      	movs	r3, r0
 80013d6:	001a      	movs	r2, r3
 80013d8:	3215      	adds	r2, #21
 80013da:	3020      	adds	r0, #32
 80013dc:	2a1c      	cmp	r2, #28
 80013de:	dc00      	bgt.n	80013e2 <__aeabi_dmul+0x47a>
 80013e0:	e71e      	b.n	8001220 <__aeabi_dmul+0x2b8>
 80013e2:	4656      	mov	r6, sl
 80013e4:	3b08      	subs	r3, #8
 80013e6:	2200      	movs	r2, #0
 80013e8:	409e      	lsls	r6, r3
 80013ea:	e723      	b.n	8001234 <__aeabi_dmul+0x2cc>
 80013ec:	9b00      	ldr	r3, [sp, #0]
 80013ee:	469c      	mov	ip, r3
 80013f0:	e6e6      	b.n	80011c0 <__aeabi_dmul+0x258>
 80013f2:	4912      	ldr	r1, [pc, #72]	; (800143c <__aeabi_dmul+0x4d4>)
 80013f4:	0022      	movs	r2, r4
 80013f6:	4461      	add	r1, ip
 80013f8:	002e      	movs	r6, r5
 80013fa:	408d      	lsls	r5, r1
 80013fc:	408a      	lsls	r2, r1
 80013fe:	40c6      	lsrs	r6, r0
 8001400:	1e69      	subs	r1, r5, #1
 8001402:	418d      	sbcs	r5, r1
 8001404:	4332      	orrs	r2, r6
 8001406:	432a      	orrs	r2, r5
 8001408:	40c4      	lsrs	r4, r0
 800140a:	0753      	lsls	r3, r2, #29
 800140c:	d0b6      	beq.n	800137c <__aeabi_dmul+0x414>
 800140e:	210f      	movs	r1, #15
 8001410:	4011      	ands	r1, r2
 8001412:	2904      	cmp	r1, #4
 8001414:	d1ac      	bne.n	8001370 <__aeabi_dmul+0x408>
 8001416:	e7b1      	b.n	800137c <__aeabi_dmul+0x414>
 8001418:	0765      	lsls	r5, r4, #29
 800141a:	0264      	lsls	r4, r4, #9
 800141c:	0b24      	lsrs	r4, r4, #12
 800141e:	08d2      	lsrs	r2, r2, #3
 8001420:	4315      	orrs	r5, r2
 8001422:	2200      	movs	r2, #0
 8001424:	e601      	b.n	800102a <__aeabi_dmul+0xc2>
 8001426:	2280      	movs	r2, #128	; 0x80
 8001428:	0312      	lsls	r2, r2, #12
 800142a:	4314      	orrs	r4, r2
 800142c:	0324      	lsls	r4, r4, #12
 800142e:	4a01      	ldr	r2, [pc, #4]	; (8001434 <__aeabi_dmul+0x4cc>)
 8001430:	0b24      	lsrs	r4, r4, #12
 8001432:	e5fa      	b.n	800102a <__aeabi_dmul+0xc2>
 8001434:	000007ff 	.word	0x000007ff
 8001438:	0000043e 	.word	0x0000043e
 800143c:	0000041e 	.word	0x0000041e

08001440 <__aeabi_dsub>:
 8001440:	b5f8      	push	{r3, r4, r5, r6, r7, lr}
 8001442:	4657      	mov	r7, sl
 8001444:	464e      	mov	r6, r9
 8001446:	4645      	mov	r5, r8
 8001448:	46de      	mov	lr, fp
 800144a:	b5e0      	push	{r5, r6, r7, lr}
 800144c:	001e      	movs	r6, r3
 800144e:	0017      	movs	r7, r2
 8001450:	004a      	lsls	r2, r1, #1
 8001452:	030b      	lsls	r3, r1, #12
 8001454:	0d52      	lsrs	r2, r2, #21
 8001456:	0a5b      	lsrs	r3, r3, #9
 8001458:	4690      	mov	r8, r2
 800145a:	0f42      	lsrs	r2, r0, #29
 800145c:	431a      	orrs	r2, r3
 800145e:	0fcd      	lsrs	r5, r1, #31
 8001460:	4ccd      	ldr	r4, [pc, #820]	; (8001798 <__aeabi_dsub+0x358>)
 8001462:	0331      	lsls	r1, r6, #12
 8001464:	00c3      	lsls	r3, r0, #3
 8001466:	4694      	mov	ip, r2
 8001468:	0070      	lsls	r0, r6, #1
 800146a:	0f7a      	lsrs	r2, r7, #29
 800146c:	0a49      	lsrs	r1, r1, #9
 800146e:	00ff      	lsls	r7, r7, #3
 8001470:	469a      	mov	sl, r3
 8001472:	46b9      	mov	r9, r7
 8001474:	0d40      	lsrs	r0, r0, #21
 8001476:	0ff6      	lsrs	r6, r6, #31
 8001478:	4311      	orrs	r1, r2
 800147a:	42a0      	cmp	r0, r4
 800147c:	d100      	bne.n	8001480 <__aeabi_dsub+0x40>
 800147e:	e0b1      	b.n	80015e4 <__aeabi_dsub+0x1a4>
 8001480:	2201      	movs	r2, #1
 8001482:	4056      	eors	r6, r2
 8001484:	46b3      	mov	fp, r6
 8001486:	42b5      	cmp	r5, r6
 8001488:	d100      	bne.n	800148c <__aeabi_dsub+0x4c>
 800148a:	e088      	b.n	800159e <__aeabi_dsub+0x15e>
 800148c:	4642      	mov	r2, r8
 800148e:	1a12      	subs	r2, r2, r0
 8001490:	2a00      	cmp	r2, #0
 8001492:	dc00      	bgt.n	8001496 <__aeabi_dsub+0x56>
 8001494:	e0ae      	b.n	80015f4 <__aeabi_dsub+0x1b4>
 8001496:	2800      	cmp	r0, #0
 8001498:	d100      	bne.n	800149c <__aeabi_dsub+0x5c>
 800149a:	e0c1      	b.n	8001620 <__aeabi_dsub+0x1e0>
 800149c:	48be      	ldr	r0, [pc, #760]	; (8001798 <__aeabi_dsub+0x358>)
 800149e:	4580      	cmp	r8, r0
 80014a0:	d100      	bne.n	80014a4 <__aeabi_dsub+0x64>
 80014a2:	e151      	b.n	8001748 <__aeabi_dsub+0x308>
 80014a4:	2080      	movs	r0, #128	; 0x80
 80014a6:	0400      	lsls	r0, r0, #16
 80014a8:	4301      	orrs	r1, r0
 80014aa:	2a38      	cmp	r2, #56	; 0x38
 80014ac:	dd00      	ble.n	80014b0 <__aeabi_dsub+0x70>
 80014ae:	e17b      	b.n	80017a8 <__aeabi_dsub+0x368>
 80014b0:	2a1f      	cmp	r2, #31
 80014b2:	dd00      	ble.n	80014b6 <__aeabi_dsub+0x76>
 80014b4:	e1ee      	b.n	8001894 <__aeabi_dsub+0x454>
 80014b6:	2020      	movs	r0, #32
 80014b8:	003e      	movs	r6, r7
 80014ba:	1a80      	subs	r0, r0, r2
 80014bc:	000c      	movs	r4, r1
 80014be:	40d6      	lsrs	r6, r2
 80014c0:	40d1      	lsrs	r1, r2
 80014c2:	4087      	lsls	r7, r0
 80014c4:	4662      	mov	r2, ip
 80014c6:	4084      	lsls	r4, r0
 80014c8:	1a52      	subs	r2, r2, r1
 80014ca:	1e78      	subs	r0, r7, #1
 80014cc:	4187      	sbcs	r7, r0
 80014ce:	4694      	mov	ip, r2
 80014d0:	4334      	orrs	r4, r6
 80014d2:	4327      	orrs	r7, r4
 80014d4:	1bdc      	subs	r4, r3, r7
 80014d6:	42a3      	cmp	r3, r4
 80014d8:	419b      	sbcs	r3, r3
 80014da:	4662      	mov	r2, ip
 80014dc:	425b      	negs	r3, r3
 80014de:	1ad3      	subs	r3, r2, r3
 80014e0:	4699      	mov	r9, r3
 80014e2:	464b      	mov	r3, r9
 80014e4:	021b      	lsls	r3, r3, #8
 80014e6:	d400      	bmi.n	80014ea <__aeabi_dsub+0xaa>
 80014e8:	e118      	b.n	800171c <__aeabi_dsub+0x2dc>
 80014ea:	464b      	mov	r3, r9
 80014ec:	0258      	lsls	r0, r3, #9
 80014ee:	0a43      	lsrs	r3, r0, #9
 80014f0:	4699      	mov	r9, r3
 80014f2:	464b      	mov	r3, r9
 80014f4:	2b00      	cmp	r3, #0
 80014f6:	d100      	bne.n	80014fa <__aeabi_dsub+0xba>
 80014f8:	e137      	b.n	800176a <__aeabi_dsub+0x32a>
 80014fa:	4648      	mov	r0, r9
 80014fc:	f000 fc28 	bl	8001d50 <__clzsi2>
 8001500:	0001      	movs	r1, r0
 8001502:	3908      	subs	r1, #8
 8001504:	2320      	movs	r3, #32
 8001506:	0022      	movs	r2, r4
 8001508:	4648      	mov	r0, r9
 800150a:	1a5b      	subs	r3, r3, r1
 800150c:	40da      	lsrs	r2, r3
 800150e:	4088      	lsls	r0, r1
 8001510:	408c      	lsls	r4, r1
 8001512:	4643      	mov	r3, r8
 8001514:	4310      	orrs	r0, r2
 8001516:	4588      	cmp	r8, r1
 8001518:	dd00      	ble.n	800151c <__aeabi_dsub+0xdc>
 800151a:	e136      	b.n	800178a <__aeabi_dsub+0x34a>
 800151c:	1ac9      	subs	r1, r1, r3
 800151e:	1c4b      	adds	r3, r1, #1
 8001520:	2b1f      	cmp	r3, #31
 8001522:	dd00      	ble.n	8001526 <__aeabi_dsub+0xe6>
 8001524:	e0ea      	b.n	80016fc <__aeabi_dsub+0x2bc>
 8001526:	2220      	movs	r2, #32
 8001528:	0026      	movs	r6, r4
 800152a:	1ad2      	subs	r2, r2, r3
 800152c:	0001      	movs	r1, r0
 800152e:	4094      	lsls	r4, r2
 8001530:	40de      	lsrs	r6, r3
 8001532:	40d8      	lsrs	r0, r3
 8001534:	2300      	movs	r3, #0
 8001536:	4091      	lsls	r1, r2
 8001538:	1e62      	subs	r2, r4, #1
 800153a:	4194      	sbcs	r4, r2
 800153c:	4681      	mov	r9, r0
 800153e:	4698      	mov	r8, r3
 8001540:	4331      	orrs	r1, r6
 8001542:	430c      	orrs	r4, r1
 8001544:	0763      	lsls	r3, r4, #29
 8001546:	d009      	beq.n	800155c <__aeabi_dsub+0x11c>
 8001548:	230f      	movs	r3, #15
 800154a:	4023      	ands	r3, r4
 800154c:	2b04      	cmp	r3, #4
 800154e:	d005      	beq.n	800155c <__aeabi_dsub+0x11c>
 8001550:	1d23      	adds	r3, r4, #4
 8001552:	42a3      	cmp	r3, r4
 8001554:	41a4      	sbcs	r4, r4
 8001556:	4264      	negs	r4, r4
 8001558:	44a1      	add	r9, r4
 800155a:	001c      	movs	r4, r3
 800155c:	464b      	mov	r3, r9
 800155e:	021b      	lsls	r3, r3, #8
 8001560:	d400      	bmi.n	8001564 <__aeabi_dsub+0x124>
 8001562:	e0de      	b.n	8001722 <__aeabi_dsub+0x2e2>
 8001564:	4641      	mov	r1, r8
 8001566:	4b8c      	ldr	r3, [pc, #560]	; (8001798 <__aeabi_dsub+0x358>)
 8001568:	3101      	adds	r1, #1
 800156a:	4299      	cmp	r1, r3
 800156c:	d100      	bne.n	8001570 <__aeabi_dsub+0x130>
 800156e:	e0e7      	b.n	8001740 <__aeabi_dsub+0x300>
 8001570:	464b      	mov	r3, r9
 8001572:	488a      	ldr	r0, [pc, #552]	; (800179c <__aeabi_dsub+0x35c>)
 8001574:	08e4      	lsrs	r4, r4, #3
 8001576:	4003      	ands	r3, r0
 8001578:	0018      	movs	r0, r3
 800157a:	0549      	lsls	r1, r1, #21
 800157c:	075b      	lsls	r3, r3, #29
 800157e:	0240      	lsls	r0, r0, #9
 8001580:	4323      	orrs	r3, r4
 8001582:	0d4a      	lsrs	r2, r1, #21
 8001584:	0b04      	lsrs	r4, r0, #12
 8001586:	0512      	lsls	r2, r2, #20
 8001588:	07ed      	lsls	r5, r5, #31
 800158a:	4322      	orrs	r2, r4
 800158c:	432a      	orrs	r2, r5
 800158e:	0018      	movs	r0, r3
 8001590:	0011      	movs	r1, r2
 8001592:	bcf0      	pop	{r4, r5, r6, r7}
 8001594:	46bb      	mov	fp, r7
 8001596:	46b2      	mov	sl, r6
 8001598:	46a9      	mov	r9, r5
 800159a:	46a0      	mov	r8, r4
 800159c:	bdf8      	pop	{r3, r4, r5, r6, r7, pc}
 800159e:	4642      	mov	r2, r8
 80015a0:	1a12      	subs	r2, r2, r0
 80015a2:	2a00      	cmp	r2, #0
 80015a4:	dd52      	ble.n	800164c <__aeabi_dsub+0x20c>
 80015a6:	2800      	cmp	r0, #0
 80015a8:	d100      	bne.n	80015ac <__aeabi_dsub+0x16c>
 80015aa:	e09c      	b.n	80016e6 <__aeabi_dsub+0x2a6>
 80015ac:	45a0      	cmp	r8, r4
 80015ae:	d100      	bne.n	80015b2 <__aeabi_dsub+0x172>
 80015b0:	e0ca      	b.n	8001748 <__aeabi_dsub+0x308>
 80015b2:	2080      	movs	r0, #128	; 0x80
 80015b4:	0400      	lsls	r0, r0, #16
 80015b6:	4301      	orrs	r1, r0
 80015b8:	2a38      	cmp	r2, #56	; 0x38
 80015ba:	dd00      	ble.n	80015be <__aeabi_dsub+0x17e>
 80015bc:	e149      	b.n	8001852 <__aeabi_dsub+0x412>
 80015be:	2a1f      	cmp	r2, #31
 80015c0:	dc00      	bgt.n	80015c4 <__aeabi_dsub+0x184>
 80015c2:	e197      	b.n	80018f4 <__aeabi_dsub+0x4b4>
 80015c4:	0010      	movs	r0, r2
 80015c6:	000e      	movs	r6, r1
 80015c8:	3820      	subs	r0, #32
 80015ca:	40c6      	lsrs	r6, r0
 80015cc:	2a20      	cmp	r2, #32
 80015ce:	d004      	beq.n	80015da <__aeabi_dsub+0x19a>
 80015d0:	2040      	movs	r0, #64	; 0x40
 80015d2:	1a82      	subs	r2, r0, r2
 80015d4:	4091      	lsls	r1, r2
 80015d6:	430f      	orrs	r7, r1
 80015d8:	46b9      	mov	r9, r7
 80015da:	464c      	mov	r4, r9
 80015dc:	1e62      	subs	r2, r4, #1
 80015de:	4194      	sbcs	r4, r2
 80015e0:	4334      	orrs	r4, r6
 80015e2:	e13a      	b.n	800185a <__aeabi_dsub+0x41a>
 80015e4:	000a      	movs	r2, r1
 80015e6:	433a      	orrs	r2, r7
 80015e8:	d028      	beq.n	800163c <__aeabi_dsub+0x1fc>
 80015ea:	46b3      	mov	fp, r6
 80015ec:	42b5      	cmp	r5, r6
 80015ee:	d02b      	beq.n	8001648 <__aeabi_dsub+0x208>
 80015f0:	4a6b      	ldr	r2, [pc, #428]	; (80017a0 <__aeabi_dsub+0x360>)
 80015f2:	4442      	add	r2, r8
 80015f4:	2a00      	cmp	r2, #0
 80015f6:	d05d      	beq.n	80016b4 <__aeabi_dsub+0x274>
 80015f8:	4642      	mov	r2, r8
 80015fa:	4644      	mov	r4, r8
 80015fc:	1a82      	subs	r2, r0, r2
 80015fe:	2c00      	cmp	r4, #0
 8001600:	d000      	beq.n	8001604 <__aeabi_dsub+0x1c4>
 8001602:	e0f5      	b.n	80017f0 <__aeabi_dsub+0x3b0>
 8001604:	4665      	mov	r5, ip
 8001606:	431d      	orrs	r5, r3
 8001608:	d100      	bne.n	800160c <__aeabi_dsub+0x1cc>
 800160a:	e19c      	b.n	8001946 <__aeabi_dsub+0x506>
 800160c:	1e55      	subs	r5, r2, #1
 800160e:	2a01      	cmp	r2, #1
 8001610:	d100      	bne.n	8001614 <__aeabi_dsub+0x1d4>
 8001612:	e1fb      	b.n	8001a0c <__aeabi_dsub+0x5cc>
 8001614:	4c60      	ldr	r4, [pc, #384]	; (8001798 <__aeabi_dsub+0x358>)
 8001616:	42a2      	cmp	r2, r4
 8001618:	d100      	bne.n	800161c <__aeabi_dsub+0x1dc>
 800161a:	e1bd      	b.n	8001998 <__aeabi_dsub+0x558>
 800161c:	002a      	movs	r2, r5
 800161e:	e0f0      	b.n	8001802 <__aeabi_dsub+0x3c2>
 8001620:	0008      	movs	r0, r1
 8001622:	4338      	orrs	r0, r7
 8001624:	d100      	bne.n	8001628 <__aeabi_dsub+0x1e8>
 8001626:	e0c3      	b.n	80017b0 <__aeabi_dsub+0x370>
 8001628:	1e50      	subs	r0, r2, #1
 800162a:	2a01      	cmp	r2, #1
 800162c:	d100      	bne.n	8001630 <__aeabi_dsub+0x1f0>
 800162e:	e1a8      	b.n	8001982 <__aeabi_dsub+0x542>
 8001630:	4c59      	ldr	r4, [pc, #356]	; (8001798 <__aeabi_dsub+0x358>)
 8001632:	42a2      	cmp	r2, r4
 8001634:	d100      	bne.n	8001638 <__aeabi_dsub+0x1f8>
 8001636:	e087      	b.n	8001748 <__aeabi_dsub+0x308>
 8001638:	0002      	movs	r2, r0
 800163a:	e736      	b.n	80014aa <__aeabi_dsub+0x6a>
 800163c:	2201      	movs	r2, #1
 800163e:	4056      	eors	r6, r2
 8001640:	46b3      	mov	fp, r6
 8001642:	42b5      	cmp	r5, r6
 8001644:	d000      	beq.n	8001648 <__aeabi_dsub+0x208>
 8001646:	e721      	b.n	800148c <__aeabi_dsub+0x4c>
 8001648:	4a55      	ldr	r2, [pc, #340]	; (80017a0 <__aeabi_dsub+0x360>)
 800164a:	4442      	add	r2, r8
 800164c:	2a00      	cmp	r2, #0
 800164e:	d100      	bne.n	8001652 <__aeabi_dsub+0x212>
 8001650:	e0b5      	b.n	80017be <__aeabi_dsub+0x37e>
 8001652:	4642      	mov	r2, r8
 8001654:	4644      	mov	r4, r8
 8001656:	1a82      	subs	r2, r0, r2
 8001658:	2c00      	cmp	r4, #0
 800165a:	d100      	bne.n	800165e <__aeabi_dsub+0x21e>
 800165c:	e138      	b.n	80018d0 <__aeabi_dsub+0x490>
 800165e:	4e4e      	ldr	r6, [pc, #312]	; (8001798 <__aeabi_dsub+0x358>)
 8001660:	42b0      	cmp	r0, r6
 8001662:	d100      	bne.n	8001666 <__aeabi_dsub+0x226>
 8001664:	e1de      	b.n	8001a24 <__aeabi_dsub+0x5e4>
 8001666:	2680      	movs	r6, #128	; 0x80
 8001668:	4664      	mov	r4, ip
 800166a:	0436      	lsls	r6, r6, #16
 800166c:	4334      	orrs	r4, r6
 800166e:	46a4      	mov	ip, r4
 8001670:	2a38      	cmp	r2, #56	; 0x38
 8001672:	dd00      	ble.n	8001676 <__aeabi_dsub+0x236>
 8001674:	e196      	b.n	80019a4 <__aeabi_dsub+0x564>
 8001676:	2a1f      	cmp	r2, #31
 8001678:	dd00      	ble.n	800167c <__aeabi_dsub+0x23c>
 800167a:	e224      	b.n	8001ac6 <__aeabi_dsub+0x686>
 800167c:	2620      	movs	r6, #32
 800167e:	1ab4      	subs	r4, r6, r2
 8001680:	46a2      	mov	sl, r4
 8001682:	4664      	mov	r4, ip
 8001684:	4656      	mov	r6, sl
 8001686:	40b4      	lsls	r4, r6
 8001688:	46a1      	mov	r9, r4
 800168a:	001c      	movs	r4, r3
 800168c:	464e      	mov	r6, r9
 800168e:	40d4      	lsrs	r4, r2
 8001690:	4326      	orrs	r6, r4
 8001692:	0034      	movs	r4, r6
 8001694:	4656      	mov	r6, sl
 8001696:	40b3      	lsls	r3, r6
 8001698:	1e5e      	subs	r6, r3, #1
 800169a:	41b3      	sbcs	r3, r6
 800169c:	431c      	orrs	r4, r3
 800169e:	4663      	mov	r3, ip
 80016a0:	40d3      	lsrs	r3, r2
 80016a2:	18c9      	adds	r1, r1, r3
 80016a4:	19e4      	adds	r4, r4, r7
 80016a6:	42bc      	cmp	r4, r7
 80016a8:	41bf      	sbcs	r7, r7
 80016aa:	427f      	negs	r7, r7
 80016ac:	46b9      	mov	r9, r7
 80016ae:	4680      	mov	r8, r0
 80016b0:	4489      	add	r9, r1
 80016b2:	e0d8      	b.n	8001866 <__aeabi_dsub+0x426>
 80016b4:	4640      	mov	r0, r8
 80016b6:	4c3b      	ldr	r4, [pc, #236]	; (80017a4 <__aeabi_dsub+0x364>)
 80016b8:	3001      	adds	r0, #1
 80016ba:	4220      	tst	r0, r4
 80016bc:	d000      	beq.n	80016c0 <__aeabi_dsub+0x280>
 80016be:	e0b4      	b.n	800182a <__aeabi_dsub+0x3ea>
 80016c0:	4640      	mov	r0, r8
 80016c2:	2800      	cmp	r0, #0
 80016c4:	d000      	beq.n	80016c8 <__aeabi_dsub+0x288>
 80016c6:	e144      	b.n	8001952 <__aeabi_dsub+0x512>
 80016c8:	4660      	mov	r0, ip
 80016ca:	4318      	orrs	r0, r3
 80016cc:	d100      	bne.n	80016d0 <__aeabi_dsub+0x290>
 80016ce:	e190      	b.n	80019f2 <__aeabi_dsub+0x5b2>
 80016d0:	0008      	movs	r0, r1
 80016d2:	4338      	orrs	r0, r7
 80016d4:	d000      	beq.n	80016d8 <__aeabi_dsub+0x298>
 80016d6:	e1aa      	b.n	8001a2e <__aeabi_dsub+0x5ee>
 80016d8:	4661      	mov	r1, ip
 80016da:	08db      	lsrs	r3, r3, #3
 80016dc:	0749      	lsls	r1, r1, #29
 80016de:	430b      	orrs	r3, r1
 80016e0:	4661      	mov	r1, ip
 80016e2:	08cc      	lsrs	r4, r1, #3
 80016e4:	e027      	b.n	8001736 <__aeabi_dsub+0x2f6>
 80016e6:	0008      	movs	r0, r1
 80016e8:	4338      	orrs	r0, r7
 80016ea:	d061      	beq.n	80017b0 <__aeabi_dsub+0x370>
 80016ec:	1e50      	subs	r0, r2, #1
 80016ee:	2a01      	cmp	r2, #1
 80016f0:	d100      	bne.n	80016f4 <__aeabi_dsub+0x2b4>
 80016f2:	e139      	b.n	8001968 <__aeabi_dsub+0x528>
 80016f4:	42a2      	cmp	r2, r4
 80016f6:	d027      	beq.n	8001748 <__aeabi_dsub+0x308>
 80016f8:	0002      	movs	r2, r0
 80016fa:	e75d      	b.n	80015b8 <__aeabi_dsub+0x178>
 80016fc:	0002      	movs	r2, r0
 80016fe:	391f      	subs	r1, #31
 8001700:	40ca      	lsrs	r2, r1
 8001702:	0011      	movs	r1, r2
 8001704:	2b20      	cmp	r3, #32
 8001706:	d003      	beq.n	8001710 <__aeabi_dsub+0x2d0>
 8001708:	2240      	movs	r2, #64	; 0x40
 800170a:	1ad3      	subs	r3, r2, r3
 800170c:	4098      	lsls	r0, r3
 800170e:	4304      	orrs	r4, r0
 8001710:	1e63      	subs	r3, r4, #1
 8001712:	419c      	sbcs	r4, r3
 8001714:	2300      	movs	r3, #0
 8001716:	4699      	mov	r9, r3
 8001718:	4698      	mov	r8, r3
 800171a:	430c      	orrs	r4, r1
 800171c:	0763      	lsls	r3, r4, #29
 800171e:	d000      	beq.n	8001722 <__aeabi_dsub+0x2e2>
 8001720:	e712      	b.n	8001548 <__aeabi_dsub+0x108>
 8001722:	464b      	mov	r3, r9
 8001724:	464a      	mov	r2, r9
 8001726:	08e4      	lsrs	r4, r4, #3
 8001728:	075b      	lsls	r3, r3, #29
 800172a:	4323      	orrs	r3, r4
 800172c:	08d4      	lsrs	r4, r2, #3
 800172e:	4642      	mov	r2, r8
 8001730:	4919      	ldr	r1, [pc, #100]	; (8001798 <__aeabi_dsub+0x358>)
 8001732:	428a      	cmp	r2, r1
 8001734:	d00e      	beq.n	8001754 <__aeabi_dsub+0x314>
 8001736:	0324      	lsls	r4, r4, #12
 8001738:	0552      	lsls	r2, r2, #21
 800173a:	0b24      	lsrs	r4, r4, #12
 800173c:	0d52      	lsrs	r2, r2, #21
 800173e:	e722      	b.n	8001586 <__aeabi_dsub+0x146>
 8001740:	000a      	movs	r2, r1
 8001742:	2400      	movs	r4, #0
 8001744:	2300      	movs	r3, #0
 8001746:	e71e      	b.n	8001586 <__aeabi_dsub+0x146>
 8001748:	08db      	lsrs	r3, r3, #3
 800174a:	4662      	mov	r2, ip
 800174c:	0752      	lsls	r2, r2, #29
 800174e:	4313      	orrs	r3, r2
 8001750:	4662      	mov	r2, ip
 8001752:	08d4      	lsrs	r4, r2, #3
 8001754:	001a      	movs	r2, r3
 8001756:	4322      	orrs	r2, r4
 8001758:	d100      	bne.n	800175c <__aeabi_dsub+0x31c>
 800175a:	e1fc      	b.n	8001b56 <__aeabi_dsub+0x716>
 800175c:	2280      	movs	r2, #128	; 0x80
 800175e:	0312      	lsls	r2, r2, #12
 8001760:	4314      	orrs	r4, r2
 8001762:	0324      	lsls	r4, r4, #12
 8001764:	4a0c      	ldr	r2, [pc, #48]	; (8001798 <__aeabi_dsub+0x358>)
 8001766:	0b24      	lsrs	r4, r4, #12
 8001768:	e70d      	b.n	8001586 <__aeabi_dsub+0x146>
 800176a:	0020      	movs	r0, r4
 800176c:	f000 faf0 	bl	8001d50 <__clzsi2>
 8001770:	0001      	movs	r1, r0
 8001772:	3118      	adds	r1, #24
 8001774:	291f      	cmp	r1, #31
 8001776:	dc00      	bgt.n	800177a <__aeabi_dsub+0x33a>
 8001778:	e6c4      	b.n	8001504 <__aeabi_dsub+0xc4>
 800177a:	3808      	subs	r0, #8
 800177c:	4084      	lsls	r4, r0
 800177e:	4643      	mov	r3, r8
 8001780:	0020      	movs	r0, r4
 8001782:	2400      	movs	r4, #0
 8001784:	4588      	cmp	r8, r1
 8001786:	dc00      	bgt.n	800178a <__aeabi_dsub+0x34a>
 8001788:	e6c8      	b.n	800151c <__aeabi_dsub+0xdc>
 800178a:	4a04      	ldr	r2, [pc, #16]	; (800179c <__aeabi_dsub+0x35c>)
 800178c:	1a5b      	subs	r3, r3, r1
 800178e:	4010      	ands	r0, r2
 8001790:	4698      	mov	r8, r3
 8001792:	4681      	mov	r9, r0
 8001794:	e6d6      	b.n	8001544 <__aeabi_dsub+0x104>
 8001796:	46c0      	nop			; (mov r8, r8)
 8001798:	000007ff 	.word	0x000007ff
 800179c:	ff7fffff 	.word	0xff7fffff
 80017a0:	fffff801 	.word	0xfffff801
 80017a4:	000007fe 	.word	0x000007fe
 80017a8:	430f      	orrs	r7, r1
 80017aa:	1e7a      	subs	r2, r7, #1
 80017ac:	4197      	sbcs	r7, r2
 80017ae:	e691      	b.n	80014d4 <__aeabi_dsub+0x94>
 80017b0:	4661      	mov	r1, ip
 80017b2:	08db      	lsrs	r3, r3, #3
 80017b4:	0749      	lsls	r1, r1, #29
 80017b6:	430b      	orrs	r3, r1
 80017b8:	4661      	mov	r1, ip
 80017ba:	08cc      	lsrs	r4, r1, #3
 80017bc:	e7b8      	b.n	8001730 <__aeabi_dsub+0x2f0>
 80017be:	4640      	mov	r0, r8
 80017c0:	4cd3      	ldr	r4, [pc, #844]	; (8001b10 <__aeabi_dsub+0x6d0>)
 80017c2:	3001      	adds	r0, #1
 80017c4:	4220      	tst	r0, r4
 80017c6:	d000      	beq.n	80017ca <__aeabi_dsub+0x38a>
 80017c8:	e0a2      	b.n	8001910 <__aeabi_dsub+0x4d0>
 80017ca:	4640      	mov	r0, r8
 80017cc:	2800      	cmp	r0, #0
 80017ce:	d000      	beq.n	80017d2 <__aeabi_dsub+0x392>
 80017d0:	e101      	b.n	80019d6 <__aeabi_dsub+0x596>
 80017d2:	4660      	mov	r0, ip
 80017d4:	4318      	orrs	r0, r3
 80017d6:	d100      	bne.n	80017da <__aeabi_dsub+0x39a>
 80017d8:	e15e      	b.n	8001a98 <__aeabi_dsub+0x658>
 80017da:	0008      	movs	r0, r1
 80017dc:	4338      	orrs	r0, r7
 80017de:	d000      	beq.n	80017e2 <__aeabi_dsub+0x3a2>
 80017e0:	e15f      	b.n	8001aa2 <__aeabi_dsub+0x662>
 80017e2:	4661      	mov	r1, ip
 80017e4:	08db      	lsrs	r3, r3, #3
 80017e6:	0749      	lsls	r1, r1, #29
 80017e8:	430b      	orrs	r3, r1
 80017ea:	4661      	mov	r1, ip
 80017ec:	08cc      	lsrs	r4, r1, #3
 80017ee:	e7a2      	b.n	8001736 <__aeabi_dsub+0x2f6>
 80017f0:	4dc8      	ldr	r5, [pc, #800]	; (8001b14 <__aeabi_dsub+0x6d4>)
 80017f2:	42a8      	cmp	r0, r5
 80017f4:	d100      	bne.n	80017f8 <__aeabi_dsub+0x3b8>
 80017f6:	e0cf      	b.n	8001998 <__aeabi_dsub+0x558>
 80017f8:	2580      	movs	r5, #128	; 0x80
 80017fa:	4664      	mov	r4, ip
 80017fc:	042d      	lsls	r5, r5, #16
 80017fe:	432c      	orrs	r4, r5
 8001800:	46a4      	mov	ip, r4
 8001802:	2a38      	cmp	r2, #56	; 0x38
 8001804:	dc56      	bgt.n	80018b4 <__aeabi_dsub+0x474>
 8001806:	2a1f      	cmp	r2, #31
 8001808:	dd00      	ble.n	800180c <__aeabi_dsub+0x3cc>
 800180a:	e0d1      	b.n	80019b0 <__aeabi_dsub+0x570>
 800180c:	2520      	movs	r5, #32
 800180e:	001e      	movs	r6, r3
 8001810:	1aad      	subs	r5, r5, r2
 8001812:	4664      	mov	r4, ip
 8001814:	40ab      	lsls	r3, r5
 8001816:	40ac      	lsls	r4, r5
 8001818:	40d6      	lsrs	r6, r2
 800181a:	1e5d      	subs	r5, r3, #1
 800181c:	41ab      	sbcs	r3, r5
 800181e:	4334      	orrs	r4, r6
 8001820:	4323      	orrs	r3, r4
 8001822:	4664      	mov	r4, ip
 8001824:	40d4      	lsrs	r4, r2
 8001826:	1b09      	subs	r1, r1, r4
 8001828:	e049      	b.n	80018be <__aeabi_dsub+0x47e>
 800182a:	4660      	mov	r0, ip
 800182c:	1bdc      	subs	r4, r3, r7
 800182e:	1a46      	subs	r6, r0, r1
 8001830:	42a3      	cmp	r3, r4
 8001832:	4180      	sbcs	r0, r0
 8001834:	4240      	negs	r0, r0
 8001836:	4681      	mov	r9, r0
 8001838:	0030      	movs	r0, r6
 800183a:	464e      	mov	r6, r9
 800183c:	1b80      	subs	r0, r0, r6
 800183e:	4681      	mov	r9, r0
 8001840:	0200      	lsls	r0, r0, #8
 8001842:	d476      	bmi.n	8001932 <__aeabi_dsub+0x4f2>
 8001844:	464b      	mov	r3, r9
 8001846:	4323      	orrs	r3, r4
 8001848:	d000      	beq.n	800184c <__aeabi_dsub+0x40c>
 800184a:	e652      	b.n	80014f2 <__aeabi_dsub+0xb2>
 800184c:	2400      	movs	r4, #0
 800184e:	2500      	movs	r5, #0
 8001850:	e771      	b.n	8001736 <__aeabi_dsub+0x2f6>
 8001852:	4339      	orrs	r1, r7
 8001854:	000c      	movs	r4, r1
 8001856:	1e62      	subs	r2, r4, #1
 8001858:	4194      	sbcs	r4, r2
 800185a:	18e4      	adds	r4, r4, r3
 800185c:	429c      	cmp	r4, r3
 800185e:	419b      	sbcs	r3, r3
 8001860:	425b      	negs	r3, r3
 8001862:	4463      	add	r3, ip
 8001864:	4699      	mov	r9, r3
 8001866:	464b      	mov	r3, r9
 8001868:	021b      	lsls	r3, r3, #8
 800186a:	d400      	bmi.n	800186e <__aeabi_dsub+0x42e>
 800186c:	e756      	b.n	800171c <__aeabi_dsub+0x2dc>
 800186e:	2301      	movs	r3, #1
 8001870:	469c      	mov	ip, r3
 8001872:	4ba8      	ldr	r3, [pc, #672]	; (8001b14 <__aeabi_dsub+0x6d4>)
 8001874:	44e0      	add	r8, ip
 8001876:	4598      	cmp	r8, r3
 8001878:	d038      	beq.n	80018ec <__aeabi_dsub+0x4ac>
 800187a:	464b      	mov	r3, r9
 800187c:	48a6      	ldr	r0, [pc, #664]	; (8001b18 <__aeabi_dsub+0x6d8>)
 800187e:	2201      	movs	r2, #1
 8001880:	4003      	ands	r3, r0
 8001882:	0018      	movs	r0, r3
 8001884:	0863      	lsrs	r3, r4, #1
 8001886:	4014      	ands	r4, r2
 8001888:	431c      	orrs	r4, r3
 800188a:	07c3      	lsls	r3, r0, #31
 800188c:	431c      	orrs	r4, r3
 800188e:	0843      	lsrs	r3, r0, #1
 8001890:	4699      	mov	r9, r3
 8001892:	e657      	b.n	8001544 <__aeabi_dsub+0x104>
 8001894:	0010      	movs	r0, r2
 8001896:	000e      	movs	r6, r1
 8001898:	3820      	subs	r0, #32
 800189a:	40c6      	lsrs	r6, r0
 800189c:	2a20      	cmp	r2, #32
 800189e:	d004      	beq.n	80018aa <__aeabi_dsub+0x46a>
 80018a0:	2040      	movs	r0, #64	; 0x40
 80018a2:	1a82      	subs	r2, r0, r2
 80018a4:	4091      	lsls	r1, r2
 80018a6:	430f      	orrs	r7, r1
 80018a8:	46b9      	mov	r9, r7
 80018aa:	464f      	mov	r7, r9
 80018ac:	1e7a      	subs	r2, r7, #1
 80018ae:	4197      	sbcs	r7, r2
 80018b0:	4337      	orrs	r7, r6
 80018b2:	e60f      	b.n	80014d4 <__aeabi_dsub+0x94>
 80018b4:	4662      	mov	r2, ip
 80018b6:	431a      	orrs	r2, r3
 80018b8:	0013      	movs	r3, r2
 80018ba:	1e5a      	subs	r2, r3, #1
 80018bc:	4193      	sbcs	r3, r2
 80018be:	1afc      	subs	r4, r7, r3
 80018c0:	42a7      	cmp	r7, r4
 80018c2:	41bf      	sbcs	r7, r7
 80018c4:	427f      	negs	r7, r7
 80018c6:	1bcb      	subs	r3, r1, r7
 80018c8:	4699      	mov	r9, r3
 80018ca:	465d      	mov	r5, fp
 80018cc:	4680      	mov	r8, r0
 80018ce:	e608      	b.n	80014e2 <__aeabi_dsub+0xa2>
 80018d0:	4666      	mov	r6, ip
 80018d2:	431e      	orrs	r6, r3
 80018d4:	d100      	bne.n	80018d8 <__aeabi_dsub+0x498>
 80018d6:	e0be      	b.n	8001a56 <__aeabi_dsub+0x616>
 80018d8:	1e56      	subs	r6, r2, #1
 80018da:	2a01      	cmp	r2, #1
 80018dc:	d100      	bne.n	80018e0 <__aeabi_dsub+0x4a0>
 80018de:	e109      	b.n	8001af4 <__aeabi_dsub+0x6b4>
 80018e0:	4c8c      	ldr	r4, [pc, #560]	; (8001b14 <__aeabi_dsub+0x6d4>)
 80018e2:	42a2      	cmp	r2, r4
 80018e4:	d100      	bne.n	80018e8 <__aeabi_dsub+0x4a8>
 80018e6:	e119      	b.n	8001b1c <__aeabi_dsub+0x6dc>
 80018e8:	0032      	movs	r2, r6
 80018ea:	e6c1      	b.n	8001670 <__aeabi_dsub+0x230>
 80018ec:	4642      	mov	r2, r8
 80018ee:	2400      	movs	r4, #0
 80018f0:	2300      	movs	r3, #0
 80018f2:	e648      	b.n	8001586 <__aeabi_dsub+0x146>
 80018f4:	2020      	movs	r0, #32
 80018f6:	000c      	movs	r4, r1
 80018f8:	1a80      	subs	r0, r0, r2
 80018fa:	003e      	movs	r6, r7
 80018fc:	4087      	lsls	r7, r0
 80018fe:	4084      	lsls	r4, r0
 8001900:	40d6      	lsrs	r6, r2
 8001902:	1e78      	subs	r0, r7, #1
 8001904:	4187      	sbcs	r7, r0
 8001906:	40d1      	lsrs	r1, r2
 8001908:	4334      	orrs	r4, r6
 800190a:	433c      	orrs	r4, r7
 800190c:	448c      	add	ip, r1
 800190e:	e7a4      	b.n	800185a <__aeabi_dsub+0x41a>
 8001910:	4a80      	ldr	r2, [pc, #512]	; (8001b14 <__aeabi_dsub+0x6d4>)
 8001912:	4290      	cmp	r0, r2
 8001914:	d100      	bne.n	8001918 <__aeabi_dsub+0x4d8>
 8001916:	e0e9      	b.n	8001aec <__aeabi_dsub+0x6ac>
 8001918:	19df      	adds	r7, r3, r7
 800191a:	429f      	cmp	r7, r3
 800191c:	419b      	sbcs	r3, r3
 800191e:	4461      	add	r1, ip
 8001920:	425b      	negs	r3, r3
 8001922:	18c9      	adds	r1, r1, r3
 8001924:	07cc      	lsls	r4, r1, #31
 8001926:	087f      	lsrs	r7, r7, #1
 8001928:	084b      	lsrs	r3, r1, #1
 800192a:	4699      	mov	r9, r3
 800192c:	4680      	mov	r8, r0
 800192e:	433c      	orrs	r4, r7
 8001930:	e6f4      	b.n	800171c <__aeabi_dsub+0x2dc>
 8001932:	1afc      	subs	r4, r7, r3
 8001934:	42a7      	cmp	r7, r4
 8001936:	41bf      	sbcs	r7, r7
 8001938:	4663      	mov	r3, ip
 800193a:	427f      	negs	r7, r7
 800193c:	1ac9      	subs	r1, r1, r3
 800193e:	1bcb      	subs	r3, r1, r7
 8001940:	4699      	mov	r9, r3
 8001942:	465d      	mov	r5, fp
 8001944:	e5d5      	b.n	80014f2 <__aeabi_dsub+0xb2>
 8001946:	08ff      	lsrs	r7, r7, #3
 8001948:	074b      	lsls	r3, r1, #29
 800194a:	465d      	mov	r5, fp
 800194c:	433b      	orrs	r3, r7
 800194e:	08cc      	lsrs	r4, r1, #3
 8001950:	e6ee      	b.n	8001730 <__aeabi_dsub+0x2f0>
 8001952:	4662      	mov	r2, ip
 8001954:	431a      	orrs	r2, r3
 8001956:	d000      	beq.n	800195a <__aeabi_dsub+0x51a>
 8001958:	e082      	b.n	8001a60 <__aeabi_dsub+0x620>
 800195a:	000b      	movs	r3, r1
 800195c:	433b      	orrs	r3, r7
 800195e:	d11b      	bne.n	8001998 <__aeabi_dsub+0x558>
 8001960:	2480      	movs	r4, #128	; 0x80
 8001962:	2500      	movs	r5, #0
 8001964:	0324      	lsls	r4, r4, #12
 8001966:	e6f9      	b.n	800175c <__aeabi_dsub+0x31c>
 8001968:	19dc      	adds	r4, r3, r7
 800196a:	429c      	cmp	r4, r3
 800196c:	419b      	sbcs	r3, r3
 800196e:	4461      	add	r1, ip
 8001970:	4689      	mov	r9, r1
 8001972:	425b      	negs	r3, r3
 8001974:	4499      	add	r9, r3
 8001976:	464b      	mov	r3, r9
 8001978:	021b      	lsls	r3, r3, #8
 800197a:	d444      	bmi.n	8001a06 <__aeabi_dsub+0x5c6>
 800197c:	2301      	movs	r3, #1
 800197e:	4698      	mov	r8, r3
 8001980:	e6cc      	b.n	800171c <__aeabi_dsub+0x2dc>
 8001982:	1bdc      	subs	r4, r3, r7
 8001984:	4662      	mov	r2, ip
 8001986:	42a3      	cmp	r3, r4
 8001988:	419b      	sbcs	r3, r3
 800198a:	1a51      	subs	r1, r2, r1
 800198c:	425b      	negs	r3, r3
 800198e:	1acb      	subs	r3, r1, r3
 8001990:	4699      	mov	r9, r3
 8001992:	2301      	movs	r3, #1
 8001994:	4698      	mov	r8, r3
 8001996:	e5a4      	b.n	80014e2 <__aeabi_dsub+0xa2>
 8001998:	08ff      	lsrs	r7, r7, #3
 800199a:	074b      	lsls	r3, r1, #29
 800199c:	465d      	mov	r5, fp
 800199e:	433b      	orrs	r3, r7
 80019a0:	08cc      	lsrs	r4, r1, #3
 80019a2:	e6d7      	b.n	8001754 <__aeabi_dsub+0x314>
 80019a4:	4662      	mov	r2, ip
 80019a6:	431a      	orrs	r2, r3
 80019a8:	0014      	movs	r4, r2
 80019aa:	1e63      	subs	r3, r4, #1
 80019ac:	419c      	sbcs	r4, r3
 80019ae:	e679      	b.n	80016a4 <__aeabi_dsub+0x264>
 80019b0:	0015      	movs	r5, r2
 80019b2:	4664      	mov	r4, ip
 80019b4:	3d20      	subs	r5, #32
 80019b6:	40ec      	lsrs	r4, r5
 80019b8:	46a0      	mov	r8, r4
 80019ba:	2a20      	cmp	r2, #32
 80019bc:	d005      	beq.n	80019ca <__aeabi_dsub+0x58a>
 80019be:	2540      	movs	r5, #64	; 0x40
 80019c0:	4664      	mov	r4, ip
 80019c2:	1aaa      	subs	r2, r5, r2
 80019c4:	4094      	lsls	r4, r2
 80019c6:	4323      	orrs	r3, r4
 80019c8:	469a      	mov	sl, r3
 80019ca:	4654      	mov	r4, sl
 80019cc:	1e63      	subs	r3, r4, #1
 80019ce:	419c      	sbcs	r4, r3
 80019d0:	4643      	mov	r3, r8
 80019d2:	4323      	orrs	r3, r4
 80019d4:	e773      	b.n	80018be <__aeabi_dsub+0x47e>
 80019d6:	4662      	mov	r2, ip
 80019d8:	431a      	orrs	r2, r3
 80019da:	d023      	beq.n	8001a24 <__aeabi_dsub+0x5e4>
 80019dc:	000a      	movs	r2, r1
 80019de:	433a      	orrs	r2, r7
 80019e0:	d000      	beq.n	80019e4 <__aeabi_dsub+0x5a4>
 80019e2:	e0a0      	b.n	8001b26 <__aeabi_dsub+0x6e6>
 80019e4:	4662      	mov	r2, ip
 80019e6:	08db      	lsrs	r3, r3, #3
 80019e8:	0752      	lsls	r2, r2, #29
 80019ea:	4313      	orrs	r3, r2
 80019ec:	4662      	mov	r2, ip
 80019ee:	08d4      	lsrs	r4, r2, #3
 80019f0:	e6b0      	b.n	8001754 <__aeabi_dsub+0x314>
 80019f2:	000b      	movs	r3, r1
 80019f4:	433b      	orrs	r3, r7
 80019f6:	d100      	bne.n	80019fa <__aeabi_dsub+0x5ba>
 80019f8:	e728      	b.n	800184c <__aeabi_dsub+0x40c>
 80019fa:	08ff      	lsrs	r7, r7, #3
 80019fc:	074b      	lsls	r3, r1, #29
 80019fe:	465d      	mov	r5, fp
 8001a00:	433b      	orrs	r3, r7
 8001a02:	08cc      	lsrs	r4, r1, #3
 8001a04:	e697      	b.n	8001736 <__aeabi_dsub+0x2f6>
 8001a06:	2302      	movs	r3, #2
 8001a08:	4698      	mov	r8, r3
 8001a0a:	e736      	b.n	800187a <__aeabi_dsub+0x43a>
 8001a0c:	1afc      	subs	r4, r7, r3
 8001a0e:	42a7      	cmp	r7, r4
 8001a10:	41bf      	sbcs	r7, r7
 8001a12:	4663      	mov	r3, ip
 8001a14:	427f      	negs	r7, r7
 8001a16:	1ac9      	subs	r1, r1, r3
 8001a18:	1bcb      	subs	r3, r1, r7
 8001a1a:	4699      	mov	r9, r3
 8001a1c:	2301      	movs	r3, #1
 8001a1e:	465d      	mov	r5, fp
 8001a20:	4698      	mov	r8, r3
 8001a22:	e55e      	b.n	80014e2 <__aeabi_dsub+0xa2>
 8001a24:	074b      	lsls	r3, r1, #29
 8001a26:	08ff      	lsrs	r7, r7, #3
 8001a28:	433b      	orrs	r3, r7
 8001a2a:	08cc      	lsrs	r4, r1, #3
 8001a2c:	e692      	b.n	8001754 <__aeabi_dsub+0x314>
 8001a2e:	1bdc      	subs	r4, r3, r7
 8001a30:	4660      	mov	r0, ip
 8001a32:	42a3      	cmp	r3, r4
 8001a34:	41b6      	sbcs	r6, r6
 8001a36:	1a40      	subs	r0, r0, r1
 8001a38:	4276      	negs	r6, r6
 8001a3a:	1b80      	subs	r0, r0, r6
 8001a3c:	4681      	mov	r9, r0
 8001a3e:	0200      	lsls	r0, r0, #8
 8001a40:	d560      	bpl.n	8001b04 <__aeabi_dsub+0x6c4>
 8001a42:	1afc      	subs	r4, r7, r3
 8001a44:	42a7      	cmp	r7, r4
 8001a46:	41bf      	sbcs	r7, r7
 8001a48:	4663      	mov	r3, ip
 8001a4a:	427f      	negs	r7, r7
 8001a4c:	1ac9      	subs	r1, r1, r3
 8001a4e:	1bcb      	subs	r3, r1, r7
 8001a50:	4699      	mov	r9, r3
 8001a52:	465d      	mov	r5, fp
 8001a54:	e576      	b.n	8001544 <__aeabi_dsub+0x104>
 8001a56:	08ff      	lsrs	r7, r7, #3
 8001a58:	074b      	lsls	r3, r1, #29
 8001a5a:	433b      	orrs	r3, r7
 8001a5c:	08cc      	lsrs	r4, r1, #3
 8001a5e:	e667      	b.n	8001730 <__aeabi_dsub+0x2f0>
 8001a60:	000a      	movs	r2, r1
 8001a62:	08db      	lsrs	r3, r3, #3
 8001a64:	433a      	orrs	r2, r7
 8001a66:	d100      	bne.n	8001a6a <__aeabi_dsub+0x62a>
 8001a68:	e66f      	b.n	800174a <__aeabi_dsub+0x30a>
 8001a6a:	4662      	mov	r2, ip
 8001a6c:	0752      	lsls	r2, r2, #29
 8001a6e:	4313      	orrs	r3, r2
 8001a70:	4662      	mov	r2, ip
 8001a72:	08d4      	lsrs	r4, r2, #3
 8001a74:	2280      	movs	r2, #128	; 0x80
 8001a76:	0312      	lsls	r2, r2, #12
 8001a78:	4214      	tst	r4, r2
 8001a7a:	d007      	beq.n	8001a8c <__aeabi_dsub+0x64c>
 8001a7c:	08c8      	lsrs	r0, r1, #3
 8001a7e:	4210      	tst	r0, r2
 8001a80:	d104      	bne.n	8001a8c <__aeabi_dsub+0x64c>
 8001a82:	465d      	mov	r5, fp
 8001a84:	0004      	movs	r4, r0
 8001a86:	08fb      	lsrs	r3, r7, #3
 8001a88:	0749      	lsls	r1, r1, #29
 8001a8a:	430b      	orrs	r3, r1
 8001a8c:	0f5a      	lsrs	r2, r3, #29
 8001a8e:	00db      	lsls	r3, r3, #3
 8001a90:	08db      	lsrs	r3, r3, #3
 8001a92:	0752      	lsls	r2, r2, #29
 8001a94:	4313      	orrs	r3, r2
 8001a96:	e65d      	b.n	8001754 <__aeabi_dsub+0x314>
 8001a98:	074b      	lsls	r3, r1, #29
 8001a9a:	08ff      	lsrs	r7, r7, #3
 8001a9c:	433b      	orrs	r3, r7
 8001a9e:	08cc      	lsrs	r4, r1, #3
 8001aa0:	e649      	b.n	8001736 <__aeabi_dsub+0x2f6>
 8001aa2:	19dc      	adds	r4, r3, r7
 8001aa4:	429c      	cmp	r4, r3
 8001aa6:	419b      	sbcs	r3, r3
 8001aa8:	4461      	add	r1, ip
 8001aaa:	4689      	mov	r9, r1
 8001aac:	425b      	negs	r3, r3
 8001aae:	4499      	add	r9, r3
 8001ab0:	464b      	mov	r3, r9
 8001ab2:	021b      	lsls	r3, r3, #8
 8001ab4:	d400      	bmi.n	8001ab8 <__aeabi_dsub+0x678>
 8001ab6:	e631      	b.n	800171c <__aeabi_dsub+0x2dc>
 8001ab8:	464a      	mov	r2, r9
 8001aba:	4b17      	ldr	r3, [pc, #92]	; (8001b18 <__aeabi_dsub+0x6d8>)
 8001abc:	401a      	ands	r2, r3
 8001abe:	2301      	movs	r3, #1
 8001ac0:	4691      	mov	r9, r2
 8001ac2:	4698      	mov	r8, r3
 8001ac4:	e62a      	b.n	800171c <__aeabi_dsub+0x2dc>
 8001ac6:	0016      	movs	r6, r2
 8001ac8:	4664      	mov	r4, ip
 8001aca:	3e20      	subs	r6, #32
 8001acc:	40f4      	lsrs	r4, r6
 8001ace:	46a0      	mov	r8, r4
 8001ad0:	2a20      	cmp	r2, #32
 8001ad2:	d005      	beq.n	8001ae0 <__aeabi_dsub+0x6a0>
 8001ad4:	2640      	movs	r6, #64	; 0x40
 8001ad6:	4664      	mov	r4, ip
 8001ad8:	1ab2      	subs	r2, r6, r2
 8001ada:	4094      	lsls	r4, r2
 8001adc:	4323      	orrs	r3, r4
 8001ade:	469a      	mov	sl, r3
 8001ae0:	4654      	mov	r4, sl
 8001ae2:	1e63      	subs	r3, r4, #1
 8001ae4:	419c      	sbcs	r4, r3
 8001ae6:	4643      	mov	r3, r8
 8001ae8:	431c      	orrs	r4, r3
 8001aea:	e5db      	b.n	80016a4 <__aeabi_dsub+0x264>
 8001aec:	0002      	movs	r2, r0
 8001aee:	2400      	movs	r4, #0
 8001af0:	2300      	movs	r3, #0
 8001af2:	e548      	b.n	8001586 <__aeabi_dsub+0x146>
 8001af4:	19dc      	adds	r4, r3, r7
 8001af6:	42bc      	cmp	r4, r7
 8001af8:	41bf      	sbcs	r7, r7
 8001afa:	4461      	add	r1, ip
 8001afc:	4689      	mov	r9, r1
 8001afe:	427f      	negs	r7, r7
 8001b00:	44b9      	add	r9, r7
 8001b02:	e738      	b.n	8001976 <__aeabi_dsub+0x536>
 8001b04:	464b      	mov	r3, r9
 8001b06:	4323      	orrs	r3, r4
 8001b08:	d100      	bne.n	8001b0c <__aeabi_dsub+0x6cc>
 8001b0a:	e69f      	b.n	800184c <__aeabi_dsub+0x40c>
 8001b0c:	e606      	b.n	800171c <__aeabi_dsub+0x2dc>
 8001b0e:	46c0      	nop			; (mov r8, r8)
 8001b10:	000007fe 	.word	0x000007fe
 8001b14:	000007ff 	.word	0x000007ff
 8001b18:	ff7fffff 	.word	0xff7fffff
 8001b1c:	08ff      	lsrs	r7, r7, #3
 8001b1e:	074b      	lsls	r3, r1, #29
 8001b20:	433b      	orrs	r3, r7
 8001b22:	08cc      	lsrs	r4, r1, #3
 8001b24:	e616      	b.n	8001754 <__aeabi_dsub+0x314>
 8001b26:	4662      	mov	r2, ip
 8001b28:	08db      	lsrs	r3, r3, #3
 8001b2a:	0752      	lsls	r2, r2, #29
 8001b2c:	4313      	orrs	r3, r2
 8001b2e:	4662      	mov	r2, ip
 8001b30:	08d4      	lsrs	r4, r2, #3
 8001b32:	2280      	movs	r2, #128	; 0x80
 8001b34:	0312      	lsls	r2, r2, #12
 8001b36:	4214      	tst	r4, r2
 8001b38:	d007      	beq.n	8001b4a <__aeabi_dsub+0x70a>
 8001b3a:	08c8      	lsrs	r0, r1, #3
 8001b3c:	4210      	tst	r0, r2
 8001b3e:	d104      	bne.n	8001b4a <__aeabi_dsub+0x70a>
 8001b40:	465d      	mov	r5, fp
 8001b42:	0004      	movs	r4, r0
 8001b44:	08fb      	lsrs	r3, r7, #3
 8001b46:	0749      	lsls	r1, r1, #29
 8001b48:	430b      	orrs	r3, r1
 8001b4a:	0f5a      	lsrs	r2, r3, #29
 8001b4c:	00db      	lsls	r3, r3, #3
 8001b4e:	0752      	lsls	r2, r2, #29
 8001b50:	08db      	lsrs	r3, r3, #3
 8001b52:	4313      	orrs	r3, r2
 8001b54:	e5fe      	b.n	8001754 <__aeabi_dsub+0x314>
 8001b56:	2300      	movs	r3, #0
 8001b58:	4a01      	ldr	r2, [pc, #4]	; (8001b60 <__aeabi_dsub+0x720>)
 8001b5a:	001c      	movs	r4, r3
 8001b5c:	e513      	b.n	8001586 <__aeabi_dsub+0x146>
 8001b5e:	46c0      	nop			; (mov r8, r8)
 8001b60:	000007ff 	.word	0x000007ff

08001b64 <__aeabi_d2iz>:
 8001b64:	000a      	movs	r2, r1
 8001b66:	b530      	push	{r4, r5, lr}
 8001b68:	4c13      	ldr	r4, [pc, #76]	; (8001bb8 <__aeabi_d2iz+0x54>)
 8001b6a:	0053      	lsls	r3, r2, #1
 8001b6c:	0309      	lsls	r1, r1, #12
 8001b6e:	0005      	movs	r5, r0
 8001b70:	0b09      	lsrs	r1, r1, #12
 8001b72:	2000      	movs	r0, #0
 8001b74:	0d5b      	lsrs	r3, r3, #21
 8001b76:	0fd2      	lsrs	r2, r2, #31
 8001b78:	42a3      	cmp	r3, r4
 8001b7a:	dd04      	ble.n	8001b86 <__aeabi_d2iz+0x22>
 8001b7c:	480f      	ldr	r0, [pc, #60]	; (8001bbc <__aeabi_d2iz+0x58>)
 8001b7e:	4283      	cmp	r3, r0
 8001b80:	dd02      	ble.n	8001b88 <__aeabi_d2iz+0x24>
 8001b82:	4b0f      	ldr	r3, [pc, #60]	; (8001bc0 <__aeabi_d2iz+0x5c>)
 8001b84:	18d0      	adds	r0, r2, r3
 8001b86:	bd30      	pop	{r4, r5, pc}
 8001b88:	2080      	movs	r0, #128	; 0x80
 8001b8a:	0340      	lsls	r0, r0, #13
 8001b8c:	4301      	orrs	r1, r0
 8001b8e:	480d      	ldr	r0, [pc, #52]	; (8001bc4 <__aeabi_d2iz+0x60>)
 8001b90:	1ac0      	subs	r0, r0, r3
 8001b92:	281f      	cmp	r0, #31
 8001b94:	dd08      	ble.n	8001ba8 <__aeabi_d2iz+0x44>
 8001b96:	480c      	ldr	r0, [pc, #48]	; (8001bc8 <__aeabi_d2iz+0x64>)
 8001b98:	1ac3      	subs	r3, r0, r3
 8001b9a:	40d9      	lsrs	r1, r3
 8001b9c:	000b      	movs	r3, r1
 8001b9e:	4258      	negs	r0, r3
 8001ba0:	2a00      	cmp	r2, #0
 8001ba2:	d1f0      	bne.n	8001b86 <__aeabi_d2iz+0x22>
 8001ba4:	0018      	movs	r0, r3
 8001ba6:	e7ee      	b.n	8001b86 <__aeabi_d2iz+0x22>
 8001ba8:	4c08      	ldr	r4, [pc, #32]	; (8001bcc <__aeabi_d2iz+0x68>)
 8001baa:	40c5      	lsrs	r5, r0
 8001bac:	46a4      	mov	ip, r4
 8001bae:	4463      	add	r3, ip
 8001bb0:	4099      	lsls	r1, r3
 8001bb2:	000b      	movs	r3, r1
 8001bb4:	432b      	orrs	r3, r5
 8001bb6:	e7f2      	b.n	8001b9e <__aeabi_d2iz+0x3a>
 8001bb8:	000003fe 	.word	0x000003fe
 8001bbc:	0000041d 	.word	0x0000041d
 8001bc0:	7fffffff 	.word	0x7fffffff
 8001bc4:	00000433 	.word	0x00000433
 8001bc8:	00000413 	.word	0x00000413
 8001bcc:	fffffbed 	.word	0xfffffbed

08001bd0 <__aeabi_f2d>:
 8001bd0:	b570      	push	{r4, r5, r6, lr}
 8001bd2:	0043      	lsls	r3, r0, #1
 8001bd4:	0246      	lsls	r6, r0, #9
 8001bd6:	0fc4      	lsrs	r4, r0, #31
 8001bd8:	20fe      	movs	r0, #254	; 0xfe
 8001bda:	0e1b      	lsrs	r3, r3, #24
 8001bdc:	1c59      	adds	r1, r3, #1
 8001bde:	0a75      	lsrs	r5, r6, #9
 8001be0:	4208      	tst	r0, r1
 8001be2:	d00c      	beq.n	8001bfe <__aeabi_f2d+0x2e>
 8001be4:	22e0      	movs	r2, #224	; 0xe0
 8001be6:	0092      	lsls	r2, r2, #2
 8001be8:	4694      	mov	ip, r2
 8001bea:	076d      	lsls	r5, r5, #29
 8001bec:	0b36      	lsrs	r6, r6, #12
 8001bee:	4463      	add	r3, ip
 8001bf0:	051b      	lsls	r3, r3, #20
 8001bf2:	4333      	orrs	r3, r6
 8001bf4:	07e4      	lsls	r4, r4, #31
 8001bf6:	4323      	orrs	r3, r4
 8001bf8:	0028      	movs	r0, r5
 8001bfa:	0019      	movs	r1, r3
 8001bfc:	bd70      	pop	{r4, r5, r6, pc}
 8001bfe:	2b00      	cmp	r3, #0
 8001c00:	d114      	bne.n	8001c2c <__aeabi_f2d+0x5c>
 8001c02:	2d00      	cmp	r5, #0
 8001c04:	d01b      	beq.n	8001c3e <__aeabi_f2d+0x6e>
 8001c06:	0028      	movs	r0, r5
 8001c08:	f000 f8a2 	bl	8001d50 <__clzsi2>
 8001c0c:	280a      	cmp	r0, #10
 8001c0e:	dc1c      	bgt.n	8001c4a <__aeabi_f2d+0x7a>
 8001c10:	230b      	movs	r3, #11
 8001c12:	002e      	movs	r6, r5
 8001c14:	1a1b      	subs	r3, r3, r0
 8001c16:	40de      	lsrs	r6, r3
 8001c18:	0003      	movs	r3, r0
 8001c1a:	3315      	adds	r3, #21
 8001c1c:	409d      	lsls	r5, r3
 8001c1e:	4a0e      	ldr	r2, [pc, #56]	; (8001c58 <__aeabi_f2d+0x88>)
 8001c20:	0336      	lsls	r6, r6, #12
 8001c22:	1a12      	subs	r2, r2, r0
 8001c24:	0552      	lsls	r2, r2, #21
 8001c26:	0b36      	lsrs	r6, r6, #12
 8001c28:	0d53      	lsrs	r3, r2, #21
 8001c2a:	e7e1      	b.n	8001bf0 <__aeabi_f2d+0x20>
 8001c2c:	2d00      	cmp	r5, #0
 8001c2e:	d009      	beq.n	8001c44 <__aeabi_f2d+0x74>
 8001c30:	2280      	movs	r2, #128	; 0x80
 8001c32:	0b36      	lsrs	r6, r6, #12
 8001c34:	0312      	lsls	r2, r2, #12
 8001c36:	4b09      	ldr	r3, [pc, #36]	; (8001c5c <__aeabi_f2d+0x8c>)
 8001c38:	076d      	lsls	r5, r5, #29
 8001c3a:	4316      	orrs	r6, r2
 8001c3c:	e7d8      	b.n	8001bf0 <__aeabi_f2d+0x20>
 8001c3e:	2300      	movs	r3, #0
 8001c40:	2600      	movs	r6, #0
 8001c42:	e7d5      	b.n	8001bf0 <__aeabi_f2d+0x20>
 8001c44:	2600      	movs	r6, #0
 8001c46:	4b05      	ldr	r3, [pc, #20]	; (8001c5c <__aeabi_f2d+0x8c>)
 8001c48:	e7d2      	b.n	8001bf0 <__aeabi_f2d+0x20>
 8001c4a:	0003      	movs	r3, r0
 8001c4c:	3b0b      	subs	r3, #11
 8001c4e:	409d      	lsls	r5, r3
 8001c50:	002e      	movs	r6, r5
 8001c52:	2500      	movs	r5, #0
 8001c54:	e7e3      	b.n	8001c1e <__aeabi_f2d+0x4e>
 8001c56:	46c0      	nop			; (mov r8, r8)
 8001c58:	00000389 	.word	0x00000389
 8001c5c:	000007ff 	.word	0x000007ff

08001c60 <__aeabi_cdrcmple>:
 8001c60:	4684      	mov	ip, r0
 8001c62:	0010      	movs	r0, r2
 8001c64:	4662      	mov	r2, ip
 8001c66:	468c      	mov	ip, r1
 8001c68:	0019      	movs	r1, r3
 8001c6a:	4663      	mov	r3, ip
 8001c6c:	e000      	b.n	8001c70 <__aeabi_cdcmpeq>
 8001c6e:	46c0      	nop			; (mov r8, r8)

08001c70 <__aeabi_cdcmpeq>:
 8001c70:	b51f      	push	{r0, r1, r2, r3, r4, lr}
 8001c72:	f000 f9ef 	bl	8002054 <__ledf2>
 8001c76:	2800      	cmp	r0, #0
 8001c78:	d401      	bmi.n	8001c7e <__aeabi_cdcmpeq+0xe>
 8001c7a:	2100      	movs	r1, #0
 8001c7c:	42c8      	cmn	r0, r1
 8001c7e:	bd1f      	pop	{r0, r1, r2, r3, r4, pc}

08001c80 <__aeabi_dcmpeq>:
 8001c80:	b510      	push	{r4, lr}
 8001c82:	f000 f93f 	bl	8001f04 <__eqdf2>
 8001c86:	4240      	negs	r0, r0
 8001c88:	3001      	adds	r0, #1
 8001c8a:	bd10      	pop	{r4, pc}

08001c8c <__aeabi_dcmplt>:
 8001c8c:	b510      	push	{r4, lr}
 8001c8e:	f000 f9e1 	bl	8002054 <__ledf2>
 8001c92:	2800      	cmp	r0, #0
 8001c94:	db01      	blt.n	8001c9a <__aeabi_dcmplt+0xe>
 8001c96:	2000      	movs	r0, #0
 8001c98:	bd10      	pop	{r4, pc}
 8001c9a:	2001      	movs	r0, #1
 8001c9c:	bd10      	pop	{r4, pc}
 8001c9e:	46c0      	nop			; (mov r8, r8)

08001ca0 <__aeabi_dcmple>:
 8001ca0:	b510      	push	{r4, lr}
 8001ca2:	f000 f9d7 	bl	8002054 <__ledf2>
 8001ca6:	2800      	cmp	r0, #0
 8001ca8:	dd01      	ble.n	8001cae <__aeabi_dcmple+0xe>
 8001caa:	2000      	movs	r0, #0
 8001cac:	bd10      	pop	{r4, pc}
 8001cae:	2001      	movs	r0, #1
 8001cb0:	bd10      	pop	{r4, pc}
 8001cb2:	46c0      	nop			; (mov r8, r8)

08001cb4 <__aeabi_dcmpgt>:
 8001cb4:	b510      	push	{r4, lr}
 8001cb6:	f000 f967 	bl	8001f88 <__gedf2>
 8001cba:	2800      	cmp	r0, #0
 8001cbc:	dc01      	bgt.n	8001cc2 <__aeabi_dcmpgt+0xe>
 8001cbe:	2000      	movs	r0, #0
 8001cc0:	bd10      	pop	{r4, pc}
 8001cc2:	2001      	movs	r0, #1
 8001cc4:	bd10      	pop	{r4, pc}
 8001cc6:	46c0      	nop			; (mov r8, r8)

08001cc8 <__aeabi_dcmpge>:
 8001cc8:	b510      	push	{r4, lr}
 8001cca:	f000 f95d 	bl	8001f88 <__gedf2>
 8001cce:	2800      	cmp	r0, #0
 8001cd0:	da01      	bge.n	8001cd6 <__aeabi_dcmpge+0xe>
 8001cd2:	2000      	movs	r0, #0
 8001cd4:	bd10      	pop	{r4, pc}
 8001cd6:	2001      	movs	r0, #1
 8001cd8:	bd10      	pop	{r4, pc}
 8001cda:	46c0      	nop			; (mov r8, r8)

08001cdc <__aeabi_cfrcmple>:
 8001cdc:	4684      	mov	ip, r0
 8001cde:	0008      	movs	r0, r1
 8001ce0:	4661      	mov	r1, ip
 8001ce2:	e7ff      	b.n	8001ce4 <__aeabi_cfcmpeq>

08001ce4 <__aeabi_cfcmpeq>:
 8001ce4:	b51f      	push	{r0, r1, r2, r3, r4, lr}
 8001ce6:	f000 f8c9 	bl	8001e7c <__lesf2>
 8001cea:	2800      	cmp	r0, #0
 8001cec:	d401      	bmi.n	8001cf2 <__aeabi_cfcmpeq+0xe>
 8001cee:	2100      	movs	r1, #0
 8001cf0:	42c8      	cmn	r0, r1
 8001cf2:	bd1f      	pop	{r0, r1, r2, r3, r4, pc}

08001cf4 <__aeabi_fcmpeq>:
 8001cf4:	b510      	push	{r4, lr}
 8001cf6:	f000 f855 	bl	8001da4 <__eqsf2>
 8001cfa:	4240      	negs	r0, r0
 8001cfc:	3001      	adds	r0, #1
 8001cfe:	bd10      	pop	{r4, pc}

08001d00 <__aeabi_fcmplt>:
 8001d00:	b510      	push	{r4, lr}
 8001d02:	f000 f8bb 	bl	8001e7c <__lesf2>
 8001d06:	2800      	cmp	r0, #0
 8001d08:	db01      	blt.n	8001d0e <__aeabi_fcmplt+0xe>
 8001d0a:	2000      	movs	r0, #0
 8001d0c:	bd10      	pop	{r4, pc}
 8001d0e:	2001      	movs	r0, #1
 8001d10:	bd10      	pop	{r4, pc}
 8001d12:	46c0      	nop			; (mov r8, r8)

08001d14 <__aeabi_fcmple>:
 8001d14:	b510      	push	{r4, lr}
 8001d16:	f000 f8b1 	bl	8001e7c <__lesf2>
 8001d1a:	2800      	cmp	r0, #0
 8001d1c:	dd01      	ble.n	8001d22 <__aeabi_fcmple+0xe>
 8001d1e:	2000      	movs	r0, #0
 8001d20:	bd10      	pop	{r4, pc}
 8001d22:	2001      	movs	r0, #1
 8001d24:	bd10      	pop	{r4, pc}
 8001d26:	46c0      	nop			; (mov r8, r8)

08001d28 <__aeabi_fcmpgt>:
 8001d28:	b510      	push	{r4, lr}
 8001d2a:	f000 f861 	bl	8001df0 <__gesf2>
 8001d2e:	2800      	cmp	r0, #0
 8001d30:	dc01      	bgt.n	8001d36 <__aeabi_fcmpgt+0xe>
 8001d32:	2000      	movs	r0, #0
 8001d34:	bd10      	pop	{r4, pc}
 8001d36:	2001      	movs	r0, #1
 8001d38:	bd10      	pop	{r4, pc}
 8001d3a:	46c0      	nop			; (mov r8, r8)

08001d3c <__aeabi_fcmpge>:
 8001d3c:	b510      	push	{r4, lr}
 8001d3e:	f000 f857 	bl	8001df0 <__gesf2>
 8001d42:	2800      	cmp	r0, #0
 8001d44:	da01      	bge.n	8001d4a <__aeabi_fcmpge+0xe>
 8001d46:	2000      	movs	r0, #0
 8001d48:	bd10      	pop	{r4, pc}
 8001d4a:	2001      	movs	r0, #1
 8001d4c:	bd10      	pop	{r4, pc}
 8001d4e:	46c0      	nop			; (mov r8, r8)

08001d50 <__clzsi2>:
 8001d50:	211c      	movs	r1, #28
 8001d52:	2301      	movs	r3, #1
 8001d54:	041b      	lsls	r3, r3, #16
 8001d56:	4298      	cmp	r0, r3
 8001d58:	d301      	bcc.n	8001d5e <__clzsi2+0xe>
 8001d5a:	0c00      	lsrs	r0, r0, #16
 8001d5c:	3910      	subs	r1, #16
 8001d5e:	0a1b      	lsrs	r3, r3, #8
 8001d60:	4298      	cmp	r0, r3
 8001d62:	d301      	bcc.n	8001d68 <__clzsi2+0x18>
 8001d64:	0a00      	lsrs	r0, r0, #8
 8001d66:	3908      	subs	r1, #8
 8001d68:	091b      	lsrs	r3, r3, #4
 8001d6a:	4298      	cmp	r0, r3
 8001d6c:	d301      	bcc.n	8001d72 <__clzsi2+0x22>
 8001d6e:	0900      	lsrs	r0, r0, #4
 8001d70:	3904      	subs	r1, #4
 8001d72:	a202      	add	r2, pc, #8	; (adr r2, 8001d7c <__clzsi2+0x2c>)
 8001d74:	5c10      	ldrb	r0, [r2, r0]
 8001d76:	1840      	adds	r0, r0, r1
 8001d78:	4770      	bx	lr
 8001d7a:	46c0      	nop			; (mov r8, r8)
 8001d7c:	02020304 	.word	0x02020304
 8001d80:	01010101 	.word	0x01010101
	...

08001d8c <__clzdi2>:
 8001d8c:	b510      	push	{r4, lr}
 8001d8e:	2900      	cmp	r1, #0
 8001d90:	d103      	bne.n	8001d9a <__clzdi2+0xe>
 8001d92:	f7ff ffdd 	bl	8001d50 <__clzsi2>
 8001d96:	3020      	adds	r0, #32
 8001d98:	e002      	b.n	8001da0 <__clzdi2+0x14>
 8001d9a:	0008      	movs	r0, r1
 8001d9c:	f7ff ffd8 	bl	8001d50 <__clzsi2>
 8001da0:	bd10      	pop	{r4, pc}
 8001da2:	46c0      	nop			; (mov r8, r8)

08001da4 <__eqsf2>:
 8001da4:	b570      	push	{r4, r5, r6, lr}
 8001da6:	0042      	lsls	r2, r0, #1
 8001da8:	0245      	lsls	r5, r0, #9
 8001daa:	024e      	lsls	r6, r1, #9
 8001dac:	004c      	lsls	r4, r1, #1
 8001dae:	0fc3      	lsrs	r3, r0, #31
 8001db0:	0a6d      	lsrs	r5, r5, #9
 8001db2:	2001      	movs	r0, #1
 8001db4:	0e12      	lsrs	r2, r2, #24
 8001db6:	0a76      	lsrs	r6, r6, #9
 8001db8:	0e24      	lsrs	r4, r4, #24
 8001dba:	0fc9      	lsrs	r1, r1, #31
 8001dbc:	2aff      	cmp	r2, #255	; 0xff
 8001dbe:	d006      	beq.n	8001dce <__eqsf2+0x2a>
 8001dc0:	2cff      	cmp	r4, #255	; 0xff
 8001dc2:	d003      	beq.n	8001dcc <__eqsf2+0x28>
 8001dc4:	42a2      	cmp	r2, r4
 8001dc6:	d101      	bne.n	8001dcc <__eqsf2+0x28>
 8001dc8:	42b5      	cmp	r5, r6
 8001dca:	d006      	beq.n	8001dda <__eqsf2+0x36>
 8001dcc:	bd70      	pop	{r4, r5, r6, pc}
 8001dce:	2d00      	cmp	r5, #0
 8001dd0:	d1fc      	bne.n	8001dcc <__eqsf2+0x28>
 8001dd2:	2cff      	cmp	r4, #255	; 0xff
 8001dd4:	d1fa      	bne.n	8001dcc <__eqsf2+0x28>
 8001dd6:	2e00      	cmp	r6, #0
 8001dd8:	d1f8      	bne.n	8001dcc <__eqsf2+0x28>
 8001dda:	428b      	cmp	r3, r1
 8001ddc:	d006      	beq.n	8001dec <__eqsf2+0x48>
 8001dde:	2001      	movs	r0, #1
 8001de0:	2a00      	cmp	r2, #0
 8001de2:	d1f3      	bne.n	8001dcc <__eqsf2+0x28>
 8001de4:	0028      	movs	r0, r5
 8001de6:	1e43      	subs	r3, r0, #1
 8001de8:	4198      	sbcs	r0, r3
 8001dea:	e7ef      	b.n	8001dcc <__eqsf2+0x28>
 8001dec:	2000      	movs	r0, #0
 8001dee:	e7ed      	b.n	8001dcc <__eqsf2+0x28>

08001df0 <__gesf2>:
 8001df0:	b570      	push	{r4, r5, r6, lr}
 8001df2:	0042      	lsls	r2, r0, #1
 8001df4:	0245      	lsls	r5, r0, #9
 8001df6:	024e      	lsls	r6, r1, #9
 8001df8:	004c      	lsls	r4, r1, #1
 8001dfa:	0fc3      	lsrs	r3, r0, #31
 8001dfc:	0a6d      	lsrs	r5, r5, #9
 8001dfe:	0e12      	lsrs	r2, r2, #24
 8001e00:	0a76      	lsrs	r6, r6, #9
 8001e02:	0e24      	lsrs	r4, r4, #24
 8001e04:	0fc8      	lsrs	r0, r1, #31
 8001e06:	2aff      	cmp	r2, #255	; 0xff
 8001e08:	d01b      	beq.n	8001e42 <__gesf2+0x52>
 8001e0a:	2cff      	cmp	r4, #255	; 0xff
 8001e0c:	d00e      	beq.n	8001e2c <__gesf2+0x3c>
 8001e0e:	2a00      	cmp	r2, #0
 8001e10:	d11b      	bne.n	8001e4a <__gesf2+0x5a>
 8001e12:	2c00      	cmp	r4, #0
 8001e14:	d101      	bne.n	8001e1a <__gesf2+0x2a>
 8001e16:	2e00      	cmp	r6, #0
 8001e18:	d01c      	beq.n	8001e54 <__gesf2+0x64>
 8001e1a:	2d00      	cmp	r5, #0
 8001e1c:	d00c      	beq.n	8001e38 <__gesf2+0x48>
 8001e1e:	4283      	cmp	r3, r0
 8001e20:	d01c      	beq.n	8001e5c <__gesf2+0x6c>
 8001e22:	2102      	movs	r1, #2
 8001e24:	1e58      	subs	r0, r3, #1
 8001e26:	4008      	ands	r0, r1
 8001e28:	3801      	subs	r0, #1
 8001e2a:	bd70      	pop	{r4, r5, r6, pc}
 8001e2c:	2e00      	cmp	r6, #0
 8001e2e:	d122      	bne.n	8001e76 <__gesf2+0x86>
 8001e30:	2a00      	cmp	r2, #0
 8001e32:	d1f4      	bne.n	8001e1e <__gesf2+0x2e>
 8001e34:	2d00      	cmp	r5, #0
 8001e36:	d1f2      	bne.n	8001e1e <__gesf2+0x2e>
 8001e38:	2800      	cmp	r0, #0
 8001e3a:	d1f6      	bne.n	8001e2a <__gesf2+0x3a>
 8001e3c:	2001      	movs	r0, #1
 8001e3e:	4240      	negs	r0, r0
 8001e40:	e7f3      	b.n	8001e2a <__gesf2+0x3a>
 8001e42:	2d00      	cmp	r5, #0
 8001e44:	d117      	bne.n	8001e76 <__gesf2+0x86>
 8001e46:	2cff      	cmp	r4, #255	; 0xff
 8001e48:	d0f0      	beq.n	8001e2c <__gesf2+0x3c>
 8001e4a:	2c00      	cmp	r4, #0
 8001e4c:	d1e7      	bne.n	8001e1e <__gesf2+0x2e>
 8001e4e:	2e00      	cmp	r6, #0
 8001e50:	d1e5      	bne.n	8001e1e <__gesf2+0x2e>
 8001e52:	e7e6      	b.n	8001e22 <__gesf2+0x32>
 8001e54:	2000      	movs	r0, #0
 8001e56:	2d00      	cmp	r5, #0
 8001e58:	d0e7      	beq.n	8001e2a <__gesf2+0x3a>
 8001e5a:	e7e2      	b.n	8001e22 <__gesf2+0x32>
 8001e5c:	42a2      	cmp	r2, r4
 8001e5e:	dc05      	bgt.n	8001e6c <__gesf2+0x7c>
 8001e60:	dbea      	blt.n	8001e38 <__gesf2+0x48>
 8001e62:	42b5      	cmp	r5, r6
 8001e64:	d802      	bhi.n	8001e6c <__gesf2+0x7c>
 8001e66:	d3e7      	bcc.n	8001e38 <__gesf2+0x48>
 8001e68:	2000      	movs	r0, #0
 8001e6a:	e7de      	b.n	8001e2a <__gesf2+0x3a>
 8001e6c:	4243      	negs	r3, r0
 8001e6e:	4158      	adcs	r0, r3
 8001e70:	0040      	lsls	r0, r0, #1
 8001e72:	3801      	subs	r0, #1
 8001e74:	e7d9      	b.n	8001e2a <__gesf2+0x3a>
 8001e76:	2002      	movs	r0, #2
 8001e78:	4240      	negs	r0, r0
 8001e7a:	e7d6      	b.n	8001e2a <__gesf2+0x3a>

08001e7c <__lesf2>:
 8001e7c:	b570      	push	{r4, r5, r6, lr}
 8001e7e:	0042      	lsls	r2, r0, #1
 8001e80:	0245      	lsls	r5, r0, #9
 8001e82:	024e      	lsls	r6, r1, #9
 8001e84:	004c      	lsls	r4, r1, #1
 8001e86:	0fc3      	lsrs	r3, r0, #31
 8001e88:	0a6d      	lsrs	r5, r5, #9
 8001e8a:	0e12      	lsrs	r2, r2, #24
 8001e8c:	0a76      	lsrs	r6, r6, #9
 8001e8e:	0e24      	lsrs	r4, r4, #24
 8001e90:	0fc8      	lsrs	r0, r1, #31
 8001e92:	2aff      	cmp	r2, #255	; 0xff
 8001e94:	d00b      	beq.n	8001eae <__lesf2+0x32>
 8001e96:	2cff      	cmp	r4, #255	; 0xff
 8001e98:	d00d      	beq.n	8001eb6 <__lesf2+0x3a>
 8001e9a:	2a00      	cmp	r2, #0
 8001e9c:	d11f      	bne.n	8001ede <__lesf2+0x62>
 8001e9e:	2c00      	cmp	r4, #0
 8001ea0:	d116      	bne.n	8001ed0 <__lesf2+0x54>
 8001ea2:	2e00      	cmp	r6, #0
 8001ea4:	d114      	bne.n	8001ed0 <__lesf2+0x54>
 8001ea6:	2000      	movs	r0, #0
 8001ea8:	2d00      	cmp	r5, #0
 8001eaa:	d010      	beq.n	8001ece <__lesf2+0x52>
 8001eac:	e009      	b.n	8001ec2 <__lesf2+0x46>
 8001eae:	2d00      	cmp	r5, #0
 8001eb0:	d10c      	bne.n	8001ecc <__lesf2+0x50>
 8001eb2:	2cff      	cmp	r4, #255	; 0xff
 8001eb4:	d113      	bne.n	8001ede <__lesf2+0x62>
 8001eb6:	2e00      	cmp	r6, #0
 8001eb8:	d108      	bne.n	8001ecc <__lesf2+0x50>
 8001eba:	2a00      	cmp	r2, #0
 8001ebc:	d008      	beq.n	8001ed0 <__lesf2+0x54>
 8001ebe:	4283      	cmp	r3, r0
 8001ec0:	d012      	beq.n	8001ee8 <__lesf2+0x6c>
 8001ec2:	2102      	movs	r1, #2
 8001ec4:	1e58      	subs	r0, r3, #1
 8001ec6:	4008      	ands	r0, r1
 8001ec8:	3801      	subs	r0, #1
 8001eca:	e000      	b.n	8001ece <__lesf2+0x52>
 8001ecc:	2002      	movs	r0, #2
 8001ece:	bd70      	pop	{r4, r5, r6, pc}
 8001ed0:	2d00      	cmp	r5, #0
 8001ed2:	d1f4      	bne.n	8001ebe <__lesf2+0x42>
 8001ed4:	2800      	cmp	r0, #0
 8001ed6:	d1fa      	bne.n	8001ece <__lesf2+0x52>
 8001ed8:	2001      	movs	r0, #1
 8001eda:	4240      	negs	r0, r0
 8001edc:	e7f7      	b.n	8001ece <__lesf2+0x52>
 8001ede:	2c00      	cmp	r4, #0
 8001ee0:	d1ed      	bne.n	8001ebe <__lesf2+0x42>
 8001ee2:	2e00      	cmp	r6, #0
 8001ee4:	d1eb      	bne.n	8001ebe <__lesf2+0x42>
 8001ee6:	e7ec      	b.n	8001ec2 <__lesf2+0x46>
 8001ee8:	42a2      	cmp	r2, r4
 8001eea:	dc05      	bgt.n	8001ef8 <__lesf2+0x7c>
 8001eec:	dbf2      	blt.n	8001ed4 <__lesf2+0x58>
 8001eee:	42b5      	cmp	r5, r6
 8001ef0:	d802      	bhi.n	8001ef8 <__lesf2+0x7c>
 8001ef2:	d3ef      	bcc.n	8001ed4 <__lesf2+0x58>
 8001ef4:	2000      	movs	r0, #0
 8001ef6:	e7ea      	b.n	8001ece <__lesf2+0x52>
 8001ef8:	4243      	negs	r3, r0
 8001efa:	4158      	adcs	r0, r3
 8001efc:	0040      	lsls	r0, r0, #1
 8001efe:	3801      	subs	r0, #1
 8001f00:	e7e5      	b.n	8001ece <__lesf2+0x52>
 8001f02:	46c0      	nop			; (mov r8, r8)

08001f04 <__eqdf2>:
 8001f04:	b5f0      	push	{r4, r5, r6, r7, lr}
 8001f06:	464e      	mov	r6, r9
 8001f08:	4645      	mov	r5, r8
 8001f0a:	46de      	mov	lr, fp
 8001f0c:	4657      	mov	r7, sl
 8001f0e:	4690      	mov	r8, r2
 8001f10:	b5e0      	push	{r5, r6, r7, lr}
 8001f12:	0017      	movs	r7, r2
 8001f14:	031a      	lsls	r2, r3, #12
 8001f16:	0b12      	lsrs	r2, r2, #12
 8001f18:	0005      	movs	r5, r0
 8001f1a:	4684      	mov	ip, r0
 8001f1c:	4819      	ldr	r0, [pc, #100]	; (8001f84 <__eqdf2+0x80>)
 8001f1e:	030e      	lsls	r6, r1, #12
 8001f20:	004c      	lsls	r4, r1, #1
 8001f22:	4691      	mov	r9, r2
 8001f24:	005a      	lsls	r2, r3, #1
 8001f26:	0fdb      	lsrs	r3, r3, #31
 8001f28:	469b      	mov	fp, r3
 8001f2a:	0b36      	lsrs	r6, r6, #12
 8001f2c:	0d64      	lsrs	r4, r4, #21
 8001f2e:	0fc9      	lsrs	r1, r1, #31
 8001f30:	0d52      	lsrs	r2, r2, #21
 8001f32:	4284      	cmp	r4, r0
 8001f34:	d019      	beq.n	8001f6a <__eqdf2+0x66>
 8001f36:	4282      	cmp	r2, r0
 8001f38:	d010      	beq.n	8001f5c <__eqdf2+0x58>
 8001f3a:	2001      	movs	r0, #1
 8001f3c:	4294      	cmp	r4, r2
 8001f3e:	d10e      	bne.n	8001f5e <__eqdf2+0x5a>
 8001f40:	454e      	cmp	r6, r9
 8001f42:	d10c      	bne.n	8001f5e <__eqdf2+0x5a>
 8001f44:	2001      	movs	r0, #1
 8001f46:	45c4      	cmp	ip, r8
 8001f48:	d109      	bne.n	8001f5e <__eqdf2+0x5a>
 8001f4a:	4559      	cmp	r1, fp
 8001f4c:	d017      	beq.n	8001f7e <__eqdf2+0x7a>
 8001f4e:	2c00      	cmp	r4, #0
 8001f50:	d105      	bne.n	8001f5e <__eqdf2+0x5a>
 8001f52:	0030      	movs	r0, r6
 8001f54:	4328      	orrs	r0, r5
 8001f56:	1e43      	subs	r3, r0, #1
 8001f58:	4198      	sbcs	r0, r3
 8001f5a:	e000      	b.n	8001f5e <__eqdf2+0x5a>
 8001f5c:	2001      	movs	r0, #1
 8001f5e:	bcf0      	pop	{r4, r5, r6, r7}
 8001f60:	46bb      	mov	fp, r7
 8001f62:	46b2      	mov	sl, r6
 8001f64:	46a9      	mov	r9, r5
 8001f66:	46a0      	mov	r8, r4
 8001f68:	bdf0      	pop	{r4, r5, r6, r7, pc}
 8001f6a:	0033      	movs	r3, r6
 8001f6c:	2001      	movs	r0, #1
 8001f6e:	432b      	orrs	r3, r5
 8001f70:	d1f5      	bne.n	8001f5e <__eqdf2+0x5a>
 8001f72:	42a2      	cmp	r2, r4
 8001f74:	d1f3      	bne.n	8001f5e <__eqdf2+0x5a>
 8001f76:	464b      	mov	r3, r9
 8001f78:	433b      	orrs	r3, r7
 8001f7a:	d1f0      	bne.n	8001f5e <__eqdf2+0x5a>
 8001f7c:	e7e2      	b.n	8001f44 <__eqdf2+0x40>
 8001f7e:	2000      	movs	r0, #0
 8001f80:	e7ed      	b.n	8001f5e <__eqdf2+0x5a>
 8001f82:	46c0      	nop			; (mov r8, r8)
 8001f84:	000007ff 	.word	0x000007ff

08001f88 <__gedf2>:
 8001f88:	b5f0      	push	{r4, r5, r6, r7, lr}
 8001f8a:	4647      	mov	r7, r8
 8001f8c:	46ce      	mov	lr, r9
 8001f8e:	0004      	movs	r4, r0
 8001f90:	0018      	movs	r0, r3
 8001f92:	0016      	movs	r6, r2
 8001f94:	031b      	lsls	r3, r3, #12
 8001f96:	0b1b      	lsrs	r3, r3, #12
 8001f98:	4d2d      	ldr	r5, [pc, #180]	; (8002050 <__gedf2+0xc8>)
 8001f9a:	004a      	lsls	r2, r1, #1
 8001f9c:	4699      	mov	r9, r3
 8001f9e:	b580      	push	{r7, lr}
 8001fa0:	0043      	lsls	r3, r0, #1
 8001fa2:	030f      	lsls	r7, r1, #12
 8001fa4:	46a4      	mov	ip, r4
 8001fa6:	46b0      	mov	r8, r6
 8001fa8:	0b3f      	lsrs	r7, r7, #12
 8001faa:	0d52      	lsrs	r2, r2, #21
 8001fac:	0fc9      	lsrs	r1, r1, #31
 8001fae:	0d5b      	lsrs	r3, r3, #21
 8001fb0:	0fc0      	lsrs	r0, r0, #31
 8001fb2:	42aa      	cmp	r2, r5
 8001fb4:	d021      	beq.n	8001ffa <__gedf2+0x72>
 8001fb6:	42ab      	cmp	r3, r5
 8001fb8:	d013      	beq.n	8001fe2 <__gedf2+0x5a>
 8001fba:	2a00      	cmp	r2, #0
 8001fbc:	d122      	bne.n	8002004 <__gedf2+0x7c>
 8001fbe:	433c      	orrs	r4, r7
 8001fc0:	2b00      	cmp	r3, #0
 8001fc2:	d102      	bne.n	8001fca <__gedf2+0x42>
 8001fc4:	464d      	mov	r5, r9
 8001fc6:	432e      	orrs	r6, r5
 8001fc8:	d022      	beq.n	8002010 <__gedf2+0x88>
 8001fca:	2c00      	cmp	r4, #0
 8001fcc:	d010      	beq.n	8001ff0 <__gedf2+0x68>
 8001fce:	4281      	cmp	r1, r0
 8001fd0:	d022      	beq.n	8002018 <__gedf2+0x90>
 8001fd2:	2002      	movs	r0, #2
 8001fd4:	3901      	subs	r1, #1
 8001fd6:	4008      	ands	r0, r1
 8001fd8:	3801      	subs	r0, #1
 8001fda:	bcc0      	pop	{r6, r7}
 8001fdc:	46b9      	mov	r9, r7
 8001fde:	46b0      	mov	r8, r6
 8001fe0:	bdf0      	pop	{r4, r5, r6, r7, pc}
 8001fe2:	464d      	mov	r5, r9
 8001fe4:	432e      	orrs	r6, r5
 8001fe6:	d129      	bne.n	800203c <__gedf2+0xb4>
 8001fe8:	2a00      	cmp	r2, #0
 8001fea:	d1f0      	bne.n	8001fce <__gedf2+0x46>
 8001fec:	433c      	orrs	r4, r7
 8001fee:	d1ee      	bne.n	8001fce <__gedf2+0x46>
 8001ff0:	2800      	cmp	r0, #0
 8001ff2:	d1f2      	bne.n	8001fda <__gedf2+0x52>
 8001ff4:	2001      	movs	r0, #1
 8001ff6:	4240      	negs	r0, r0
 8001ff8:	e7ef      	b.n	8001fda <__gedf2+0x52>
 8001ffa:	003d      	movs	r5, r7
 8001ffc:	4325      	orrs	r5, r4
 8001ffe:	d11d      	bne.n	800203c <__gedf2+0xb4>
 8002000:	4293      	cmp	r3, r2
 8002002:	d0ee      	beq.n	8001fe2 <__gedf2+0x5a>
 8002004:	2b00      	cmp	r3, #0
 8002006:	d1e2      	bne.n	8001fce <__gedf2+0x46>
 8002008:	464c      	mov	r4, r9
 800200a:	4326      	orrs	r6, r4
 800200c:	d1df      	bne.n	8001fce <__gedf2+0x46>
 800200e:	e7e0      	b.n	8001fd2 <__gedf2+0x4a>
 8002010:	2000      	movs	r0, #0
 8002012:	2c00      	cmp	r4, #0
 8002014:	d0e1      	beq.n	8001fda <__gedf2+0x52>
 8002016:	e7dc      	b.n	8001fd2 <__gedf2+0x4a>
 8002018:	429a      	cmp	r2, r3
 800201a:	dc0a      	bgt.n	8002032 <__gedf2+0xaa>
 800201c:	dbe8      	blt.n	8001ff0 <__gedf2+0x68>
 800201e:	454f      	cmp	r7, r9
 8002020:	d8d7      	bhi.n	8001fd2 <__gedf2+0x4a>
 8002022:	d00e      	beq.n	8002042 <__gedf2+0xba>
 8002024:	2000      	movs	r0, #0
 8002026:	454f      	cmp	r7, r9
 8002028:	d2d7      	bcs.n	8001fda <__gedf2+0x52>
 800202a:	2900      	cmp	r1, #0
 800202c:	d0e2      	beq.n	8001ff4 <__gedf2+0x6c>
 800202e:	0008      	movs	r0, r1
 8002030:	e7d3      	b.n	8001fda <__gedf2+0x52>
 8002032:	4243      	negs	r3, r0
 8002034:	4158      	adcs	r0, r3
 8002036:	0040      	lsls	r0, r0, #1
 8002038:	3801      	subs	r0, #1
 800203a:	e7ce      	b.n	8001fda <__gedf2+0x52>
 800203c:	2002      	movs	r0, #2
 800203e:	4240      	negs	r0, r0
 8002040:	e7cb      	b.n	8001fda <__gedf2+0x52>
 8002042:	45c4      	cmp	ip, r8
 8002044:	d8c5      	bhi.n	8001fd2 <__gedf2+0x4a>
 8002046:	2000      	movs	r0, #0
 8002048:	45c4      	cmp	ip, r8
 800204a:	d2c6      	bcs.n	8001fda <__gedf2+0x52>
 800204c:	e7ed      	b.n	800202a <__gedf2+0xa2>
 800204e:	46c0      	nop			; (mov r8, r8)
 8002050:	000007ff 	.word	0x000007ff

08002054 <__ledf2>:
 8002054:	b5f0      	push	{r4, r5, r6, r7, lr}
 8002056:	4647      	mov	r7, r8
 8002058:	46ce      	mov	lr, r9
 800205a:	0004      	movs	r4, r0
 800205c:	0018      	movs	r0, r3
 800205e:	0016      	movs	r6, r2
 8002060:	031b      	lsls	r3, r3, #12
 8002062:	0b1b      	lsrs	r3, r3, #12
 8002064:	4d2c      	ldr	r5, [pc, #176]	; (8002118 <__ledf2+0xc4>)
 8002066:	004a      	lsls	r2, r1, #1
 8002068:	4699      	mov	r9, r3
 800206a:	b580      	push	{r7, lr}
 800206c:	0043      	lsls	r3, r0, #1
 800206e:	030f      	lsls	r7, r1, #12
 8002070:	46a4      	mov	ip, r4
 8002072:	46b0      	mov	r8, r6
 8002074:	0b3f      	lsrs	r7, r7, #12
 8002076:	0d52      	lsrs	r2, r2, #21
 8002078:	0fc9      	lsrs	r1, r1, #31
 800207a:	0d5b      	lsrs	r3, r3, #21
 800207c:	0fc0      	lsrs	r0, r0, #31
 800207e:	42aa      	cmp	r2, r5
 8002080:	d00d      	beq.n	800209e <__ledf2+0x4a>
 8002082:	42ab      	cmp	r3, r5
 8002084:	d010      	beq.n	80020a8 <__ledf2+0x54>
 8002086:	2a00      	cmp	r2, #0
 8002088:	d127      	bne.n	80020da <__ledf2+0x86>
 800208a:	433c      	orrs	r4, r7
 800208c:	2b00      	cmp	r3, #0
 800208e:	d111      	bne.n	80020b4 <__ledf2+0x60>
 8002090:	464d      	mov	r5, r9
 8002092:	432e      	orrs	r6, r5
 8002094:	d10e      	bne.n	80020b4 <__ledf2+0x60>
 8002096:	2000      	movs	r0, #0
 8002098:	2c00      	cmp	r4, #0
 800209a:	d015      	beq.n	80020c8 <__ledf2+0x74>
 800209c:	e00e      	b.n	80020bc <__ledf2+0x68>
 800209e:	003d      	movs	r5, r7
 80020a0:	4325      	orrs	r5, r4
 80020a2:	d110      	bne.n	80020c6 <__ledf2+0x72>
 80020a4:	4293      	cmp	r3, r2
 80020a6:	d118      	bne.n	80020da <__ledf2+0x86>
 80020a8:	464d      	mov	r5, r9
 80020aa:	432e      	orrs	r6, r5
 80020ac:	d10b      	bne.n	80020c6 <__ledf2+0x72>
 80020ae:	2a00      	cmp	r2, #0
 80020b0:	d102      	bne.n	80020b8 <__ledf2+0x64>
 80020b2:	433c      	orrs	r4, r7
 80020b4:	2c00      	cmp	r4, #0
 80020b6:	d00b      	beq.n	80020d0 <__ledf2+0x7c>
 80020b8:	4281      	cmp	r1, r0
 80020ba:	d014      	beq.n	80020e6 <__ledf2+0x92>
 80020bc:	2002      	movs	r0, #2
 80020be:	3901      	subs	r1, #1
 80020c0:	4008      	ands	r0, r1
 80020c2:	3801      	subs	r0, #1
 80020c4:	e000      	b.n	80020c8 <__ledf2+0x74>
 80020c6:	2002      	movs	r0, #2
 80020c8:	bcc0      	pop	{r6, r7}
 80020ca:	46b9      	mov	r9, r7
 80020cc:	46b0      	mov	r8, r6
 80020ce:	bdf0      	pop	{r4, r5, r6, r7, pc}
 80020d0:	2800      	cmp	r0, #0
 80020d2:	d1f9      	bne.n	80020c8 <__ledf2+0x74>
 80020d4:	2001      	movs	r0, #1
 80020d6:	4240      	negs	r0, r0
 80020d8:	e7f6      	b.n	80020c8 <__ledf2+0x74>
 80020da:	2b00      	cmp	r3, #0
 80020dc:	d1ec      	bne.n	80020b8 <__ledf2+0x64>
 80020de:	464c      	mov	r4, r9
 80020e0:	4326      	orrs	r6, r4
 80020e2:	d1e9      	bne.n	80020b8 <__ledf2+0x64>
 80020e4:	e7ea      	b.n	80020bc <__ledf2+0x68>
 80020e6:	429a      	cmp	r2, r3
 80020e8:	dd04      	ble.n	80020f4 <__ledf2+0xa0>
 80020ea:	4243      	negs	r3, r0
 80020ec:	4158      	adcs	r0, r3
 80020ee:	0040      	lsls	r0, r0, #1
 80020f0:	3801      	subs	r0, #1
 80020f2:	e7e9      	b.n	80020c8 <__ledf2+0x74>
 80020f4:	429a      	cmp	r2, r3
 80020f6:	dbeb      	blt.n	80020d0 <__ledf2+0x7c>
 80020f8:	454f      	cmp	r7, r9
 80020fa:	d8df      	bhi.n	80020bc <__ledf2+0x68>
 80020fc:	d006      	beq.n	800210c <__ledf2+0xb8>
 80020fe:	2000      	movs	r0, #0
 8002100:	454f      	cmp	r7, r9
 8002102:	d2e1      	bcs.n	80020c8 <__ledf2+0x74>
 8002104:	2900      	cmp	r1, #0
 8002106:	d0e5      	beq.n	80020d4 <__ledf2+0x80>
 8002108:	0008      	movs	r0, r1
 800210a:	e7dd      	b.n	80020c8 <__ledf2+0x74>
 800210c:	45c4      	cmp	ip, r8
 800210e:	d8d5      	bhi.n	80020bc <__ledf2+0x68>
 8002110:	2000      	movs	r0, #0
 8002112:	45c4      	cmp	ip, r8
 8002114:	d2d8      	bcs.n	80020c8 <__ledf2+0x74>
 8002116:	e7f5      	b.n	8002104 <__ledf2+0xb0>
 8002118:	000007ff 	.word	0x000007ff

0800211c <NEXTION_Get_Touch>:
	int len = sprintf(buf_str, "page %s", Page);
	HAL_UART_Transmit(&huart1, (uint8_t*)buf_str, len, 100);
	HAL_UART_Transmit(&huart1, cmd_end, 3, 100);
}

uint8_t NEXTION_Get_Touch(uint8_t Page){
 800211c:	b513      	push	{r0, r1, r4, lr}
	uint8_t Rx_Data[5];
	HAL_UART_Receive(&huart1, Rx_Data, 5, 200);
 800211e:	23c8      	movs	r3, #200	; 0xc8
uint8_t NEXTION_Get_Touch(uint8_t Page){
 8002120:	0004      	movs	r4, r0
	HAL_UART_Receive(&huart1, Rx_Data, 5, 200);
 8002122:	2205      	movs	r2, #5
 8002124:	4669      	mov	r1, sp
 8002126:	4806      	ldr	r0, [pc, #24]	; (8002140 <NEXTION_Get_Touch+0x24>)
 8002128:	f003 f876 	bl	8005218 <HAL_UART_Receive>
	if(Rx_Data[1] == Page + 48) return Rx_Data[2];
 800212c:	466b      	mov	r3, sp
 800212e:	785b      	ldrb	r3, [r3, #1]
 8002130:	3430      	adds	r4, #48	; 0x30
	return 0;
 8002132:	2000      	movs	r0, #0
	if(Rx_Data[1] == Page + 48) return Rx_Data[2];
 8002134:	42a3      	cmp	r3, r4
 8002136:	d101      	bne.n	800213c <NEXTION_Get_Touch+0x20>
 8002138:	466b      	mov	r3, sp
 800213a:	7898      	ldrb	r0, [r3, #2]
}
 800213c:	bd16      	pop	{r1, r2, r4, pc}
 800213e:	46c0      	nop			; (mov r8, r8)
 8002140:	200001b4 	.word	0x200001b4

08002144 <nextion_inst_set>:
	HAL_UART_Receive(&huart1, Rx_Data, 5, 200);
	if(Rx_Data[1] == Page + 48) return 1;
	return 0;
}

void nextion_inst_set(char* inst){
 8002144:	b570      	push	{r4, r5, r6, lr}
	HAL_UART_Transmit(&huart1, (uint8_t*)inst, strlen(inst), HAL_MAX_DELAY);
 8002146:	2501      	movs	r5, #1
void nextion_inst_set(char* inst){
 8002148:	0004      	movs	r4, r0
	HAL_UART_Transmit(&huart1, (uint8_t*)inst, strlen(inst), HAL_MAX_DELAY);
 800214a:	f7fd ffdd 	bl	8000108 <strlen>
 800214e:	4e07      	ldr	r6, [pc, #28]	; (800216c <nextion_inst_set+0x28>)
 8002150:	426d      	negs	r5, r5
 8002152:	002b      	movs	r3, r5
 8002154:	0021      	movs	r1, r4
 8002156:	b282      	uxth	r2, r0
 8002158:	0030      	movs	r0, r6
 800215a:	f002 fff6 	bl	800514a <HAL_UART_Transmit>
	HAL_UART_Transmit(&huart1, cmd_end, 3, HAL_MAX_DELAY);
 800215e:	002b      	movs	r3, r5
 8002160:	0030      	movs	r0, r6
 8002162:	2203      	movs	r2, #3
 8002164:	4902      	ldr	r1, [pc, #8]	; (8002170 <nextion_inst_set+0x2c>)
 8002166:	f002 fff0 	bl	800514a <HAL_UART_Transmit>
}
 800216a:	bd70      	pop	{r4, r5, r6, pc}
 800216c:	200001b4 	.word	0x200001b4
 8002170:	20000000 	.word	0x20000000

08002174 <initDrv8830>:
#include "drv8830.h"

extern I2C_HandleTypeDef hi2c1;

uint8_t initDrv8830() {
 8002174:	b57f      	push	{r0, r1, r2, r3, r4, r5, r6, lr}
	uint8_t txData = 0x80;
 8002176:	2317      	movs	r3, #23
 8002178:	2280      	movs	r2, #128	; 0x80
 800217a:	446b      	add	r3, sp
 800217c:	701a      	strb	r2, [r3, #0]
	// clear fault
	return HAL_I2C_Mem_Write(&hi2c1, DRV8830_DeviceAddress, DRV8830_FAULT, 1, &txData, 1, 5);
 800217e:	3a7b      	subs	r2, #123	; 0x7b
 8002180:	9202      	str	r2, [sp, #8]
 8002182:	3a04      	subs	r2, #4
 8002184:	9300      	str	r3, [sp, #0]
 8002186:	21c0      	movs	r1, #192	; 0xc0
 8002188:	0013      	movs	r3, r2
 800218a:	9201      	str	r2, [sp, #4]
 800218c:	4802      	ldr	r0, [pc, #8]	; (8002198 <initDrv8830+0x24>)
 800218e:	f001 fda9 	bl	8003ce4 <HAL_I2C_Mem_Write>
}
 8002192:	b007      	add	sp, #28
 8002194:	bd00      	pop	{pc}
 8002196:	46c0      	nop			; (mov r8, r8)
 8002198:	20000120 	.word	0x20000120

0800219c <setMotor>:
// VSET[7:2] voltage 0x00~0x3F
// D1, D0 direction
uint8_t setMotor(int direction) {
	uint8_t txData;
	uint8_t	result;
	txData = 0x1f << 2 | direction;
 800219c:	2216      	movs	r2, #22
 800219e:	237c      	movs	r3, #124	; 0x7c
uint8_t setMotor(int direction) {
 80021a0:	b570      	push	{r4, r5, r6, lr}
	int status;
	status = HAL_I2C_Mem_Write(&hi2c1, DRV8830_DeviceAddress, DRV8830_CONTROL, 1, &txData, 1, 5);
 80021a2:	2401      	movs	r4, #1
 80021a4:	2505      	movs	r5, #5
uint8_t setMotor(int direction) {
 80021a6:	b086      	sub	sp, #24
	status = HAL_I2C_Mem_Write(&hi2c1, DRV8830_DeviceAddress, DRV8830_CONTROL, 1, &txData, 1, 5);
 80021a8:	4e0d      	ldr	r6, [pc, #52]	; (80021e0 <setMotor+0x44>)
	txData = 0x1f << 2 | direction;
 80021aa:	446a      	add	r2, sp
 80021ac:	4303      	orrs	r3, r0
 80021ae:	7013      	strb	r3, [r2, #0]
	status = HAL_I2C_Mem_Write(&hi2c1, DRV8830_DeviceAddress, DRV8830_CONTROL, 1, &txData, 1, 5);
 80021b0:	21c0      	movs	r1, #192	; 0xc0
 80021b2:	0023      	movs	r3, r4
 80021b4:	9502      	str	r5, [sp, #8]
 80021b6:	9200      	str	r2, [sp, #0]
 80021b8:	0030      	movs	r0, r6
 80021ba:	2200      	movs	r2, #0
 80021bc:	9401      	str	r4, [sp, #4]
 80021be:	f001 fd91 	bl	8003ce4 <HAL_I2C_Mem_Write>
	status = HAL_I2C_Mem_Read(&hi2c1, DRV8830_DeviceAddress, DRV8830_FAULT, 1, &result, 1, 5);
 80021c2:	9502      	str	r5, [sp, #8]
 80021c4:	3512      	adds	r5, #18
 80021c6:	446d      	add	r5, sp
 80021c8:	0023      	movs	r3, r4
 80021ca:	0022      	movs	r2, r4
 80021cc:	21c0      	movs	r1, #192	; 0xc0
 80021ce:	0030      	movs	r0, r6
 80021d0:	9401      	str	r4, [sp, #4]
 80021d2:	9500      	str	r5, [sp, #0]
 80021d4:	f001 fe64 	bl	8003ea0 <HAL_I2C_Mem_Read>
	return result;
 80021d8:	7828      	ldrb	r0, [r5, #0]
}
 80021da:	b006      	add	sp, #24
 80021dc:	bd70      	pop	{r4, r5, r6, pc}
 80021de:	46c0      	nop			; (mov r8, r8)
 80021e0:	20000120 	.word	0x20000120

080021e4 <initEns160>:
#include "ens160.h"

extern I2C_HandleTypeDef hi2c1;

void initEns160() {
 80021e4:	b57f      	push	{r0, r1, r2, r3, r4, r5, r6, lr}
	uint8_t txData = ENS160_OpMode_Run;
 80021e6:	2217      	movs	r2, #23
 80021e8:	2302      	movs	r3, #2
 80021ea:	446a      	add	r2, sp
 80021ec:	7013      	strb	r3, [r2, #0]
	int status = HAL_I2C_Mem_Write(&hi2c1, ENS160_DeviceAddress, ENS160_OpMode, 1, &txData, 1, 10);
 80021ee:	3308      	adds	r3, #8
 80021f0:	9302      	str	r3, [sp, #8]
 80021f2:	3b09      	subs	r3, #9
 80021f4:	9200      	str	r2, [sp, #0]
 80021f6:	21a4      	movs	r1, #164	; 0xa4
 80021f8:	2210      	movs	r2, #16
 80021fa:	9301      	str	r3, [sp, #4]
 80021fc:	4802      	ldr	r0, [pc, #8]	; (8002208 <initEns160+0x24>)
 80021fe:	f001 fd71 	bl	8003ce4 <HAL_I2C_Mem_Write>
}
 8002202:	b007      	add	sp, #28
 8002204:	bd00      	pop	{pc}
 8002206:	46c0      	nop			; (mov r8, r8)
 8002208:	20000120 	.word	0x20000120

0800220c <getCO2>:
	txData[0]= writeValue;
	txData[1]= writeValue >> 8;
	int status = HAL_I2C_Mem_Write(&hi2c1, ENS160_DeviceAddress, ENS160_HumidityIn, 1, txData, 2, 10);
}

int	getCO2() {
 800220c:	b530      	push	{r4, r5, lr}
	HAL_I2C_Init(&hi2c1);
 800220e:	4d0a      	ldr	r5, [pc, #40]	; (8002238 <getCO2+0x2c>)
int	getCO2() {
 8002210:	b087      	sub	sp, #28
	HAL_I2C_Init(&hi2c1);
 8002212:	0028      	movs	r0, r5
 8002214:	f001 fbec 	bl	80039f0 <HAL_I2C_Init>
	uint8_t rxData[2];
	int status = HAL_I2C_Mem_Read(&hi2c1, ENS160_DeviceAddress, ENS160_DataECO2, 1, rxData, 2, 10);
 8002218:	230a      	movs	r3, #10
 800221a:	ac05      	add	r4, sp, #20
 800221c:	9302      	str	r3, [sp, #8]
 800221e:	3b08      	subs	r3, #8
 8002220:	9301      	str	r3, [sp, #4]
 8002222:	2224      	movs	r2, #36	; 0x24
 8002224:	21a4      	movs	r1, #164	; 0xa4
 8002226:	0028      	movs	r0, r5
 8002228:	9400      	str	r4, [sp, #0]
 800222a:	3b01      	subs	r3, #1
 800222c:	f001 fe38 	bl	8003ea0 <HAL_I2C_Mem_Read>
	return rxData[1] << 8 | rxData[0];
 8002230:	8820      	ldrh	r0, [r4, #0]
}
 8002232:	b007      	add	sp, #28
 8002234:	bd30      	pop	{r4, r5, pc}
 8002236:	46c0      	nop			; (mov r8, r8)
 8002238:	20000120 	.word	0x20000120

0800223c <reset_buz>:
/* Private user code ---------------------------------------------------------*/
/* USER CODE BEGIN 0 */

/* struct reset function start */
void reset_buz(struct _user_buz_control* user_buz){
	user_buz->buzM = buz_off;
 800223c:	2300      	movs	r3, #0
 800223e:	6003      	str	r3, [r0, #0]
	user_buz->buz_re = 0;
	user_buz->buzC = 0;
	user_buz->buz_check_fuc = buz_repeat_check;
 8002240:	4b02      	ldr	r3, [pc, #8]	; (800224c <reset_buz+0x10>)
 8002242:	6083      	str	r3, [r0, #8]
	user_buz->buz_run_fuc = BUZ;
 8002244:	4b02      	ldr	r3, [pc, #8]	; (8002250 <reset_buz+0x14>)
 8002246:	60c3      	str	r3, [r0, #12]
}
 8002248:	4770      	bx	lr
 800224a:	46c0      	nop			; (mov r8, r8)
 800224c:	080022c5 	.word	0x080022c5
 8002250:	080024a9 	.word	0x080024a9

08002254 <reset_mode>:

void reset_mode(struct _user_mode_control* user_mode){
	user_mode->now_page = menu;
 8002254:	2300      	movs	r3, #0
 8002256:	7003      	strb	r3, [r0, #0]
	user_mode->change_fuc = change_page;
 8002258:	4b02      	ldr	r3, [pc, #8]	; (8002264 <reset_mode+0x10>)
 800225a:	6083      	str	r3, [r0, #8]
	user_mode->run_fuc = menu_fuc.main_fuc;
 800225c:	4b02      	ldr	r3, [pc, #8]	; (8002268 <reset_mode+0x14>)
 800225e:	68db      	ldr	r3, [r3, #12]
 8002260:	60c3      	str	r3, [r0, #12]
}
 8002262:	4770      	bx	lr
 8002264:	0800228d 	.word	0x0800228d
 8002268:	20000258 	.word	0x20000258

0800226c <reset_sht41>:

void reset_sht41(struct _user_sht41_control* user_sht41){
	user_sht41->sht41_value.temperature = 0.0;
 800226c:	2300      	movs	r3, #0
 800226e:	6003      	str	r3, [r0, #0]
	user_sht41->sht41_value.humidity = 0.0;
 8002270:	6043      	str	r3, [r0, #4]
	user_sht41->get_value_fuc = getTempSht41;
 8002272:	4b01      	ldr	r3, [pc, #4]	; (8002278 <reset_sht41+0xc>)
 8002274:	60c3      	str	r3, [r0, #12]
}
 8002276:	4770      	bx	lr
 8002278:	0800318d 	.word	0x0800318d

0800227c <reset_ens160>:

void reset_ens160(struct _user_ens160_control* user_ens160){
	user_ens160->ens160_value = 0;
 800227c:	2300      	movs	r3, #0
 800227e:	8003      	strh	r3, [r0, #0]
	user_ens160->get_value_fuc = getCO2;
 8002280:	4b01      	ldr	r3, [pc, #4]	; (8002288 <reset_ens160+0xc>)
 8002282:	6083      	str	r3, [r0, #8]
}
 8002284:	4770      	bx	lr
 8002286:	46c0      	nop			; (mov r8, r8)
 8002288:	0800220d 	.word	0x0800220d

0800228c <change_page>:
/* struct reset function end */

/* running function change function start */
void change_page(struct _user_mode_control* page){
	if(page->now_page == menu)      page->run_fuc = menu_fuc.main_fuc;
 800228c:	7803      	ldrb	r3, [r0, #0]
 800228e:	2b00      	cmp	r3, #0
 8002290:	d103      	bne.n	800229a <change_page+0xe>
 8002292:	4b08      	ldr	r3, [pc, #32]	; (80022b4 <change_page+0x28>)
 8002294:	68db      	ldr	r3, [r3, #12]
	else if(page->now_page == temp) page->run_fuc = temp_fuc.main_fuc;
	else if(page->now_page == hum)  page->run_fuc = humidity_fuc.main_fuc;
	else if(page->now_page == co2)  page->run_fuc = co2_fuc.main_fuc;
 8002296:	60c3      	str	r3, [r0, #12]
}
 8002298:	4770      	bx	lr
	else if(page->now_page == temp) page->run_fuc = temp_fuc.main_fuc;
 800229a:	2b01      	cmp	r3, #1
 800229c:	d102      	bne.n	80022a4 <change_page+0x18>
 800229e:	4b06      	ldr	r3, [pc, #24]	; (80022b8 <change_page+0x2c>)
	else if(page->now_page == co2)  page->run_fuc = co2_fuc.main_fuc;
 80022a0:	689b      	ldr	r3, [r3, #8]
 80022a2:	e7f8      	b.n	8002296 <change_page+0xa>
	else if(page->now_page == hum)  page->run_fuc = humidity_fuc.main_fuc;
 80022a4:	2b02      	cmp	r3, #2
 80022a6:	d101      	bne.n	80022ac <change_page+0x20>
 80022a8:	4b04      	ldr	r3, [pc, #16]	; (80022bc <change_page+0x30>)
 80022aa:	e7f9      	b.n	80022a0 <change_page+0x14>
	else if(page->now_page == co2)  page->run_fuc = co2_fuc.main_fuc;
 80022ac:	2b03      	cmp	r3, #3
 80022ae:	d1f3      	bne.n	8002298 <change_page+0xc>
 80022b0:	4b03      	ldr	r3, [pc, #12]	; (80022c0 <change_page+0x34>)
 80022b2:	e7f5      	b.n	80022a0 <change_page+0x14>
 80022b4:	20000258 	.word	0x20000258
 80022b8:	2000029c 	.word	0x2000029c
 80022bc:	2000023c 	.word	0x2000023c
 80022c0:	20000100 	.word	0x20000100

080022c4 <buz_repeat_check>:
	if(x) HAL_TIM_PWM_Start(&htim2, TIM_CHANNEL_1);
	else HAL_TIM_PWM_Stop(&htim2, TIM_CHANNEL_1);
}

void buz_repeat_check(struct _user_buz_control *user_buz){
	user_buz->buz_re--;
 80022c4:	7843      	ldrb	r3, [r0, #1]
 80022c6:	3b01      	subs	r3, #1
 80022c8:	b2db      	uxtb	r3, r3
 80022ca:	7043      	strb	r3, [r0, #1]
	if(user_buz->buz_re == 0) user_buz->buzM = buz_off;
 80022cc:	2b00      	cmp	r3, #0
 80022ce:	d100      	bne.n	80022d2 <buz_repeat_check+0xe>
 80022d0:	7003      	strb	r3, [r0, #0]
}
 80022d2:	4770      	bx	lr

080022d4 <menu_struct_reset_fuc>:
}
/* global using function end */

/* menu display function start */
void menu_struct_reset_fuc(struct _user_menu_control* user_menu){
	user_menu->main_fuc          = menu_main_fuc;
 80022d4:	4b05      	ldr	r3, [pc, #20]	; (80022ec <menu_struct_reset_fuc+0x18>)
 80022d6:	60c3      	str	r3, [r0, #12]
	user_menu->init_fuc          = menu_init_fuc;
 80022d8:	4b05      	ldr	r3, [pc, #20]	; (80022f0 <menu_struct_reset_fuc+0x1c>)
 80022da:	6103      	str	r3, [r0, #16]
	user_menu->screen_update_fuc = menu_screen_update_fuc;
 80022dc:	4b05      	ldr	r3, [pc, #20]	; (80022f4 <menu_struct_reset_fuc+0x20>)
 80022de:	6143      	str	r3, [r0, #20]
	user_menu->touch_sensing_fuc = menu_touch_sensing_fuc;
 80022e0:	4b05      	ldr	r3, [pc, #20]	; (80022f8 <menu_struct_reset_fuc+0x24>)
 80022e2:	6183      	str	r3, [r0, #24]
	user_menu->etc_sensor_fuc    = menu_etc_sensor_fuc;
 80022e4:	4b05      	ldr	r3, [pc, #20]	; (80022fc <menu_struct_reset_fuc+0x28>)
 80022e6:	61c3      	str	r3, [r0, #28]
}
 80022e8:	4770      	bx	lr
 80022ea:	46c0      	nop			; (mov r8, r8)
 80022ec:	08002419 	.word	0x08002419
 80022f0:	080024c5 	.word	0x080024c5
 80022f4:	0800285d 	.word	0x0800285d
 80022f8:	08002b49 	.word	0x08002b49
 80022fc:	08002de1 	.word	0x08002de1

08002300 <temp_struct_reset_fuc>:
}
/* menu display etc function end */

/* temp display function start */
void temp_struct_reset_fuc(struct _user_temp_control* user_temp){
	user_temp->main_fuc          = temp_main_fuc;
 8002300:	4b05      	ldr	r3, [pc, #20]	; (8002318 <temp_struct_reset_fuc+0x18>)
 8002302:	6083      	str	r3, [r0, #8]
	user_temp->init_fuc          = temp_init_fuc;
 8002304:	4b05      	ldr	r3, [pc, #20]	; (800231c <temp_struct_reset_fuc+0x1c>)
 8002306:	60c3      	str	r3, [r0, #12]
	user_temp->read_sht41_fuc    = read_sht41_fuc;
 8002308:	4b05      	ldr	r3, [pc, #20]	; (8002320 <temp_struct_reset_fuc+0x20>)
 800230a:	6103      	str	r3, [r0, #16]
	user_temp->screen_update_fuc = temp_screen_update_fuc;
 800230c:	4b05      	ldr	r3, [pc, #20]	; (8002324 <temp_struct_reset_fuc+0x24>)
 800230e:	6143      	str	r3, [r0, #20]
	user_temp->exit_fuc          = temp_exit_fuc;
 8002310:	4b05      	ldr	r3, [pc, #20]	; (8002328 <temp_struct_reset_fuc+0x28>)
 8002312:	6183      	str	r3, [r0, #24]
}
 8002314:	4770      	bx	lr
 8002316:	46c0      	nop			; (mov r8, r8)
 8002318:	0800243d 	.word	0x0800243d
 800231c:	080024e5 	.word	0x080024e5
 8002320:	08002391 	.word	0x08002391
 8002324:	080025a5 	.word	0x080025a5
 8002328:	0800232d 	.word	0x0800232d

0800232c <temp_exit_fuc>:
		nextion_inst_set(bf);
	}
}

void temp_exit_fuc(void){
	if(temp_fuc.touch_id == 8) { user_mode.now_page = menu; firF = 0; }
 800232c:	4b04      	ldr	r3, [pc, #16]	; (8002340 <temp_exit_fuc+0x14>)
 800232e:	791b      	ldrb	r3, [r3, #4]
 8002330:	2b08      	cmp	r3, #8
 8002332:	d104      	bne.n	800233e <temp_exit_fuc+0x12>
 8002334:	2300      	movs	r3, #0
 8002336:	4a03      	ldr	r2, [pc, #12]	; (8002344 <temp_exit_fuc+0x18>)
 8002338:	7013      	strb	r3, [r2, #0]
 800233a:	4a03      	ldr	r2, [pc, #12]	; (8002348 <temp_exit_fuc+0x1c>)
 800233c:	7013      	strb	r3, [r2, #0]
}
 800233e:	4770      	bx	lr
 8002340:	2000029c 	.word	0x2000029c
 8002344:	200002dc 	.word	0x200002dc
 8002348:	2000011f 	.word	0x2000011f

0800234c <humidity_struct_reset_fuc>:
}
/* temp display function end */

/* humidity display function start */
void humidity_struct_reset_fuc(struct _user_humidity_control* user_humidity){
	user_humidity->main_fuc = humidity_main_fuc;
 800234c:	4b05      	ldr	r3, [pc, #20]	; (8002364 <humidity_struct_reset_fuc+0x18>)
 800234e:	6083      	str	r3, [r0, #8]
	user_humidity->init_fuc = humidity_init_fuc;
 8002350:	4b05      	ldr	r3, [pc, #20]	; (8002368 <humidity_struct_reset_fuc+0x1c>)
 8002352:	60c3      	str	r3, [r0, #12]
	user_humidity->read_sht41_fuc = humidity_read_sht41_fuc;
 8002354:	4b05      	ldr	r3, [pc, #20]	; (800236c <humidity_struct_reset_fuc+0x20>)
 8002356:	6103      	str	r3, [r0, #16]
	user_humidity->screen_update_fuc = humidity_screen_update_fuc;
 8002358:	4b05      	ldr	r3, [pc, #20]	; (8002370 <humidity_struct_reset_fuc+0x24>)
 800235a:	6143      	str	r3, [r0, #20]
	user_humidity->exit_fuc = humidity_exit_fuc;
 800235c:	4b05      	ldr	r3, [pc, #20]	; (8002374 <humidity_struct_reset_fuc+0x28>)
 800235e:	6183      	str	r3, [r0, #24]
}
 8002360:	4770      	bx	lr
 8002362:	46c0      	nop			; (mov r8, r8)
 8002364:	08002461 	.word	0x08002461
 8002368:	08002525 	.word	0x08002525
 800236c:	08002379 	.word	0x08002379
 8002370:	0800262d 	.word	0x0800262d
 8002374:	08002399 	.word	0x08002399

08002378 <humidity_read_sht41_fuc>:

		firF = 1;
	}
}

void humidity_read_sht41_fuc(void){
 8002378:	b537      	push	{r0, r1, r2, r4, r5, lr}
	user_sht41.sht41_value = user_sht41.get_value_fuc();
 800237a:	466c      	mov	r4, sp
 800237c:	4d03      	ldr	r5, [pc, #12]	; (800238c <humidity_read_sht41_fuc+0x14>)
 800237e:	0020      	movs	r0, r4
 8002380:	68eb      	ldr	r3, [r5, #12]
 8002382:	4798      	blx	r3
 8002384:	cc0c      	ldmia	r4!, {r2, r3}
 8002386:	c50c      	stmia	r5!, {r2, r3}
}
 8002388:	bd37      	pop	{r0, r1, r2, r4, r5, pc}
 800238a:	46c0      	nop			; (mov r8, r8)
 800238c:	200002ec 	.word	0x200002ec

08002390 <read_sht41_fuc>:
 8002390:	b510      	push	{r4, lr}
 8002392:	f7ff fff1 	bl	8002378 <humidity_read_sht41_fuc>
 8002396:	bd10      	pop	{r4, pc}

08002398 <humidity_exit_fuc>:
		}
	}
}

void humidity_exit_fuc(void){
	if(humidity_fuc.touch_id == 6) { user_mode.now_page = menu; firF = 0; }
 8002398:	4b04      	ldr	r3, [pc, #16]	; (80023ac <humidity_exit_fuc+0x14>)
 800239a:	791b      	ldrb	r3, [r3, #4]
 800239c:	2b06      	cmp	r3, #6
 800239e:	d104      	bne.n	80023aa <humidity_exit_fuc+0x12>
 80023a0:	2300      	movs	r3, #0
 80023a2:	4a03      	ldr	r2, [pc, #12]	; (80023b0 <humidity_exit_fuc+0x18>)
 80023a4:	7013      	strb	r3, [r2, #0]
 80023a6:	4a03      	ldr	r2, [pc, #12]	; (80023b4 <humidity_exit_fuc+0x1c>)
 80023a8:	7013      	strb	r3, [r2, #0]
}
 80023aa:	4770      	bx	lr
 80023ac:	2000023c 	.word	0x2000023c
 80023b0:	200002dc 	.word	0x200002dc
 80023b4:	2000011f 	.word	0x2000011f

080023b8 <co2_struct_reset_fuc>:
}
/* humidity display function end */

/* co2 display function start */
void co2_struct_reset_fuc(struct _user_co2_control* user_co2){
	user_co2->main_fuc          = co2_main_fuc;
 80023b8:	4b05      	ldr	r3, [pc, #20]	; (80023d0 <co2_struct_reset_fuc+0x18>)
 80023ba:	6083      	str	r3, [r0, #8]
	user_co2->init_fuc          = co2_init_fuc;
 80023bc:	4b05      	ldr	r3, [pc, #20]	; (80023d4 <co2_struct_reset_fuc+0x1c>)
 80023be:	60c3      	str	r3, [r0, #12]
	user_co2->read_ens160_fuc   = co2_read_ens160_fuc;
 80023c0:	4b05      	ldr	r3, [pc, #20]	; (80023d8 <co2_struct_reset_fuc+0x20>)
 80023c2:	6103      	str	r3, [r0, #16]
	user_co2->screen_update_fuc = co2_screen_update_fuc;
 80023c4:	4b05      	ldr	r3, [pc, #20]	; (80023dc <co2_struct_reset_fuc+0x24>)
 80023c6:	6143      	str	r3, [r0, #20]
	user_co2->exit_fuc          = co2_exit_fuc;
 80023c8:	4b05      	ldr	r3, [pc, #20]	; (80023e0 <co2_struct_reset_fuc+0x28>)
 80023ca:	6183      	str	r3, [r0, #24]
}
 80023cc:	4770      	bx	lr
 80023ce:	46c0      	nop			; (mov r8, r8)
 80023d0:	08002485 	.word	0x08002485
 80023d4:	08002565 	.word	0x08002565
 80023d8:	080023e5 	.word	0x080023e5
 80023dc:	080026c5 	.word	0x080026c5
 80023e0:	080023f9 	.word	0x080023f9

080023e4 <co2_read_ens160_fuc>:

		firF = stop_state;
	}
}

void co2_read_ens160_fuc(void){
 80023e4:	b510      	push	{r4, lr}
	user_ens160.ens160_value = user_ens160.get_value_fuc();
 80023e6:	4c03      	ldr	r4, [pc, #12]	; (80023f4 <co2_read_ens160_fuc+0x10>)
 80023e8:	68a3      	ldr	r3, [r4, #8]
 80023ea:	4798      	blx	r3
 80023ec:	b280      	uxth	r0, r0
 80023ee:	8020      	strh	r0, [r4, #0]
}
 80023f0:	bd10      	pop	{r4, pc}
 80023f2:	46c0      	nop			; (mov r8, r8)
 80023f4:	200002d0 	.word	0x200002d0

080023f8 <co2_exit_fuc>:
		nextion_inst_set(bf);
	}
}

void co2_exit_fuc(void){
	if(co2_fuc.touch_id == 5) { user_mode.now_page = menu; firF=0; }
 80023f8:	4b04      	ldr	r3, [pc, #16]	; (800240c <co2_exit_fuc+0x14>)
 80023fa:	791b      	ldrb	r3, [r3, #4]
 80023fc:	2b05      	cmp	r3, #5
 80023fe:	d104      	bne.n	800240a <co2_exit_fuc+0x12>
 8002400:	2300      	movs	r3, #0
 8002402:	4a03      	ldr	r2, [pc, #12]	; (8002410 <co2_exit_fuc+0x18>)
 8002404:	7013      	strb	r3, [r2, #0]
 8002406:	4a03      	ldr	r2, [pc, #12]	; (8002414 <co2_exit_fuc+0x1c>)
 8002408:	7013      	strb	r3, [r2, #0]
}
 800240a:	4770      	bx	lr
 800240c:	20000100 	.word	0x20000100
 8002410:	200002dc 	.word	0x200002dc
 8002414:	2000011f 	.word	0x2000011f

08002418 <menu_main_fuc>:
void menu_main_fuc(void){
 8002418:	b510      	push	{r4, lr}
	menu_fuc.touch_id = NEXTION_Get_Touch(menu);
 800241a:	2000      	movs	r0, #0
 800241c:	f7ff fe7e 	bl	800211c <NEXTION_Get_Touch>
 8002420:	4c05      	ldr	r4, [pc, #20]	; (8002438 <menu_main_fuc+0x20>)
 8002422:	7120      	strb	r0, [r4, #4]
	menu_fuc.init_fuc();
 8002424:	6923      	ldr	r3, [r4, #16]
 8002426:	4798      	blx	r3
	menu_fuc.screen_update_fuc();
 8002428:	6963      	ldr	r3, [r4, #20]
 800242a:	4798      	blx	r3
	menu_fuc.touch_sensing_fuc();
 800242c:	69a3      	ldr	r3, [r4, #24]
 800242e:	4798      	blx	r3
	menu_fuc.etc_sensor_fuc();
 8002430:	69e3      	ldr	r3, [r4, #28]
 8002432:	4798      	blx	r3
}
 8002434:	bd10      	pop	{r4, pc}
 8002436:	46c0      	nop			; (mov r8, r8)
 8002438:	20000258 	.word	0x20000258

0800243c <temp_main_fuc>:
void temp_main_fuc(void){
 800243c:	b510      	push	{r4, lr}
	temp_fuc.touch_id = NEXTION_Get_Touch(temp);
 800243e:	2001      	movs	r0, #1
 8002440:	f7ff fe6c 	bl	800211c <NEXTION_Get_Touch>
 8002444:	4c05      	ldr	r4, [pc, #20]	; (800245c <temp_main_fuc+0x20>)
 8002446:	7120      	strb	r0, [r4, #4]
	temp_fuc.init_fuc();
 8002448:	68e3      	ldr	r3, [r4, #12]
 800244a:	4798      	blx	r3
	temp_fuc.read_sht41_fuc();
 800244c:	6923      	ldr	r3, [r4, #16]
 800244e:	4798      	blx	r3
	temp_fuc.screen_update_fuc();
 8002450:	6963      	ldr	r3, [r4, #20]
 8002452:	4798      	blx	r3
	temp_fuc.exit_fuc();
 8002454:	69a3      	ldr	r3, [r4, #24]
 8002456:	4798      	blx	r3
}
 8002458:	bd10      	pop	{r4, pc}
 800245a:	46c0      	nop			; (mov r8, r8)
 800245c:	2000029c 	.word	0x2000029c

08002460 <humidity_main_fuc>:
void humidity_main_fuc(void){
 8002460:	b510      	push	{r4, lr}
	humidity_fuc.touch_id = NEXTION_Get_Touch(hum);
 8002462:	2002      	movs	r0, #2
 8002464:	f7ff fe5a 	bl	800211c <NEXTION_Get_Touch>
 8002468:	4c05      	ldr	r4, [pc, #20]	; (8002480 <humidity_main_fuc+0x20>)
 800246a:	7120      	strb	r0, [r4, #4]
	humidity_fuc.init_fuc();
 800246c:	68e3      	ldr	r3, [r4, #12]
 800246e:	4798      	blx	r3
	humidity_fuc.read_sht41_fuc();
 8002470:	6923      	ldr	r3, [r4, #16]
 8002472:	4798      	blx	r3
	humidity_fuc.screen_update_fuc();
 8002474:	6963      	ldr	r3, [r4, #20]
 8002476:	4798      	blx	r3
	humidity_fuc.exit_fuc();
 8002478:	69a3      	ldr	r3, [r4, #24]
 800247a:	4798      	blx	r3
}
 800247c:	bd10      	pop	{r4, pc}
 800247e:	46c0      	nop			; (mov r8, r8)
 8002480:	2000023c 	.word	0x2000023c

08002484 <co2_main_fuc>:

void co2_main_fuc(void){
 8002484:	b510      	push	{r4, lr}
	/* touch sensing */
	co2_fuc.touch_id = NEXTION_Get_Touch(co2);
 8002486:	2003      	movs	r0, #3
 8002488:	f7ff fe48 	bl	800211c <NEXTION_Get_Touch>
 800248c:	4c05      	ldr	r4, [pc, #20]	; (80024a4 <co2_main_fuc+0x20>)
 800248e:	7120      	strb	r0, [r4, #4]

	/* function play */
	co2_fuc.init_fuc();
 8002490:	68e3      	ldr	r3, [r4, #12]
 8002492:	4798      	blx	r3
	co2_fuc.read_ens160_fuc();
 8002494:	6923      	ldr	r3, [r4, #16]
 8002496:	4798      	blx	r3
	co2_fuc.screen_update_fuc();
 8002498:	6963      	ldr	r3, [r4, #20]
 800249a:	4798      	blx	r3
	co2_fuc.exit_fuc();
 800249c:	69a3      	ldr	r3, [r4, #24]
 800249e:	4798      	blx	r3
}
 80024a0:	bd10      	pop	{r4, pc}
 80024a2:	46c0      	nop			; (mov r8, r8)
 80024a4:	20000100 	.word	0x20000100

080024a8 <BUZ>:
void BUZ(uint8_t x){
 80024a8:	0001      	movs	r1, r0
 80024aa:	b510      	push	{r4, lr}
 80024ac:	4804      	ldr	r0, [pc, #16]	; (80024c0 <BUZ+0x18>)
	if(x) HAL_TIM_PWM_Start(&htim2, TIM_CHANNEL_1);
 80024ae:	2900      	cmp	r1, #0
 80024b0:	d003      	beq.n	80024ba <BUZ+0x12>
 80024b2:	2100      	movs	r1, #0
 80024b4:	f002 fba0 	bl	8004bf8 <HAL_TIM_PWM_Start>
}
 80024b8:	bd10      	pop	{r4, pc}
	else HAL_TIM_PWM_Stop(&htim2, TIM_CHANNEL_1);
 80024ba:	f002 fba1 	bl	8004c00 <HAL_TIM_PWM_Stop>
}
 80024be:	e7fb      	b.n	80024b8 <BUZ+0x10>
 80024c0:	20000174 	.word	0x20000174

080024c4 <menu_init_fuc>:
void menu_init_fuc(void){
 80024c4:	b510      	push	{r4, lr}
	if(firF == run_state){
 80024c6:	4c05      	ldr	r4, [pc, #20]	; (80024dc <menu_init_fuc+0x18>)
 80024c8:	7823      	ldrb	r3, [r4, #0]
 80024ca:	2b00      	cmp	r3, #0
 80024cc:	d104      	bne.n	80024d8 <menu_init_fuc+0x14>
		nextion_inst_set("dp=0");
 80024ce:	4804      	ldr	r0, [pc, #16]	; (80024e0 <menu_init_fuc+0x1c>)
 80024d0:	f7ff fe38 	bl	8002144 <nextion_inst_set>
		firF = stop_state;
 80024d4:	2301      	movs	r3, #1
 80024d6:	7023      	strb	r3, [r4, #0]
}
 80024d8:	bd10      	pop	{r4, pc}
 80024da:	46c0      	nop			; (mov r8, r8)
 80024dc:	2000011f 	.word	0x2000011f
 80024e0:	08005e94 	.word	0x08005e94

080024e4 <temp_init_fuc>:
void temp_init_fuc(void){
 80024e4:	b570      	push	{r4, r5, r6, lr}
	if(firF == run_state){
 80024e6:	4c0a      	ldr	r4, [pc, #40]	; (8002510 <temp_init_fuc+0x2c>)
 80024e8:	7823      	ldrb	r3, [r4, #0]
 80024ea:	2b00      	cmp	r3, #0
 80024ec:	d10e      	bne.n	800250c <temp_init_fuc+0x28>
		nextion_inst_set("dp=1");
 80024ee:	4809      	ldr	r0, [pc, #36]	; (8002514 <temp_init_fuc+0x30>)
 80024f0:	f7ff fe28 	bl	8002144 <nextion_inst_set>
		sprintf(bf, "background.pic=%d", temp_fuc.pic);
 80024f4:	4b08      	ldr	r3, [pc, #32]	; (8002518 <temp_init_fuc+0x34>)
 80024f6:	4d09      	ldr	r5, [pc, #36]	; (800251c <temp_init_fuc+0x38>)
 80024f8:	795a      	ldrb	r2, [r3, #5]
 80024fa:	4909      	ldr	r1, [pc, #36]	; (8002520 <temp_init_fuc+0x3c>)
 80024fc:	0028      	movs	r0, r5
 80024fe:	f002 ffd3 	bl	80054a8 <siprintf>
		nextion_inst_set(bf);
 8002502:	0028      	movs	r0, r5
 8002504:	f7ff fe1e 	bl	8002144 <nextion_inst_set>
		firF = stop_state;
 8002508:	2301      	movs	r3, #1
 800250a:	7023      	strb	r3, [r4, #0]
}
 800250c:	bd70      	pop	{r4, r5, r6, pc}
 800250e:	46c0      	nop			; (mov r8, r8)
 8002510:	2000011f 	.word	0x2000011f
 8002514:	08005e99 	.word	0x08005e99
 8002518:	2000029c 	.word	0x2000029c
 800251c:	20000099 	.word	0x20000099
 8002520:	08005e9e 	.word	0x08005e9e

08002524 <humidity_init_fuc>:
void humidity_init_fuc(void){
 8002524:	b570      	push	{r4, r5, r6, lr}
	if(!firF){
 8002526:	4c0a      	ldr	r4, [pc, #40]	; (8002550 <humidity_init_fuc+0x2c>)
 8002528:	7823      	ldrb	r3, [r4, #0]
 800252a:	2b00      	cmp	r3, #0
 800252c:	d10e      	bne.n	800254c <humidity_init_fuc+0x28>
		nextion_inst_set("dp=2");
 800252e:	4809      	ldr	r0, [pc, #36]	; (8002554 <humidity_init_fuc+0x30>)
 8002530:	f7ff fe08 	bl	8002144 <nextion_inst_set>
		sprintf(bf, "background.pic=%d", humidity_fuc.pic);
 8002534:	4b08      	ldr	r3, [pc, #32]	; (8002558 <humidity_init_fuc+0x34>)
 8002536:	4d09      	ldr	r5, [pc, #36]	; (800255c <humidity_init_fuc+0x38>)
 8002538:	795a      	ldrb	r2, [r3, #5]
 800253a:	4909      	ldr	r1, [pc, #36]	; (8002560 <humidity_init_fuc+0x3c>)
 800253c:	0028      	movs	r0, r5
 800253e:	f002 ffb3 	bl	80054a8 <siprintf>
		nextion_inst_set(bf);
 8002542:	0028      	movs	r0, r5
 8002544:	f7ff fdfe 	bl	8002144 <nextion_inst_set>
		firF = 1;
 8002548:	2301      	movs	r3, #1
 800254a:	7023      	strb	r3, [r4, #0]
}
 800254c:	bd70      	pop	{r4, r5, r6, pc}
 800254e:	46c0      	nop			; (mov r8, r8)
 8002550:	2000011f 	.word	0x2000011f
 8002554:	08005eb0 	.word	0x08005eb0
 8002558:	2000023c 	.word	0x2000023c
 800255c:	20000099 	.word	0x20000099
 8002560:	08005e9e 	.word	0x08005e9e

08002564 <co2_init_fuc>:
void co2_init_fuc(void){
 8002564:	b570      	push	{r4, r5, r6, lr}
	if(firF == run_state){
 8002566:	4c0a      	ldr	r4, [pc, #40]	; (8002590 <co2_init_fuc+0x2c>)
 8002568:	7823      	ldrb	r3, [r4, #0]
 800256a:	2b00      	cmp	r3, #0
 800256c:	d10e      	bne.n	800258c <co2_init_fuc+0x28>
		nextion_inst_set("dp=3");
 800256e:	4809      	ldr	r0, [pc, #36]	; (8002594 <co2_init_fuc+0x30>)
 8002570:	f7ff fde8 	bl	8002144 <nextion_inst_set>
		sprintf(bf, "background.pic=%d", co2_fuc.pic);
 8002574:	4b08      	ldr	r3, [pc, #32]	; (8002598 <co2_init_fuc+0x34>)
 8002576:	4d09      	ldr	r5, [pc, #36]	; (800259c <co2_init_fuc+0x38>)
 8002578:	795a      	ldrb	r2, [r3, #5]
 800257a:	4909      	ldr	r1, [pc, #36]	; (80025a0 <co2_init_fuc+0x3c>)
 800257c:	0028      	movs	r0, r5
 800257e:	f002 ff93 	bl	80054a8 <siprintf>
		nextion_inst_set(bf);
 8002582:	0028      	movs	r0, r5
 8002584:	f7ff fdde 	bl	8002144 <nextion_inst_set>
		firF = stop_state;
 8002588:	2301      	movs	r3, #1
 800258a:	7023      	strb	r3, [r4, #0]
}
 800258c:	bd70      	pop	{r4, r5, r6, pc}
 800258e:	46c0      	nop			; (mov r8, r8)
 8002590:	2000011f 	.word	0x2000011f
 8002594:	08005eb5 	.word	0x08005eb5
 8002598:	20000100 	.word	0x20000100
 800259c:	20000099 	.word	0x20000099
 80025a0:	08005e9e 	.word	0x08005e9e

080025a4 <temp_screen_update_fuc>:
void temp_screen_update_fuc(void){
 80025a4:	b570      	push	{r4, r5, r6, lr}
	if(HAL_GetTick() - t > 1000){
 80025a6:	f000 ff7b 	bl	80034a0 <HAL_GetTick>
 80025aa:	4c17      	ldr	r4, [pc, #92]	; (8002608 <temp_screen_update_fuc+0x64>)
 80025ac:	6823      	ldr	r3, [r4, #0]
 80025ae:	1ac0      	subs	r0, r0, r3
 80025b0:	23fa      	movs	r3, #250	; 0xfa
 80025b2:	009b      	lsls	r3, r3, #2
 80025b4:	4298      	cmp	r0, r3
 80025b6:	d926      	bls.n	8002606 <temp_screen_update_fuc+0x62>
		t = HAL_GetTick();
 80025b8:	f000 ff72 	bl	80034a0 <HAL_GetTick>
		sprintf(bf, "temp_n.val=%d", (uint16_t)(user_sht41.sht41_value.temperature * 10));
 80025bc:	4d13      	ldr	r5, [pc, #76]	; (800260c <temp_screen_update_fuc+0x68>)
 80025be:	4914      	ldr	r1, [pc, #80]	; (8002610 <temp_screen_update_fuc+0x6c>)
		t = HAL_GetTick();
 80025c0:	6020      	str	r0, [r4, #0]
		sprintf(bf, "temp_n.val=%d", (uint16_t)(user_sht41.sht41_value.temperature * 10));
 80025c2:	6828      	ldr	r0, [r5, #0]
 80025c4:	f7fe f99a 	bl	80008fc <__aeabi_fmul>
 80025c8:	f7fd ff7e 	bl	80004c8 <__aeabi_f2uiz>
 80025cc:	4c11      	ldr	r4, [pc, #68]	; (8002614 <temp_screen_update_fuc+0x70>)
 80025ce:	b282      	uxth	r2, r0
 80025d0:	4911      	ldr	r1, [pc, #68]	; (8002618 <temp_screen_update_fuc+0x74>)
 80025d2:	0020      	movs	r0, r4
 80025d4:	f002 ff68 	bl	80054a8 <siprintf>
		nextion_inst_set(bf);
 80025d8:	0020      	movs	r0, r4
 80025da:	f7ff fdb3 	bl	8002144 <nextion_inst_set>
		sprintf(bf, "temp_gauge.val=%d", (uint8_t)((user_sht41.sht41_value.temperature - 20) * 6.6));
 80025de:	6828      	ldr	r0, [r5, #0]
 80025e0:	490e      	ldr	r1, [pc, #56]	; (800261c <temp_screen_update_fuc+0x78>)
 80025e2:	f7fe fab1 	bl	8000b48 <__aeabi_fsub>
 80025e6:	f7ff faf3 	bl	8001bd0 <__aeabi_f2d>
 80025ea:	4a0d      	ldr	r2, [pc, #52]	; (8002620 <temp_screen_update_fuc+0x7c>)
 80025ec:	4b0d      	ldr	r3, [pc, #52]	; (8002624 <temp_screen_update_fuc+0x80>)
 80025ee:	f7fe fcbb 	bl	8000f68 <__aeabi_dmul>
 80025f2:	f7fd ff81 	bl	80004f8 <__aeabi_d2uiz>
 80025f6:	490c      	ldr	r1, [pc, #48]	; (8002628 <temp_screen_update_fuc+0x84>)
 80025f8:	b2c2      	uxtb	r2, r0
 80025fa:	0020      	movs	r0, r4
 80025fc:	f002 ff54 	bl	80054a8 <siprintf>
		nextion_inst_set(bf);
 8002600:	0020      	movs	r0, r4
 8002602:	f7ff fd9f 	bl	8002144 <nextion_inst_set>
}
 8002606:	bd70      	pop	{r4, r5, r6, pc}
 8002608:	20000290 	.word	0x20000290
 800260c:	200002ec 	.word	0x200002ec
 8002610:	41200000 	.word	0x41200000
 8002614:	20000099 	.word	0x20000099
 8002618:	08005eba 	.word	0x08005eba
 800261c:	41a00000 	.word	0x41a00000
 8002620:	66666666 	.word	0x66666666
 8002624:	401a6666 	.word	0x401a6666
 8002628:	08005ec8 	.word	0x08005ec8

0800262c <humidity_screen_update_fuc>:
void humidity_screen_update_fuc(void){
 800262c:	b570      	push	{r4, r5, r6, lr}
	if(HAL_GetTick() - t > 1000){
 800262e:	f000 ff37 	bl	80034a0 <HAL_GetTick>
 8002632:	4c19      	ldr	r4, [pc, #100]	; (8002698 <humidity_screen_update_fuc+0x6c>)
 8002634:	6823      	ldr	r3, [r4, #0]
 8002636:	1ac0      	subs	r0, r0, r3
 8002638:	23fa      	movs	r3, #250	; 0xfa
 800263a:	009b      	lsls	r3, r3, #2
 800263c:	4298      	cmp	r0, r3
 800263e:	d91e      	bls.n	800267e <humidity_screen_update_fuc+0x52>
		t = HAL_GetTick();
 8002640:	f000 ff2e 	bl	80034a0 <HAL_GetTick>
 8002644:	6020      	str	r0, [r4, #0]
		sprintf(bf, "hum_n.val=%d", (uint16_t)(user_sht41.sht41_value.humidity * 10));
 8002646:	4c15      	ldr	r4, [pc, #84]	; (800269c <humidity_screen_update_fuc+0x70>)
 8002648:	4915      	ldr	r1, [pc, #84]	; (80026a0 <humidity_screen_update_fuc+0x74>)
 800264a:	6860      	ldr	r0, [r4, #4]
 800264c:	f7fe f956 	bl	80008fc <__aeabi_fmul>
 8002650:	f7fd ff3a 	bl	80004c8 <__aeabi_f2uiz>
 8002654:	4d13      	ldr	r5, [pc, #76]	; (80026a4 <humidity_screen_update_fuc+0x78>)
 8002656:	b282      	uxth	r2, r0
 8002658:	4913      	ldr	r1, [pc, #76]	; (80026a8 <humidity_screen_update_fuc+0x7c>)
 800265a:	0028      	movs	r0, r5
 800265c:	f002 ff24 	bl	80054a8 <siprintf>
		nextion_inst_set(bf);
 8002660:	0028      	movs	r0, r5
 8002662:	f7ff fd6f 	bl	8002144 <nextion_inst_set>
		hum_value = (uint8_t)user_sht41.sht41_value.humidity;
 8002666:	6860      	ldr	r0, [r4, #4]
 8002668:	f7fd ff2e 	bl	80004c8 <__aeabi_f2uiz>
 800266c:	b2c0      	uxtb	r0, r0
		if(hum_value < 40){
 800266e:	2827      	cmp	r0, #39	; 0x27
 8002670:	d806      	bhi.n	8002680 <humidity_screen_update_fuc+0x54>
			nextion_inst_set("hum_state.txt=\"Dry\"");
 8002672:	480e      	ldr	r0, [pc, #56]	; (80026ac <humidity_screen_update_fuc+0x80>)
 8002674:	f7ff fd66 	bl	8002144 <nextion_inst_set>
			nextion_inst_set("hum_color.pco=61195");
 8002678:	480d      	ldr	r0, [pc, #52]	; (80026b0 <humidity_screen_update_fuc+0x84>)
			nextion_inst_set("hum_color.pco=63488");
 800267a:	f7ff fd63 	bl	8002144 <nextion_inst_set>
}
 800267e:	bd70      	pop	{r4, r5, r6, pc}
		else if(hum_value < 60){
 8002680:	283b      	cmp	r0, #59	; 0x3b
 8002682:	d804      	bhi.n	800268e <humidity_screen_update_fuc+0x62>
			nextion_inst_set("hum_state.txt=\"Appropriate\"");
 8002684:	480b      	ldr	r0, [pc, #44]	; (80026b4 <humidity_screen_update_fuc+0x88>)
 8002686:	f7ff fd5d 	bl	8002144 <nextion_inst_set>
			nextion_inst_set("hum_color.pco=1024");
 800268a:	480b      	ldr	r0, [pc, #44]	; (80026b8 <humidity_screen_update_fuc+0x8c>)
 800268c:	e7f5      	b.n	800267a <humidity_screen_update_fuc+0x4e>
			nextion_inst_set("hum_state.txt=\"Humid\"");
 800268e:	480b      	ldr	r0, [pc, #44]	; (80026bc <humidity_screen_update_fuc+0x90>)
 8002690:	f7ff fd58 	bl	8002144 <nextion_inst_set>
			nextion_inst_set("hum_color.pco=63488");
 8002694:	480a      	ldr	r0, [pc, #40]	; (80026c0 <humidity_screen_update_fuc+0x94>)
 8002696:	e7f0      	b.n	800267a <humidity_screen_update_fuc+0x4e>
 8002698:	2000028c 	.word	0x2000028c
 800269c:	200002ec 	.word	0x200002ec
 80026a0:	41200000 	.word	0x41200000
 80026a4:	20000099 	.word	0x20000099
 80026a8:	08005eda 	.word	0x08005eda
 80026ac:	08005ee7 	.word	0x08005ee7
 80026b0:	08005efb 	.word	0x08005efb
 80026b4:	08005f0f 	.word	0x08005f0f
 80026b8:	08005f2b 	.word	0x08005f2b
 80026bc:	08005f3e 	.word	0x08005f3e
 80026c0:	08005f54 	.word	0x08005f54

080026c4 <co2_screen_update_fuc>:
void co2_screen_update_fuc(void){
 80026c4:	b570      	push	{r4, r5, r6, lr}
	if(HAL_GetTick() - t > 1000){
 80026c6:	f000 feeb 	bl	80034a0 <HAL_GetTick>
 80026ca:	4c12      	ldr	r4, [pc, #72]	; (8002714 <co2_screen_update_fuc+0x50>)
 80026cc:	6823      	ldr	r3, [r4, #0]
 80026ce:	1ac0      	subs	r0, r0, r3
 80026d0:	23fa      	movs	r3, #250	; 0xfa
 80026d2:	009b      	lsls	r3, r3, #2
 80026d4:	4298      	cmp	r0, r3
 80026d6:	d91b      	bls.n	8002710 <co2_screen_update_fuc+0x4c>
		t = HAL_GetTick();
 80026d8:	f000 fee2 	bl	80034a0 <HAL_GetTick>
		sprintf(bf, "co2_n.val=%d", user_ens160.ens160_value);
 80026dc:	4d0e      	ldr	r5, [pc, #56]	; (8002718 <co2_screen_update_fuc+0x54>)
		t = HAL_GetTick();
 80026de:	6020      	str	r0, [r4, #0]
		sprintf(bf, "co2_n.val=%d", user_ens160.ens160_value);
 80026e0:	882a      	ldrh	r2, [r5, #0]
 80026e2:	4c0e      	ldr	r4, [pc, #56]	; (800271c <co2_screen_update_fuc+0x58>)
 80026e4:	b292      	uxth	r2, r2
 80026e6:	490e      	ldr	r1, [pc, #56]	; (8002720 <co2_screen_update_fuc+0x5c>)
 80026e8:	0020      	movs	r0, r4
 80026ea:	f002 fedd 	bl	80054a8 <siprintf>
		nextion_inst_set(bf);
 80026ee:	0020      	movs	r0, r4
 80026f0:	f7ff fd28 	bl	8002144 <nextion_inst_set>
		image_state = (user_ens160.ens160_value - 1) / 500;
 80026f4:	21fa      	movs	r1, #250	; 0xfa
 80026f6:	8828      	ldrh	r0, [r5, #0]
 80026f8:	0049      	lsls	r1, r1, #1
 80026fa:	3801      	subs	r0, #1
 80026fc:	f7fd fdaa 	bl	8000254 <__divsi3>
		sprintf(bf, "co2_state.pic=%d", image_state);
 8002700:	4908      	ldr	r1, [pc, #32]	; (8002724 <co2_screen_update_fuc+0x60>)
		image_state = (user_ens160.ens160_value - 1) / 500;
 8002702:	0002      	movs	r2, r0
		sprintf(bf, "co2_state.pic=%d", image_state);
 8002704:	0020      	movs	r0, r4
 8002706:	f002 fecf 	bl	80054a8 <siprintf>
		nextion_inst_set(bf);
 800270a:	0020      	movs	r0, r4
 800270c:	f7ff fd1a 	bl	8002144 <nextion_inst_set>
}
 8002710:	bd70      	pop	{r4, r5, r6, pc}
 8002712:	46c0      	nop			; (mov r8, r8)
 8002714:	20000288 	.word	0x20000288
 8002718:	200002d0 	.word	0x200002d0
 800271c:	20000099 	.word	0x20000099
 8002720:	08005f68 	.word	0x08005f68
 8002724:	08005f75 	.word	0x08005f75

08002728 <sw.part.0>:
uint8_t sw(uint8_t sw_num){
 8002728:	0003      	movs	r3, r0
 800272a:	b510      	push	{r4, lr}
	else if(sw_num == 2){
 800272c:	2802      	cmp	r0, #2
 800272e:	d116      	bne.n	800275e <sw.part.0+0x36>
		if(SW_READ(2)) old_key = 2;
 8002730:	22a0      	movs	r2, #160	; 0xa0
 8002732:	05d2      	lsls	r2, r2, #23
 8002734:	6911      	ldr	r1, [r2, #16]
 8002736:	0008      	movs	r0, r1
 8002738:	4018      	ands	r0, r3
 800273a:	4219      	tst	r1, r3
 800273c:	d102      	bne.n	8002744 <sw.part.0+0x1c>
		if(SW_READ(3)) old_key = 3;
 800273e:	4a10      	ldr	r2, [pc, #64]	; (8002780 <sw.part.0+0x58>)
 8002740:	7013      	strb	r3, [r2, #0]
 8002742:	e00b      	b.n	800275c <sw.part.0+0x34>
		else if(!SW_READ(2) && old_key == 2) { old_key = 0; return 1; }
 8002744:	6912      	ldr	r2, [r2, #16]
	return 0;
 8002746:	2000      	movs	r0, #0
		else if(!SW_READ(2) && old_key == 2) { old_key = 0; return 1; }
 8002748:	421a      	tst	r2, r3
 800274a:	d007      	beq.n	800275c <sw.part.0+0x34>
 800274c:	4b0c      	ldr	r3, [pc, #48]	; (8002780 <sw.part.0+0x58>)
 800274e:	781b      	ldrb	r3, [r3, #0]
 8002750:	2b02      	cmp	r3, #2
 8002752:	d103      	bne.n	800275c <sw.part.0+0x34>
 8002754:	2200      	movs	r2, #0
 8002756:	2001      	movs	r0, #1
 8002758:	4b09      	ldr	r3, [pc, #36]	; (8002780 <sw.part.0+0x58>)
 800275a:	701a      	strb	r2, [r3, #0]
}
 800275c:	bd10      	pop	{r4, pc}
	return 0;
 800275e:	2000      	movs	r0, #0
	else if(sw_num == 3){
 8002760:	2b03      	cmp	r3, #3
 8002762:	d1fb      	bne.n	800275c <sw.part.0+0x34>
		if(SW_READ(3)) old_key = 3;
 8002764:	21a0      	movs	r1, #160	; 0xa0
 8002766:	2204      	movs	r2, #4
 8002768:	05c9      	lsls	r1, r1, #23
 800276a:	690c      	ldr	r4, [r1, #16]
 800276c:	4214      	tst	r4, r2
 800276e:	d0e6      	beq.n	800273e <sw.part.0+0x16>
		else if(!SW_READ(3) && old_key == 3) { old_key = 0; return 1; }
 8002770:	690b      	ldr	r3, [r1, #16]
 8002772:	4213      	tst	r3, r2
 8002774:	d0f2      	beq.n	800275c <sw.part.0+0x34>
 8002776:	4b02      	ldr	r3, [pc, #8]	; (8002780 <sw.part.0+0x58>)
 8002778:	781b      	ldrb	r3, [r3, #0]
 800277a:	2b03      	cmp	r3, #3
 800277c:	d1ee      	bne.n	800275c <sw.part.0+0x34>
 800277e:	e7e9      	b.n	8002754 <sw.part.0+0x2c>
 8002780:	20000278 	.word	0x20000278

08002784 <sw>:
uint8_t sw(uint8_t sw_num){
 8002784:	0002      	movs	r2, r0
 8002786:	b510      	push	{r4, lr}
	if(sw_num == 1){
 8002788:	2801      	cmp	r0, #1
 800278a:	d115      	bne.n	80027b8 <sw+0x34>
		if(SW_READ(1)) old_key = 1;
 800278c:	21a0      	movs	r1, #160	; 0xa0
 800278e:	05c9      	lsls	r1, r1, #23
 8002790:	6908      	ldr	r0, [r1, #16]
 8002792:	0003      	movs	r3, r0
 8002794:	4013      	ands	r3, r2
 8002796:	4210      	tst	r0, r2
 8002798:	d103      	bne.n	80027a2 <sw+0x1e>
 800279a:	4909      	ldr	r1, [pc, #36]	; (80027c0 <sw+0x3c>)
 800279c:	700a      	strb	r2, [r1, #0]
	return 0;
 800279e:	0018      	movs	r0, r3
 80027a0:	e009      	b.n	80027b6 <sw+0x32>
		else if(!SW_READ(1) && old_key == 1) { old_key = 0; return 1; }
 80027a2:	690b      	ldr	r3, [r1, #16]
	return 0;
 80027a4:	2000      	movs	r0, #0
		else if(!SW_READ(1) && old_key == 1) { old_key = 0; return 1; }
 80027a6:	4213      	tst	r3, r2
 80027a8:	d005      	beq.n	80027b6 <sw+0x32>
 80027aa:	4a05      	ldr	r2, [pc, #20]	; (80027c0 <sw+0x3c>)
 80027ac:	2300      	movs	r3, #0
 80027ae:	7810      	ldrb	r0, [r2, #0]
 80027b0:	2801      	cmp	r0, #1
 80027b2:	d1f4      	bne.n	800279e <sw+0x1a>
 80027b4:	7013      	strb	r3, [r2, #0]
}
 80027b6:	bd10      	pop	{r4, pc}
 80027b8:	f7ff ffb6 	bl	8002728 <sw.part.0>
 80027bc:	e7fb      	b.n	80027b6 <sw+0x32>
 80027be:	46c0      	nop			; (mov r8, r8)
 80027c0:	20000278 	.word	0x20000278

080027c4 <menu_left_coordinate_set>:
void menu_left_coordinate_set(void){
 80027c4:	b570      	push	{r4, r5, r6, lr}
	sprintf(bf, "temp_t.y=sys%d", menu_fuc.left_menu_y[0]);
 80027c6:	4c0d      	ldr	r4, [pc, #52]	; (80027fc <menu_left_coordinate_set+0x38>)
 80027c8:	4d0d      	ldr	r5, [pc, #52]	; (8002800 <menu_left_coordinate_set+0x3c>)
 80027ca:	490e      	ldr	r1, [pc, #56]	; (8002804 <menu_left_coordinate_set+0x40>)
 80027cc:	79aa      	ldrb	r2, [r5, #6]
 80027ce:	0020      	movs	r0, r4
 80027d0:	f002 fe6a 	bl	80054a8 <siprintf>
	nextion_inst_set(bf);
 80027d4:	0020      	movs	r0, r4
 80027d6:	f7ff fcb5 	bl	8002144 <nextion_inst_set>
	sprintf(bf, "hum_t.y=sys%d", menu_fuc.left_menu_y[1]);
 80027da:	79ea      	ldrb	r2, [r5, #7]
 80027dc:	490a      	ldr	r1, [pc, #40]	; (8002808 <menu_left_coordinate_set+0x44>)
 80027de:	0020      	movs	r0, r4
 80027e0:	f002 fe62 	bl	80054a8 <siprintf>
	nextion_inst_set(bf);
 80027e4:	0020      	movs	r0, r4
 80027e6:	f7ff fcad 	bl	8002144 <nextion_inst_set>
	sprintf(bf, "co2_t.y=sys%d", menu_fuc.left_menu_y[2]);
 80027ea:	7a2a      	ldrb	r2, [r5, #8]
 80027ec:	4907      	ldr	r1, [pc, #28]	; (800280c <menu_left_coordinate_set+0x48>)
 80027ee:	0020      	movs	r0, r4
 80027f0:	f002 fe5a 	bl	80054a8 <siprintf>
	nextion_inst_set(bf);
 80027f4:	0020      	movs	r0, r4
 80027f6:	f7ff fca5 	bl	8002144 <nextion_inst_set>
}
 80027fa:	bd70      	pop	{r4, r5, r6, pc}
 80027fc:	20000099 	.word	0x20000099
 8002800:	20000258 	.word	0x20000258
 8002804:	08005f86 	.word	0x08005f86
 8002808:	08005f95 	.word	0x08005f95
 800280c:	08005fa3 	.word	0x08005fa3

08002810 <menu_right_coordinate_set>:
void menu_right_coordinate_set(void){
 8002810:	b570      	push	{r4, r5, r6, lr}
	sprintf(bf, "door_button.y=sys%d", menu_fuc.right_menu_y[0]);
 8002812:	4c0d      	ldr	r4, [pc, #52]	; (8002848 <menu_right_coordinate_set+0x38>)
 8002814:	4d0d      	ldr	r5, [pc, #52]	; (800284c <menu_right_coordinate_set+0x3c>)
 8002816:	490e      	ldr	r1, [pc, #56]	; (8002850 <menu_right_coordinate_set+0x40>)
 8002818:	7a6a      	ldrb	r2, [r5, #9]
 800281a:	0020      	movs	r0, r4
 800281c:	f002 fe44 	bl	80054a8 <siprintf>
	nextion_inst_set(bf);
 8002820:	0020      	movs	r0, r4
 8002822:	f7ff fc8f 	bl	8002144 <nextion_inst_set>
	sprintf(bf, "car_t.y=sys%d", menu_fuc.right_menu_y[1]);
 8002826:	7aaa      	ldrb	r2, [r5, #10]
 8002828:	490a      	ldr	r1, [pc, #40]	; (8002854 <menu_right_coordinate_set+0x44>)
 800282a:	0020      	movs	r0, r4
 800282c:	f002 fe3c 	bl	80054a8 <siprintf>
	nextion_inst_set(bf);
 8002830:	0020      	movs	r0, r4
 8002832:	f7ff fc87 	bl	8002144 <nextion_inst_set>
	sprintf(bf, "post_t.y=sys%d", menu_fuc.right_menu_y[2]);
 8002836:	7aea      	ldrb	r2, [r5, #11]
 8002838:	4907      	ldr	r1, [pc, #28]	; (8002858 <menu_right_coordinate_set+0x48>)
 800283a:	0020      	movs	r0, r4
 800283c:	f002 fe34 	bl	80054a8 <siprintf>
	nextion_inst_set(bf);
 8002840:	0020      	movs	r0, r4
 8002842:	f7ff fc7f 	bl	8002144 <nextion_inst_set>
}
 8002846:	bd70      	pop	{r4, r5, r6, pc}
 8002848:	20000099 	.word	0x20000099
 800284c:	20000258 	.word	0x20000258
 8002850:	08005fb1 	.word	0x08005fb1
 8002854:	08005fc5 	.word	0x08005fc5
 8002858:	08005fd3 	.word	0x08005fd3

0800285c <menu_screen_update_fuc>:
void menu_screen_update_fuc(void){
 800285c:	b570      	push	{r4, r5, r6, lr}
	if(!Re){
 800285e:	4d19      	ldr	r5, [pc, #100]	; (80028c4 <menu_screen_update_fuc+0x68>)
 8002860:	782b      	ldrb	r3, [r5, #0]
 8002862:	2b00      	cmp	r3, #0
 8002864:	d12c      	bne.n	80028c0 <menu_screen_update_fuc+0x64>
		menu_left_coordinate_set();
 8002866:	f7ff ffad 	bl	80027c4 <menu_left_coordinate_set>
		menu_right_coordinate_set();
 800286a:	f7ff ffd1 	bl	8002810 <menu_right_coordinate_set>
		sprintf(bf, "door_button.txt=\"%s\"", door_state_text[door_lock]);
 800286e:	4b16      	ldr	r3, [pc, #88]	; (80028c8 <menu_screen_update_fuc+0x6c>)
 8002870:	4c16      	ldr	r4, [pc, #88]	; (80028cc <menu_screen_update_fuc+0x70>)
 8002872:	781b      	ldrb	r3, [r3, #0]
 8002874:	4a16      	ldr	r2, [pc, #88]	; (80028d0 <menu_screen_update_fuc+0x74>)
 8002876:	009b      	lsls	r3, r3, #2
 8002878:	589a      	ldr	r2, [r3, r2]
 800287a:	4916      	ldr	r1, [pc, #88]	; (80028d4 <menu_screen_update_fuc+0x78>)
 800287c:	0020      	movs	r0, r4
 800287e:	f002 fe13 	bl	80054a8 <siprintf>
		nextion_inst_set(bf);
 8002882:	0020      	movs	r0, r4
 8002884:	f7ff fc5e 	bl	8002144 <nextion_inst_set>
		sprintf(bf, "car_t.txt=\"%s\"", menu_fuc.move_mode == 0 ? "Normal Mode" : "Custom Mode");
 8002888:	4b13      	ldr	r3, [pc, #76]	; (80028d8 <menu_screen_update_fuc+0x7c>)
 800288a:	4a14      	ldr	r2, [pc, #80]	; (80028dc <menu_screen_update_fuc+0x80>)
 800288c:	795b      	ldrb	r3, [r3, #5]
 800288e:	2b00      	cmp	r3, #0
 8002890:	d000      	beq.n	8002894 <menu_screen_update_fuc+0x38>
 8002892:	4a13      	ldr	r2, [pc, #76]	; (80028e0 <menu_screen_update_fuc+0x84>)
 8002894:	4913      	ldr	r1, [pc, #76]	; (80028e4 <menu_screen_update_fuc+0x88>)
 8002896:	0020      	movs	r0, r4
 8002898:	f002 fe06 	bl	80054a8 <siprintf>
		nextion_inst_set(bf);
 800289c:	0020      	movs	r0, r4
 800289e:	f7ff fc51 	bl	8002144 <nextion_inst_set>
		sprintf(bf, "post_t.txt=\"%s\"", post > 0 ? post_state_text : "Empty");
 80028a2:	4b11      	ldr	r3, [pc, #68]	; (80028e8 <menu_screen_update_fuc+0x8c>)
 80028a4:	4a11      	ldr	r2, [pc, #68]	; (80028ec <menu_screen_update_fuc+0x90>)
 80028a6:	781b      	ldrb	r3, [r3, #0]
 80028a8:	2b00      	cmp	r3, #0
 80028aa:	d100      	bne.n	80028ae <menu_screen_update_fuc+0x52>
 80028ac:	4a10      	ldr	r2, [pc, #64]	; (80028f0 <menu_screen_update_fuc+0x94>)
 80028ae:	4911      	ldr	r1, [pc, #68]	; (80028f4 <menu_screen_update_fuc+0x98>)
 80028b0:	0020      	movs	r0, r4
 80028b2:	f002 fdf9 	bl	80054a8 <siprintf>
		nextion_inst_set(bf);
 80028b6:	0020      	movs	r0, r4
 80028b8:	f7ff fc44 	bl	8002144 <nextion_inst_set>
		Re = 1;
 80028bc:	2301      	movs	r3, #1
 80028be:	702b      	strb	r3, [r5, #0]
}
 80028c0:	bd70      	pop	{r4, r5, r6, pc}
 80028c2:	46c0      	nop			; (mov r8, r8)
 80028c4:	20000098 	.word	0x20000098
 80028c8:	2000011c 	.word	0x2000011c
 80028cc:	20000099 	.word	0x20000099
 80028d0:	20000004 	.word	0x20000004
 80028d4:	08006000 	.word	0x08006000
 80028d8:	20000258 	.word	0x20000258
 80028dc:	08005fe2 	.word	0x08005fe2
 80028e0:	08005fee 	.word	0x08005fee
 80028e4:	08006015 	.word	0x08006015
 80028e8:	2000027a 	.word	0x2000027a
 80028ec:	2000027b 	.word	0x2000027b
 80028f0:	08005ffa 	.word	0x08005ffa
 80028f4:	08006024 	.word	0x08006024

080028f8 <menu_move_mode_check>:
void menu_move_mode_check(void){
 80028f8:	b570      	push	{r4, r5, r6, lr}
	if(menu_fuc.touch_id == 6){
 80028fa:	4d15      	ldr	r5, [pc, #84]	; (8002950 <menu_move_mode_check+0x58>)
 80028fc:	4c15      	ldr	r4, [pc, #84]	; (8002954 <menu_move_mode_check+0x5c>)
 80028fe:	792b      	ldrb	r3, [r5, #4]
 8002900:	2b06      	cmp	r3, #6
 8002902:	d108      	bne.n	8002916 <menu_move_mode_check+0x1e>
		if(touch_state == 0)      { tick = HAL_GetTick(); touch_state = 1; }
 8002904:	7823      	ldrb	r3, [r4, #0]
 8002906:	2b00      	cmp	r3, #0
 8002908:	d114      	bne.n	8002934 <menu_move_mode_check+0x3c>
 800290a:	f000 fdc9 	bl	80034a0 <HAL_GetTick>
 800290e:	4b12      	ldr	r3, [pc, #72]	; (8002958 <menu_move_mode_check+0x60>)
 8002910:	6018      	str	r0, [r3, #0]
 8002912:	2301      	movs	r3, #1
		else if(touch_state == 1) { touch_state = 2; }
 8002914:	7023      	strb	r3, [r4, #0]
	if(touch_state == 1)          { if(HAL_GetTick() - tick > 500) touch_state = 0; }
 8002916:	7823      	ldrb	r3, [r4, #0]
 8002918:	2b01      	cmp	r3, #1
 800291a:	d10f      	bne.n	800293c <menu_move_mode_check+0x44>
 800291c:	f000 fdc0 	bl	80034a0 <HAL_GetTick>
 8002920:	4b0d      	ldr	r3, [pc, #52]	; (8002958 <menu_move_mode_check+0x60>)
 8002922:	681b      	ldr	r3, [r3, #0]
 8002924:	1ac0      	subs	r0, r0, r3
 8002926:	23fa      	movs	r3, #250	; 0xfa
 8002928:	005b      	lsls	r3, r3, #1
 800292a:	4298      	cmp	r0, r3
 800292c:	d901      	bls.n	8002932 <menu_move_mode_check+0x3a>
 800292e:	2300      	movs	r3, #0
 8002930:	7023      	strb	r3, [r4, #0]
}
 8002932:	bd70      	pop	{r4, r5, r6, pc}
		else if(touch_state == 1) { touch_state = 2; }
 8002934:	2b01      	cmp	r3, #1
 8002936:	d1ee      	bne.n	8002916 <menu_move_mode_check+0x1e>
 8002938:	3301      	adds	r3, #1
 800293a:	e7eb      	b.n	8002914 <menu_move_mode_check+0x1c>
	else if(touch_state == 2)     { menu_fuc.move_mode = 0; touch_state = 0; firF = run_state; Re = 0; }
 800293c:	2b02      	cmp	r3, #2
 800293e:	d1f8      	bne.n	8002932 <menu_move_mode_check+0x3a>
 8002940:	2300      	movs	r3, #0
 8002942:	4a06      	ldr	r2, [pc, #24]	; (800295c <menu_move_mode_check+0x64>)
 8002944:	716b      	strb	r3, [r5, #5]
 8002946:	7013      	strb	r3, [r2, #0]
 8002948:	4a05      	ldr	r2, [pc, #20]	; (8002960 <menu_move_mode_check+0x68>)
 800294a:	7023      	strb	r3, [r4, #0]
 800294c:	7013      	strb	r3, [r2, #0]
}
 800294e:	e7f0      	b.n	8002932 <menu_move_mode_check+0x3a>
 8002950:	20000258 	.word	0x20000258
 8002954:	200002be 	.word	0x200002be
 8002958:	200002b8 	.word	0x200002b8
 800295c:	2000011f 	.word	0x2000011f
 8002960:	20000098 	.word	0x20000098

08002964 <menu_left_move_mode>:
void menu_left_move_mode(void){
 8002964:	b570      	push	{r4, r5, r6, lr}
	if(menu_fuc.move_mode == 0) { touch_state = 0; selected_button = 0; }
 8002966:	4b28      	ldr	r3, [pc, #160]	; (8002a08 <menu_left_move_mode+0xa4>)
 8002968:	4c28      	ldr	r4, [pc, #160]	; (8002a0c <menu_left_move_mode+0xa8>)
 800296a:	795a      	ldrb	r2, [r3, #5]
 800296c:	2a00      	cmp	r2, #0
 800296e:	d102      	bne.n	8002976 <menu_left_move_mode+0x12>
 8002970:	4927      	ldr	r1, [pc, #156]	; (8002a10 <menu_left_move_mode+0xac>)
 8002972:	7022      	strb	r2, [r4, #0]
 8002974:	700a      	strb	r2, [r1, #0]
	if(touch_state == 0){
 8002976:	7822      	ldrb	r2, [r4, #0]
 8002978:	2a00      	cmp	r2, #0
 800297a:	d111      	bne.n	80029a0 <menu_left_move_mode+0x3c>
		if(menu_fuc.touch_id == 3)      { nextion_inst_set("temp_t.pco=BLACK"); selected_button = 3; touch_state = 1; }
 800297c:	791d      	ldrb	r5, [r3, #4]
 800297e:	4825      	ldr	r0, [pc, #148]	; (8002a14 <menu_left_move_mode+0xb0>)
 8002980:	2d03      	cmp	r5, #3
 8002982:	d002      	beq.n	800298a <menu_left_move_mode+0x26>
		else if(menu_fuc.touch_id == 4) { nextion_inst_set("hum_t.pco=BLACK");  selected_button = 4; touch_state = 1; }
 8002984:	2d04      	cmp	r5, #4
 8002986:	d107      	bne.n	8002998 <menu_left_move_mode+0x34>
 8002988:	4823      	ldr	r0, [pc, #140]	; (8002a18 <menu_left_move_mode+0xb4>)
 800298a:	f7ff fbdb 	bl	8002144 <nextion_inst_set>
 800298e:	4b20      	ldr	r3, [pc, #128]	; (8002a10 <menu_left_move_mode+0xac>)
 8002990:	701d      	strb	r5, [r3, #0]
 8002992:	2301      	movs	r3, #1
 8002994:	7023      	strb	r3, [r4, #0]
}
 8002996:	bd70      	pop	{r4, r5, r6, pc}
		else if(menu_fuc.touch_id == 5) { nextion_inst_set("co2_t.pco=BLACK");  selected_button = 5; touch_state = 1; }
 8002998:	4820      	ldr	r0, [pc, #128]	; (8002a1c <menu_left_move_mode+0xb8>)
 800299a:	2d05      	cmp	r5, #5
 800299c:	d1fb      	bne.n	8002996 <menu_left_move_mode+0x32>
 800299e:	e7f4      	b.n	800298a <menu_left_move_mode+0x26>
	else if(touch_state == 1){
 80029a0:	2a01      	cmp	r2, #1
 80029a2:	d1f8      	bne.n	8002996 <menu_left_move_mode+0x32>
		if(menu_fuc.touch_id == selected_button){
 80029a4:	4d1a      	ldr	r5, [pc, #104]	; (8002a10 <menu_left_move_mode+0xac>)
 80029a6:	7919      	ldrb	r1, [r3, #4]
 80029a8:	782a      	ldrb	r2, [r5, #0]
 80029aa:	4291      	cmp	r1, r2
 80029ac:	d112      	bne.n	80029d4 <menu_left_move_mode+0x70>
			sprintf(bf, "%s.pco=WHITE", menu_fuc.touch_id == 3 ? "temp_t" : menu_fuc.touch_id == 4 ? "hum_t" : "co2_t");
 80029ae:	4a1c      	ldr	r2, [pc, #112]	; (8002a20 <menu_left_move_mode+0xbc>)
 80029b0:	2903      	cmp	r1, #3
 80029b2:	d003      	beq.n	80029bc <menu_left_move_mode+0x58>
 80029b4:	4a1b      	ldr	r2, [pc, #108]	; (8002a24 <menu_left_move_mode+0xc0>)
 80029b6:	2904      	cmp	r1, #4
 80029b8:	d000      	beq.n	80029bc <menu_left_move_mode+0x58>
 80029ba:	4a1b      	ldr	r2, [pc, #108]	; (8002a28 <menu_left_move_mode+0xc4>)
 80029bc:	4e1b      	ldr	r6, [pc, #108]	; (8002a2c <menu_left_move_mode+0xc8>)
 80029be:	491c      	ldr	r1, [pc, #112]	; (8002a30 <menu_left_move_mode+0xcc>)
 80029c0:	0030      	movs	r0, r6
 80029c2:	f002 fd71 	bl	80054a8 <siprintf>
			nextion_inst_set(bf);
 80029c6:	0030      	movs	r0, r6
 80029c8:	f7ff fbbc 	bl	8002144 <nextion_inst_set>
			touch_state = 0; selected_button = 0;
 80029cc:	2300      	movs	r3, #0
 80029ce:	7023      	strb	r3, [r4, #0]
 80029d0:	702b      	strb	r3, [r5, #0]
 80029d2:	e7e0      	b.n	8002996 <menu_left_move_mode+0x32>
		else if(menu_fuc.touch_id >= 3 && menu_fuc.touch_id <= 5){
 80029d4:	3903      	subs	r1, #3
 80029d6:	b2c8      	uxtb	r0, r1
 80029d8:	2802      	cmp	r0, #2
 80029da:	d8dc      	bhi.n	8002996 <menu_left_move_mode+0x32>
			uint8_t temp = menu_fuc.left_menu_y[selected_button - 3];
 80029dc:	3a03      	subs	r2, #3
 80029de:	189a      	adds	r2, r3, r2
			menu_fuc.left_menu_y[selected_button - 3] = menu_fuc.left_menu_y[menu_fuc.touch_id - 3];
 80029e0:	185b      	adds	r3, r3, r1
			uint8_t temp = menu_fuc.left_menu_y[selected_button - 3];
 80029e2:	7990      	ldrb	r0, [r2, #6]
			menu_fuc.left_menu_y[selected_button - 3] = menu_fuc.left_menu_y[menu_fuc.touch_id - 3];
 80029e4:	7999      	ldrb	r1, [r3, #6]
 80029e6:	7191      	strb	r1, [r2, #6]
			menu_fuc.left_menu_y[menu_fuc.touch_id - 3] = temp;
 80029e8:	7198      	strb	r0, [r3, #6]
			nextion_inst_set("temp_t.pco=WHITE");
 80029ea:	4812      	ldr	r0, [pc, #72]	; (8002a34 <menu_left_move_mode+0xd0>)
 80029ec:	f7ff fbaa 	bl	8002144 <nextion_inst_set>
			nextion_inst_set("hum_t.pco=WHITE");
 80029f0:	4811      	ldr	r0, [pc, #68]	; (8002a38 <menu_left_move_mode+0xd4>)
 80029f2:	f7ff fba7 	bl	8002144 <nextion_inst_set>
			nextion_inst_set("co2_t.pco=WHITE");
 80029f6:	4811      	ldr	r0, [pc, #68]	; (8002a3c <menu_left_move_mode+0xd8>)
 80029f8:	f7ff fba4 	bl	8002144 <nextion_inst_set>
			touch_state = 0; selected_button = 0;
 80029fc:	2300      	movs	r3, #0
			Re = 0;
 80029fe:	4a10      	ldr	r2, [pc, #64]	; (8002a40 <menu_left_move_mode+0xdc>)
			touch_state = 0; selected_button = 0;
 8002a00:	7023      	strb	r3, [r4, #0]
 8002a02:	702b      	strb	r3, [r5, #0]
			Re = 0;
 8002a04:	7013      	strb	r3, [r2, #0]
}
 8002a06:	e7c6      	b.n	8002996 <menu_left_move_mode+0x32>
 8002a08:	20000258 	.word	0x20000258
 8002a0c:	200002bd 	.word	0x200002bd
 8002a10:	20000286 	.word	0x20000286
 8002a14:	08006047 	.word	0x08006047
 8002a18:	08006058 	.word	0x08006058
 8002a1c:	08006068 	.word	0x08006068
 8002a20:	08006034 	.word	0x08006034
 8002a24:	0800603b 	.word	0x0800603b
 8002a28:	08006041 	.word	0x08006041
 8002a2c:	20000099 	.word	0x20000099
 8002a30:	08006078 	.word	0x08006078
 8002a34:	08006085 	.word	0x08006085
 8002a38:	08006096 	.word	0x08006096
 8002a3c:	080060a6 	.word	0x080060a6
 8002a40:	20000098 	.word	0x20000098

08002a44 <touch_id_adjust>:
	uint8_t res = *buf + 1;
 8002a44:	7800      	ldrb	r0, [r0, #0]
 8002a46:	3001      	adds	r0, #1
 8002a48:	b2c0      	uxtb	r0, r0
	if(res >= 9) res = 6;
 8002a4a:	2808      	cmp	r0, #8
 8002a4c:	d900      	bls.n	8002a50 <touch_id_adjust+0xc>
 8002a4e:	2006      	movs	r0, #6
}
 8002a50:	4770      	bx	lr
	...

08002a54 <menu_right_move_mode>:
void menu_right_move_mode(void){
 8002a54:	b5f7      	push	{r0, r1, r2, r4, r5, r6, r7, lr}
	if(menu_fuc.move_mode == 0) { touch_state = 0; selected_button = 0; }
 8002a56:	4c2d      	ldr	r4, [pc, #180]	; (8002b0c <menu_right_move_mode+0xb8>)
 8002a58:	4d2d      	ldr	r5, [pc, #180]	; (8002b10 <menu_right_move_mode+0xbc>)
 8002a5a:	7963      	ldrb	r3, [r4, #5]
 8002a5c:	2b00      	cmp	r3, #0
 8002a5e:	d102      	bne.n	8002a66 <menu_right_move_mode+0x12>
 8002a60:	4a2c      	ldr	r2, [pc, #176]	; (8002b14 <menu_right_move_mode+0xc0>)
 8002a62:	702b      	strb	r3, [r5, #0]
 8002a64:	7013      	strb	r3, [r2, #0]
	if(touch_state == 0){
 8002a66:	782b      	ldrb	r3, [r5, #0]
 8002a68:	2b00      	cmp	r3, #0
 8002a6a:	d111      	bne.n	8002a90 <menu_right_move_mode+0x3c>
		if(menu_fuc.touch_id == 6) { nextion_inst_set("car_t.pco=RED"); selected_button = 6; touch_state = 1; }
 8002a6c:	7924      	ldrb	r4, [r4, #4]
 8002a6e:	482a      	ldr	r0, [pc, #168]	; (8002b18 <menu_right_move_mode+0xc4>)
 8002a70:	2c06      	cmp	r4, #6
 8002a72:	d002      	beq.n	8002a7a <menu_right_move_mode+0x26>
		else if(menu_fuc.touch_id == 7) { nextion_inst_set("post_t.pco=RED"); selected_button = 7; touch_state = 1; }
 8002a74:	2c07      	cmp	r4, #7
 8002a76:	d107      	bne.n	8002a88 <menu_right_move_mode+0x34>
 8002a78:	4828      	ldr	r0, [pc, #160]	; (8002b1c <menu_right_move_mode+0xc8>)
 8002a7a:	f7ff fb63 	bl	8002144 <nextion_inst_set>
 8002a7e:	4b25      	ldr	r3, [pc, #148]	; (8002b14 <menu_right_move_mode+0xc0>)
 8002a80:	701c      	strb	r4, [r3, #0]
 8002a82:	2301      	movs	r3, #1
 8002a84:	702b      	strb	r3, [r5, #0]
}
 8002a86:	bdf7      	pop	{r0, r1, r2, r4, r5, r6, r7, pc}
		else if(menu_fuc.touch_id == 8) { nextion_inst_set("door_button.pco=RED"); selected_button = 8; touch_state = 1; }
 8002a88:	4825      	ldr	r0, [pc, #148]	; (8002b20 <menu_right_move_mode+0xcc>)
 8002a8a:	2c08      	cmp	r4, #8
 8002a8c:	d1fb      	bne.n	8002a86 <menu_right_move_mode+0x32>
 8002a8e:	e7f4      	b.n	8002a7a <menu_right_move_mode+0x26>
	else if(touch_state == 1){
 8002a90:	2b01      	cmp	r3, #1
 8002a92:	d1f8      	bne.n	8002a86 <menu_right_move_mode+0x32>
		if(menu_fuc.touch_id == selected_button){
 8002a94:	4e1f      	ldr	r6, [pc, #124]	; (8002b14 <menu_right_move_mode+0xc0>)
 8002a96:	7923      	ldrb	r3, [r4, #4]
 8002a98:	7831      	ldrb	r1, [r6, #0]
 8002a9a:	4299      	cmp	r1, r3
 8002a9c:	d112      	bne.n	8002ac4 <menu_right_move_mode+0x70>
			sprintf(bf, "%s.pco=WHITE", menu_fuc.touch_id == 6 ? "car_t" : menu_fuc.touch_id == 7 ? "post_t" : "door_button");
 8002a9e:	4a21      	ldr	r2, [pc, #132]	; (8002b24 <menu_right_move_mode+0xd0>)
 8002aa0:	2906      	cmp	r1, #6
 8002aa2:	d003      	beq.n	8002aac <menu_right_move_mode+0x58>
 8002aa4:	4a20      	ldr	r2, [pc, #128]	; (8002b28 <menu_right_move_mode+0xd4>)
 8002aa6:	2907      	cmp	r1, #7
 8002aa8:	d000      	beq.n	8002aac <menu_right_move_mode+0x58>
 8002aaa:	4a20      	ldr	r2, [pc, #128]	; (8002b2c <menu_right_move_mode+0xd8>)
 8002aac:	4c20      	ldr	r4, [pc, #128]	; (8002b30 <menu_right_move_mode+0xdc>)
 8002aae:	4921      	ldr	r1, [pc, #132]	; (8002b34 <menu_right_move_mode+0xe0>)
 8002ab0:	0020      	movs	r0, r4
 8002ab2:	f002 fcf9 	bl	80054a8 <siprintf>
			nextion_inst_set(bf);
 8002ab6:	0020      	movs	r0, r4
 8002ab8:	f7ff fb44 	bl	8002144 <nextion_inst_set>
			touch_state = 0; selected_button = 0;
 8002abc:	2300      	movs	r3, #0
 8002abe:	702b      	strb	r3, [r5, #0]
 8002ac0:	7033      	strb	r3, [r6, #0]
 8002ac2:	e7e0      	b.n	8002a86 <menu_right_move_mode+0x32>
		else if(menu_fuc.touch_id >= 6 && menu_fuc.touch_id <= 8){
 8002ac4:	1f9a      	subs	r2, r3, #6
 8002ac6:	2a02      	cmp	r2, #2
 8002ac8:	d8dd      	bhi.n	8002a86 <menu_right_move_mode+0x32>
			uint8_t id_buf = menu_fuc.touch_id;
 8002aca:	466a      	mov	r2, sp
 8002acc:	1dd0      	adds	r0, r2, #7
 8002ace:	7003      	strb	r3, [r0, #0]
			id_buf          = touch_id_adjust(&id_buf);
 8002ad0:	f7ff ffb8 	bl	8002a44 <touch_id_adjust>
 8002ad4:	0007      	movs	r7, r0
			selected_button = touch_id_adjust(&selected_button);
 8002ad6:	0030      	movs	r0, r6
 8002ad8:	f7ff ffb4 	bl	8002a44 <touch_id_adjust>
			menu_fuc.right_menu_y[selected_button - 6] = menu_fuc.right_menu_y[id_buf - 6];
 8002adc:	3f06      	subs	r7, #6
			selected_button = touch_id_adjust(&selected_button);
 8002ade:	7030      	strb	r0, [r6, #0]
			uint8_t temp = menu_fuc.right_menu_y[selected_button - 6];
 8002ae0:	3806      	subs	r0, #6
 8002ae2:	1820      	adds	r0, r4, r0
			menu_fuc.right_menu_y[selected_button - 6] = menu_fuc.right_menu_y[id_buf - 6];
 8002ae4:	19e4      	adds	r4, r4, r7
			uint8_t temp = menu_fuc.right_menu_y[selected_button - 6];
 8002ae6:	7a42      	ldrb	r2, [r0, #9]
			menu_fuc.right_menu_y[selected_button - 6] = menu_fuc.right_menu_y[id_buf - 6];
 8002ae8:	7a61      	ldrb	r1, [r4, #9]
 8002aea:	7241      	strb	r1, [r0, #9]
			menu_fuc.right_menu_y[id_buf - 6] = temp;
 8002aec:	7262      	strb	r2, [r4, #9]
			nextion_inst_set("door_button.pco=WHITE");
 8002aee:	4812      	ldr	r0, [pc, #72]	; (8002b38 <menu_right_move_mode+0xe4>)
 8002af0:	f7ff fb28 	bl	8002144 <nextion_inst_set>
			nextion_inst_set("car_t.pco=WHITE");
 8002af4:	4811      	ldr	r0, [pc, #68]	; (8002b3c <menu_right_move_mode+0xe8>)
 8002af6:	f7ff fb25 	bl	8002144 <nextion_inst_set>
			nextion_inst_set("post_t.pco=WHITE");
 8002afa:	4811      	ldr	r0, [pc, #68]	; (8002b40 <menu_right_move_mode+0xec>)
 8002afc:	f7ff fb22 	bl	8002144 <nextion_inst_set>
			touch_state = 0; selected_button = 0;
 8002b00:	2300      	movs	r3, #0
			Re = 0;
 8002b02:	4a10      	ldr	r2, [pc, #64]	; (8002b44 <menu_right_move_mode+0xf0>)
			touch_state = 0; selected_button = 0;
 8002b04:	702b      	strb	r3, [r5, #0]
 8002b06:	7033      	strb	r3, [r6, #0]
			Re = 0;
 8002b08:	7013      	strb	r3, [r2, #0]
}
 8002b0a:	e7bc      	b.n	8002a86 <menu_right_move_mode+0x32>
 8002b0c:	20000258 	.word	0x20000258
 8002b10:	200002bc 	.word	0x200002bc
 8002b14:	20000287 	.word	0x20000287
 8002b18:	080060cf 	.word	0x080060cf
 8002b1c:	080060dd 	.word	0x080060dd
 8002b20:	080060ec 	.word	0x080060ec
 8002b24:	080060b6 	.word	0x080060b6
 8002b28:	080060bc 	.word	0x080060bc
 8002b2c:	080060c3 	.word	0x080060c3
 8002b30:	20000099 	.word	0x20000099
 8002b34:	08006078 	.word	0x08006078
 8002b38:	08006100 	.word	0x08006100
 8002b3c:	08006116 	.word	0x08006116
 8002b40:	08006126 	.word	0x08006126
 8002b44:	20000098 	.word	0x20000098

08002b48 <menu_touch_sensing_fuc>:
void menu_touch_sensing_fuc(void){
 8002b48:	b510      	push	{r4, lr}
	if(menu_fuc.move_mode == 0){
 8002b4a:	4a1e      	ldr	r2, [pc, #120]	; (8002bc4 <menu_touch_sensing_fuc+0x7c>)
 8002b4c:	7953      	ldrb	r3, [r2, #5]
 8002b4e:	2b00      	cmp	r3, #0
 8002b50:	d12f      	bne.n	8002bb2 <menu_touch_sensing_fuc+0x6a>
		if(menu_fuc.touch_id == 3)      { user_mode.now_page = temp; firF = 0; Re = 0; temp_fuc.pic     = menu_fuc.left_menu_y[0] + 4; }
 8002b52:	7911      	ldrb	r1, [r2, #4]
 8002b54:	2903      	cmp	r1, #3
 8002b56:	d10b      	bne.n	8002b70 <menu_touch_sensing_fuc+0x28>
 8002b58:	2001      	movs	r0, #1
 8002b5a:	491b      	ldr	r1, [pc, #108]	; (8002bc8 <menu_touch_sensing_fuc+0x80>)
 8002b5c:	7008      	strb	r0, [r1, #0]
 8002b5e:	491b      	ldr	r1, [pc, #108]	; (8002bcc <menu_touch_sensing_fuc+0x84>)
 8002b60:	700b      	strb	r3, [r1, #0]
 8002b62:	491b      	ldr	r1, [pc, #108]	; (8002bd0 <menu_touch_sensing_fuc+0x88>)
 8002b64:	700b      	strb	r3, [r1, #0]
 8002b66:	7993      	ldrb	r3, [r2, #6]
 8002b68:	4a1a      	ldr	r2, [pc, #104]	; (8002bd4 <menu_touch_sensing_fuc+0x8c>)
 8002b6a:	3304      	adds	r3, #4
		else if(menu_fuc.touch_id == 4) { user_mode.now_page = hum;  firF = 0; Re = 0; humidity_fuc.pic = menu_fuc.left_menu_y[1] + 4; }
 8002b6c:	7153      	strb	r3, [r2, #5]
}
 8002b6e:	bd10      	pop	{r4, pc}
		else if(menu_fuc.touch_id == 4) { user_mode.now_page = hum;  firF = 0; Re = 0; humidity_fuc.pic = menu_fuc.left_menu_y[1] + 4; }
 8002b70:	2904      	cmp	r1, #4
 8002b72:	d10a      	bne.n	8002b8a <menu_touch_sensing_fuc+0x42>
 8002b74:	2002      	movs	r0, #2
 8002b76:	4914      	ldr	r1, [pc, #80]	; (8002bc8 <menu_touch_sensing_fuc+0x80>)
 8002b78:	7008      	strb	r0, [r1, #0]
 8002b7a:	4914      	ldr	r1, [pc, #80]	; (8002bcc <menu_touch_sensing_fuc+0x84>)
 8002b7c:	700b      	strb	r3, [r1, #0]
 8002b7e:	4914      	ldr	r1, [pc, #80]	; (8002bd0 <menu_touch_sensing_fuc+0x88>)
 8002b80:	700b      	strb	r3, [r1, #0]
 8002b82:	79d3      	ldrb	r3, [r2, #7]
 8002b84:	4a14      	ldr	r2, [pc, #80]	; (8002bd8 <menu_touch_sensing_fuc+0x90>)
 8002b86:	3304      	adds	r3, #4
 8002b88:	e7f0      	b.n	8002b6c <menu_touch_sensing_fuc+0x24>
		else if(menu_fuc.touch_id == 5) { user_mode.now_page = co2;  firF = 0; Re = 0; co2_fuc.pic      = menu_fuc.left_menu_y[2] + 4; }
 8002b8a:	2905      	cmp	r1, #5
 8002b8c:	d10a      	bne.n	8002ba4 <menu_touch_sensing_fuc+0x5c>
 8002b8e:	2003      	movs	r0, #3
 8002b90:	490d      	ldr	r1, [pc, #52]	; (8002bc8 <menu_touch_sensing_fuc+0x80>)
 8002b92:	7008      	strb	r0, [r1, #0]
 8002b94:	490d      	ldr	r1, [pc, #52]	; (8002bcc <menu_touch_sensing_fuc+0x84>)
 8002b96:	700b      	strb	r3, [r1, #0]
 8002b98:	490d      	ldr	r1, [pc, #52]	; (8002bd0 <menu_touch_sensing_fuc+0x88>)
 8002b9a:	700b      	strb	r3, [r1, #0]
 8002b9c:	7a13      	ldrb	r3, [r2, #8]
 8002b9e:	4a0f      	ldr	r2, [pc, #60]	; (8002bdc <menu_touch_sensing_fuc+0x94>)
 8002ba0:	3304      	adds	r3, #4
 8002ba2:	e7e3      	b.n	8002b6c <menu_touch_sensing_fuc+0x24>
		else if(menu_fuc.touch_id == 6) { menu_fuc.move_mode = 1; menu_fuc.touch_id = 0; Re = 0; }
 8002ba4:	2906      	cmp	r1, #6
 8002ba6:	d1e2      	bne.n	8002b6e <menu_touch_sensing_fuc+0x26>
 8002ba8:	31fa      	adds	r1, #250	; 0xfa
 8002baa:	8091      	strh	r1, [r2, #4]
 8002bac:	4a08      	ldr	r2, [pc, #32]	; (8002bd0 <menu_touch_sensing_fuc+0x88>)
 8002bae:	7013      	strb	r3, [r2, #0]
 8002bb0:	e7dd      	b.n	8002b6e <menu_touch_sensing_fuc+0x26>
	else if(menu_fuc.move_mode == 1){
 8002bb2:	2b01      	cmp	r3, #1
 8002bb4:	d1db      	bne.n	8002b6e <menu_touch_sensing_fuc+0x26>
		menu_left_move_mode();
 8002bb6:	f7ff fed5 	bl	8002964 <menu_left_move_mode>
		menu_right_move_mode();
 8002bba:	f7ff ff4b 	bl	8002a54 <menu_right_move_mode>
		menu_move_mode_check();
 8002bbe:	f7ff fe9b 	bl	80028f8 <menu_move_mode_check>
}
 8002bc2:	e7d4      	b.n	8002b6e <menu_touch_sensing_fuc+0x26>
 8002bc4:	20000258 	.word	0x20000258
 8002bc8:	200002dc 	.word	0x200002dc
 8002bcc:	2000011f 	.word	0x2000011f
 8002bd0:	20000098 	.word	0x20000098
 8002bd4:	2000029c 	.word	0x2000029c
 8002bd8:	2000023c 	.word	0x2000023c
 8002bdc:	20000100 	.word	0x20000100

08002be0 <door_lock_control>:
	door_lock = !door_lock;
 8002be0:	4a04      	ldr	r2, [pc, #16]	; (8002bf4 <door_lock_control+0x14>)
 8002be2:	7813      	ldrb	r3, [r2, #0]
 8002be4:	4259      	negs	r1, r3
 8002be6:	414b      	adcs	r3, r1
 8002be8:	7013      	strb	r3, [r2, #0]
	Re = 0;
 8002bea:	2200      	movs	r2, #0
 8002bec:	4b02      	ldr	r3, [pc, #8]	; (8002bf8 <door_lock_control+0x18>)
 8002bee:	701a      	strb	r2, [r3, #0]
}
 8002bf0:	4770      	bx	lr
 8002bf2:	46c0      	nop			; (mov r8, r8)
 8002bf4:	2000011c 	.word	0x2000011c
 8002bf8:	20000098 	.word	0x20000098

08002bfc <door_open_control>:
void door_open_control(void){
 8002bfc:	b5f8      	push	{r3, r4, r5, r6, r7, lr}
	LED(1, door_state);
 8002bfe:	4b36      	ldr	r3, [pc, #216]	; (8002cd8 <door_open_control+0xdc>)
	if(sw(1)){
 8002c00:	2001      	movs	r0, #1
	LED(1, door_state);
 8002c02:	781c      	ldrb	r4, [r3, #0]
 8002c04:	0023      	movs	r3, r4
 8002c06:	1e5a      	subs	r2, r3, #1
 8002c08:	4193      	sbcs	r3, r2
 8002c0a:	4a34      	ldr	r2, [pc, #208]	; (8002cdc <door_open_control+0xe0>)
 8002c0c:	425b      	negs	r3, r3
 8002c0e:	4013      	ands	r3, r2
 8002c10:	22a0      	movs	r2, #160	; 0xa0
 8002c12:	3308      	adds	r3, #8
 8002c14:	05d2      	lsls	r2, r2, #23
 8002c16:	6193      	str	r3, [r2, #24]
	if(sw(1)){
 8002c18:	f7ff fdb4 	bl	8002784 <sw>
 8002c1c:	4d30      	ldr	r5, [pc, #192]	; (8002ce0 <door_open_control+0xe4>)
 8002c1e:	2800      	cmp	r0, #0
 8002c20:	d00e      	beq.n	8002c40 <door_open_control+0x44>
		if(door_lock == 0 && door_state == door_close_state){
 8002c22:	4b30      	ldr	r3, [pc, #192]	; (8002ce4 <door_open_control+0xe8>)
 8002c24:	781b      	ldrb	r3, [r3, #0]
 8002c26:	2b00      	cmp	r3, #0
 8002c28:	d123      	bne.n	8002c72 <door_open_control+0x76>
 8002c2a:	2c00      	cmp	r4, #0
 8002c2c:	d150      	bne.n	8002cd0 <door_open_control+0xd4>
			user_buz.buzM = buz_door_on;
 8002c2e:	4b2e      	ldr	r3, [pc, #184]	; (8002ce8 <door_open_control+0xec>)
 8002c30:	4a2e      	ldr	r2, [pc, #184]	; (8002cec <door_open_control+0xf0>)
 8002c32:	801a      	strh	r2, [r3, #0]
			pushed_sw = 1;
 8002c34:	2301      	movs	r3, #1
			pushed_sw = 2;
 8002c36:	702b      	strb	r3, [r5, #0]
			t = HAL_GetTick();
 8002c38:	f000 fc32 	bl	80034a0 <HAL_GetTick>
 8002c3c:	4b2c      	ldr	r3, [pc, #176]	; (8002cf0 <door_open_control+0xf4>)
 8002c3e:	6018      	str	r0, [r3, #0]
	if(pushed_sw == 1){
 8002c40:	782c      	ldrb	r4, [r5, #0]
 8002c42:	2c01      	cmp	r4, #1
 8002c44:	d132      	bne.n	8002cac <door_open_control+0xb0>
		if(user_buz.buzM == 0){
 8002c46:	4b28      	ldr	r3, [pc, #160]	; (8002ce8 <door_open_control+0xec>)
 8002c48:	4e29      	ldr	r6, [pc, #164]	; (8002cf0 <door_open_control+0xf4>)
 8002c4a:	781f      	ldrb	r7, [r3, #0]
 8002c4c:	2f00      	cmp	r7, #0
 8002c4e:	d126      	bne.n	8002c9e <door_open_control+0xa2>
			if(HAL_GetTick() - t > 3000){                            // wait 3 second
 8002c50:	f000 fc26 	bl	80034a0 <HAL_GetTick>
 8002c54:	6833      	ldr	r3, [r6, #0]
 8002c56:	1ac0      	subs	r0, r0, r3
 8002c58:	4b26      	ldr	r3, [pc, #152]	; (8002cf4 <door_open_control+0xf8>)
 8002c5a:	4298      	cmp	r0, r3
 8002c5c:	d925      	bls.n	8002caa <door_open_control+0xae>
				if(HAL_GetTick() - t < 4000) setMotor(DRV8830_CW);   // run motor 1 second
 8002c5e:	f000 fc1f 	bl	80034a0 <HAL_GetTick>
 8002c62:	6833      	ldr	r3, [r6, #0]
 8002c64:	1ac0      	subs	r0, r0, r3
 8002c66:	23fa      	movs	r3, #250	; 0xfa
 8002c68:	011b      	lsls	r3, r3, #4
 8002c6a:	4298      	cmp	r0, r3
 8002c6c:	d20b      	bcs.n	8002c86 <door_open_control+0x8a>
		if(HAL_GetTick() - t < 1000) setMotor(DRV8830_CCW);
 8002c6e:	0020      	movs	r0, r4
 8002c70:	e012      	b.n	8002c98 <door_open_control+0x9c>
		else if(door_state == door_open_state){
 8002c72:	2c01      	cmp	r4, #1
 8002c74:	d101      	bne.n	8002c7a <door_open_control+0x7e>
			pushed_sw = 2;
 8002c76:	2302      	movs	r3, #2
 8002c78:	e7dd      	b.n	8002c36 <door_open_control+0x3a>
		else if(door_lock == 1){
 8002c7a:	2b01      	cmp	r3, #1
 8002c7c:	d1e0      	bne.n	8002c40 <door_open_control+0x44>
			user_buz.buzM = buz_door_on;
 8002c7e:	4b1a      	ldr	r3, [pc, #104]	; (8002ce8 <door_open_control+0xec>)
 8002c80:	4a1d      	ldr	r2, [pc, #116]	; (8002cf8 <door_open_control+0xfc>)
 8002c82:	801a      	strh	r2, [r3, #0]
 8002c84:	e7dc      	b.n	8002c40 <door_open_control+0x44>
					t = HAL_GetTick();
 8002c86:	f000 fc0b 	bl	80034a0 <HAL_GetTick>
 8002c8a:	6030      	str	r0, [r6, #0]
					setMotor(DRV8830_STOP);
 8002c8c:	0038      	movs	r0, r7
					door_state = door_open_state;
 8002c8e:	4b12      	ldr	r3, [pc, #72]	; (8002cd8 <door_open_control+0xdc>)
					pushed_sw = 0;
 8002c90:	702f      	strb	r7, [r5, #0]
					door_state = door_open_state;
 8002c92:	701c      	strb	r4, [r3, #0]
					door_open = 1;
 8002c94:	4b19      	ldr	r3, [pc, #100]	; (8002cfc <door_open_control+0x100>)
 8002c96:	701c      	strb	r4, [r3, #0]
			setMotor(DRV8830_STOP);
 8002c98:	f7ff fa80 	bl	800219c <setMotor>
}
 8002c9c:	e005      	b.n	8002caa <door_open_control+0xae>
		else { setMotor(DRV8830_STOP); t = HAL_GetTick(); }
 8002c9e:	2000      	movs	r0, #0
 8002ca0:	f7ff fa7c 	bl	800219c <setMotor>
 8002ca4:	f000 fbfc 	bl	80034a0 <HAL_GetTick>
 8002ca8:	6030      	str	r0, [r6, #0]
}
 8002caa:	bdf8      	pop	{r3, r4, r5, r6, r7, pc}
	else if(pushed_sw == 2){
 8002cac:	2c02      	cmp	r4, #2
 8002cae:	d1fc      	bne.n	8002caa <door_open_control+0xae>
		if(HAL_GetTick() - t < 1000) setMotor(DRV8830_CCW);
 8002cb0:	f000 fbf6 	bl	80034a0 <HAL_GetTick>
 8002cb4:	4b0e      	ldr	r3, [pc, #56]	; (8002cf0 <door_open_control+0xf4>)
 8002cb6:	681b      	ldr	r3, [r3, #0]
 8002cb8:	1ac0      	subs	r0, r0, r3
 8002cba:	23fa      	movs	r3, #250	; 0xfa
 8002cbc:	009b      	lsls	r3, r3, #2
 8002cbe:	4298      	cmp	r0, r3
 8002cc0:	d3d5      	bcc.n	8002c6e <door_open_control+0x72>
			door_state = door_close_state;
 8002cc2:	2000      	movs	r0, #0
 8002cc4:	4b04      	ldr	r3, [pc, #16]	; (8002cd8 <door_open_control+0xdc>)
			pushed_sw = 0;
 8002cc6:	7028      	strb	r0, [r5, #0]
			door_state = door_close_state;
 8002cc8:	7018      	strb	r0, [r3, #0]
			door_open = 0;
 8002cca:	4b0c      	ldr	r3, [pc, #48]	; (8002cfc <door_open_control+0x100>)
 8002ccc:	7018      	strb	r0, [r3, #0]
			pushed_sw = 0;
 8002cce:	e7e3      	b.n	8002c98 <door_open_control+0x9c>
		else if(door_state == door_open_state){
 8002cd0:	2c01      	cmp	r4, #1
 8002cd2:	d1b5      	bne.n	8002c40 <door_open_control+0x44>
 8002cd4:	e7cf      	b.n	8002c76 <door_open_control+0x7a>
 8002cd6:	46c0      	nop			; (mov r8, r8)
 8002cd8:	2000011e 	.word	0x2000011e
 8002cdc:	0007fff8 	.word	0x0007fff8
 8002ce0:	20000285 	.word	0x20000285
 8002ce4:	2000011c 	.word	0x2000011c
 8002ce8:	200002c0 	.word	0x200002c0
 8002cec:	00000201 	.word	0x00000201
 8002cf0:	20000298 	.word	0x20000298
 8002cf4:	00000bb8 	.word	0x00000bb8
 8002cf8:	00000401 	.word	0x00000401
 8002cfc:	2000011d 	.word	0x2000011d

08002d00 <PIR_Sensor>:
void PIR_Sensor(void){
 8002d00:	b510      	push	{r4, lr}
	LED(2, pir_sen);
 8002d02:	4c14      	ldr	r4, [pc, #80]	; (8002d54 <PIR_Sensor+0x54>)
 8002d04:	7822      	ldrb	r2, [r4, #0]
 8002d06:	0013      	movs	r3, r2
 8002d08:	1e59      	subs	r1, r3, #1
 8002d0a:	418b      	sbcs	r3, r1
 8002d0c:	4912      	ldr	r1, [pc, #72]	; (8002d58 <PIR_Sensor+0x58>)
 8002d0e:	425b      	negs	r3, r3
 8002d10:	400b      	ands	r3, r1
 8002d12:	21a0      	movs	r1, #160	; 0xa0
 8002d14:	3310      	adds	r3, #16
 8002d16:	05c9      	lsls	r1, r1, #23
 8002d18:	618b      	str	r3, [r1, #24]
	if((PIR_LEFT || PIR_RIGHT) && pir_sen == 0) { pir_sen = 1; t = HAL_GetTick(); }
 8002d1a:	4b10      	ldr	r3, [pc, #64]	; (8002d5c <PIR_Sensor+0x5c>)
 8002d1c:	6919      	ldr	r1, [r3, #16]
 8002d1e:	0789      	lsls	r1, r1, #30
 8002d20:	d402      	bmi.n	8002d28 <PIR_Sensor+0x28>
 8002d22:	691b      	ldr	r3, [r3, #16]
 8002d24:	071b      	lsls	r3, r3, #28
 8002d26:	d507      	bpl.n	8002d38 <PIR_Sensor+0x38>
 8002d28:	2a00      	cmp	r2, #0
 8002d2a:	d105      	bne.n	8002d38 <PIR_Sensor+0x38>
 8002d2c:	2301      	movs	r3, #1
 8002d2e:	7023      	strb	r3, [r4, #0]
 8002d30:	f000 fbb6 	bl	80034a0 <HAL_GetTick>
 8002d34:	4b0a      	ldr	r3, [pc, #40]	; (8002d60 <PIR_Sensor+0x60>)
 8002d36:	6018      	str	r0, [r3, #0]
	if(pir_sen == 1){
 8002d38:	7823      	ldrb	r3, [r4, #0]
 8002d3a:	2b01      	cmp	r3, #1
 8002d3c:	d109      	bne.n	8002d52 <PIR_Sensor+0x52>
		if(HAL_GetTick() - t > 5000) pir_sen = 0;
 8002d3e:	f000 fbaf 	bl	80034a0 <HAL_GetTick>
 8002d42:	4b07      	ldr	r3, [pc, #28]	; (8002d60 <PIR_Sensor+0x60>)
 8002d44:	681b      	ldr	r3, [r3, #0]
 8002d46:	1ac0      	subs	r0, r0, r3
 8002d48:	4b06      	ldr	r3, [pc, #24]	; (8002d64 <PIR_Sensor+0x64>)
 8002d4a:	4298      	cmp	r0, r3
 8002d4c:	d901      	bls.n	8002d52 <PIR_Sensor+0x52>
 8002d4e:	2300      	movs	r3, #0
 8002d50:	7023      	strb	r3, [r4, #0]
}
 8002d52:	bd10      	pop	{r4, pc}
 8002d54:	20000279 	.word	0x20000279
 8002d58:	000ffff0 	.word	0x000ffff0
 8002d5c:	50000400 	.word	0x50000400
 8002d60:	20000294 	.word	0x20000294
 8002d64:	00001388 	.word	0x00001388

08002d68 <post_box>:
void post_box(void){
 8002d68:	b510      	push	{r4, lr}
 8002d6a:	2003      	movs	r0, #3
 8002d6c:	f7ff fcdc 	bl	8002728 <sw.part.0>
 8002d70:	4c16      	ldr	r4, [pc, #88]	; (8002dcc <post_box+0x64>)
	if(sw(3)){
 8002d72:	2800      	cmp	r0, #0
 8002d74:	d00a      	beq.n	8002d8c <post_box+0x24>
		post++, Re = 0;
 8002d76:	2100      	movs	r1, #0
 8002d78:	7822      	ldrb	r2, [r4, #0]
 8002d7a:	4b15      	ldr	r3, [pc, #84]	; (8002dd0 <post_box+0x68>)
 8002d7c:	3201      	adds	r2, #1
 8002d7e:	b2d2      	uxtb	r2, r2
 8002d80:	7019      	strb	r1, [r3, #0]
		sprintf(post_state_text, "%d Box", post);
 8002d82:	4814      	ldr	r0, [pc, #80]	; (8002dd4 <post_box+0x6c>)
 8002d84:	4914      	ldr	r1, [pc, #80]	; (8002dd8 <post_box+0x70>)
		post++, Re = 0;
 8002d86:	7022      	strb	r2, [r4, #0]
		sprintf(post_state_text, "%d Box", post);
 8002d88:	f002 fb8e 	bl	80054a8 <siprintf>
	if(menu_fuc.touch_id == 7 && post > 0 && menu_fuc.move_mode == 0){
 8002d8c:	4b13      	ldr	r3, [pc, #76]	; (8002ddc <post_box+0x74>)
 8002d8e:	791a      	ldrb	r2, [r3, #4]
 8002d90:	2a07      	cmp	r2, #7
 8002d92:	d114      	bne.n	8002dbe <post_box+0x56>
 8002d94:	7822      	ldrb	r2, [r4, #0]
 8002d96:	2a00      	cmp	r2, #0
 8002d98:	d014      	beq.n	8002dc4 <post_box+0x5c>
 8002d9a:	795b      	ldrb	r3, [r3, #5]
 8002d9c:	2b00      	cmp	r3, #0
 8002d9e:	d005      	beq.n	8002dac <post_box+0x44>
	if(post > 0) LED(3,1);
 8002da0:	23a0      	movs	r3, #160	; 0xa0
 8002da2:	2280      	movs	r2, #128	; 0x80
 8002da4:	05db      	lsls	r3, r3, #23
 8002da6:	0392      	lsls	r2, r2, #14
	else LED(3,0);
 8002da8:	619a      	str	r2, [r3, #24]
}
 8002daa:	bd10      	pop	{r4, pc}
		post--; Re = 0;
 8002dac:	4908      	ldr	r1, [pc, #32]	; (8002dd0 <post_box+0x68>)
 8002dae:	3a01      	subs	r2, #1
 8002db0:	b2d2      	uxtb	r2, r2
 8002db2:	700b      	strb	r3, [r1, #0]
		sprintf(post_state_text, "%d Box", post);
 8002db4:	4807      	ldr	r0, [pc, #28]	; (8002dd4 <post_box+0x6c>)
 8002db6:	4908      	ldr	r1, [pc, #32]	; (8002dd8 <post_box+0x70>)
		post--; Re = 0;
 8002db8:	7022      	strb	r2, [r4, #0]
		sprintf(post_state_text, "%d Box", post);
 8002dba:	f002 fb75 	bl	80054a8 <siprintf>
	if(post > 0) LED(3,1);
 8002dbe:	7823      	ldrb	r3, [r4, #0]
 8002dc0:	2b00      	cmp	r3, #0
 8002dc2:	d1ed      	bne.n	8002da0 <post_box+0x38>
	else LED(3,0);
 8002dc4:	23a0      	movs	r3, #160	; 0xa0
 8002dc6:	2220      	movs	r2, #32
 8002dc8:	05db      	lsls	r3, r3, #23
 8002dca:	e7ed      	b.n	8002da8 <post_box+0x40>
 8002dcc:	2000027a 	.word	0x2000027a
 8002dd0:	20000098 	.word	0x20000098
 8002dd4:	2000027b 	.word	0x2000027b
 8002dd8:	08006137 	.word	0x08006137
 8002ddc:	20000258 	.word	0x20000258

08002de0 <menu_etc_sensor_fuc>:
void menu_etc_sensor_fuc(void){
 8002de0:	b510      	push	{r4, lr}
	if(menu_fuc.touch_id == 8 && !door_open && menu_fuc.move_mode == 0) door_lock_control();
 8002de2:	4a09      	ldr	r2, [pc, #36]	; (8002e08 <menu_etc_sensor_fuc+0x28>)
 8002de4:	7913      	ldrb	r3, [r2, #4]
 8002de6:	2b08      	cmp	r3, #8
 8002de8:	d106      	bne.n	8002df8 <menu_etc_sensor_fuc+0x18>
 8002dea:	4b08      	ldr	r3, [pc, #32]	; (8002e0c <menu_etc_sensor_fuc+0x2c>)
 8002dec:	7952      	ldrb	r2, [r2, #5]
 8002dee:	781b      	ldrb	r3, [r3, #0]
 8002df0:	4313      	orrs	r3, r2
 8002df2:	d101      	bne.n	8002df8 <menu_etc_sensor_fuc+0x18>
 8002df4:	f7ff fef4 	bl	8002be0 <door_lock_control>
	door_open_control();
 8002df8:	f7ff ff00 	bl	8002bfc <door_open_control>
	PIR_Sensor();
 8002dfc:	f7ff ff80 	bl	8002d00 <PIR_Sensor>
	post_box();
 8002e00:	f7ff ffb2 	bl	8002d68 <post_box>
}
 8002e04:	bd10      	pop	{r4, pc}
 8002e06:	46c0      	nop			; (mov r8, r8)
 8002e08:	20000258 	.word	0x20000258
 8002e0c:	2000011d 	.word	0x2000011d

08002e10 <HAL_SYSTICK_Callback>:
/* co2 display function end */

/* buzzer running function start */
void HAL_SYSTICK_Callback(void){
	if(user_buz.buzM) user_buz.buzC++;
	else user_buz.buzC = 0;
 8002e10:	2300      	movs	r3, #0
void HAL_SYSTICK_Callback(void){
 8002e12:	b510      	push	{r4, lr}
	if(user_buz.buzM) user_buz.buzC++;
 8002e14:	4c0f      	ldr	r4, [pc, #60]	; (8002e54 <HAL_SYSTICK_Callback+0x44>)
 8002e16:	7820      	ldrb	r0, [r4, #0]
 8002e18:	4298      	cmp	r0, r3
 8002e1a:	d002      	beq.n	8002e22 <HAL_SYSTICK_Callback+0x12>
 8002e1c:	8863      	ldrh	r3, [r4, #2]
 8002e1e:	3301      	adds	r3, #1
 8002e20:	b29b      	uxth	r3, r3

	if(user_buz.buz_re > 0){
 8002e22:	7862      	ldrb	r2, [r4, #1]
 8002e24:	8063      	strh	r3, [r4, #2]
 8002e26:	2a00      	cmp	r2, #0
 8002e28:	d007      	beq.n	8002e3a <HAL_SYSTICK_Callback+0x2a>
		if(user_buz.buzM == buz_door_on){
 8002e2a:	2801      	cmp	r0, #1
 8002e2c:	d105      	bne.n	8002e3a <HAL_SYSTICK_Callback+0x2a>
			if(user_buz.buzC < 500) user_buz.buz_run_fuc(buz_on_state);
 8002e2e:	21fa      	movs	r1, #250	; 0xfa
 8002e30:	68e2      	ldr	r2, [r4, #12]
 8002e32:	0049      	lsls	r1, r1, #1
 8002e34:	428b      	cmp	r3, r1
 8002e36:	d201      	bcs.n	8002e3c <HAL_SYSTICK_Callback+0x2c>
			else if(user_buz.buzC < 1000) user_buz.buz_run_fuc(buz_off_state);
 8002e38:	4790      	blx	r2
				user_buz.buz_check_fuc(&user_buz);
				user_buz.buzC = 0;
			}
		}
	}
}
 8002e3a:	bd10      	pop	{r4, pc}
			else if(user_buz.buzC < 1000) user_buz.buz_run_fuc(buz_off_state);
 8002e3c:	21fa      	movs	r1, #250	; 0xfa
 8002e3e:	2000      	movs	r0, #0
 8002e40:	0089      	lsls	r1, r1, #2
 8002e42:	428b      	cmp	r3, r1
 8002e44:	d3f8      	bcc.n	8002e38 <HAL_SYSTICK_Callback+0x28>
				user_buz.buz_run_fuc(buz_off_state);
 8002e46:	4790      	blx	r2
				user_buz.buz_check_fuc(&user_buz);
 8002e48:	68a3      	ldr	r3, [r4, #8]
 8002e4a:	0020      	movs	r0, r4
 8002e4c:	4798      	blx	r3
				user_buz.buzC = 0;
 8002e4e:	2300      	movs	r3, #0
 8002e50:	8063      	strh	r3, [r4, #2]
}
 8002e52:	e7f2      	b.n	8002e3a <HAL_SYSTICK_Callback+0x2a>
 8002e54:	200002c0 	.word	0x200002c0

08002e58 <SystemClock_Config>:
/**
 * @brief System Clock Configuration
 * @retval None
 */
void SystemClock_Config(void)
{
 8002e58:	b510      	push	{r4, lr}
 8002e5a:	b09c      	sub	sp, #112	; 0x70
	RCC_OscInitTypeDef RCC_OscInitStruct = {0};
 8002e5c:	2224      	movs	r2, #36	; 0x24
 8002e5e:	2100      	movs	r1, #0
 8002e60:	a80f      	add	r0, sp, #60	; 0x3c
 8002e62:	f002 fb19 	bl	8005498 <memset>
	RCC_ClkInitTypeDef RCC_ClkInitStruct = {0};
 8002e66:	2214      	movs	r2, #20
 8002e68:	2100      	movs	r1, #0
 8002e6a:	a801      	add	r0, sp, #4
 8002e6c:	f002 fb14 	bl	8005498 <memset>
	RCC_PeriphCLKInitTypeDef PeriphClkInit = {0};
 8002e70:	2220      	movs	r2, #32
 8002e72:	2100      	movs	r1, #0
 8002e74:	a806      	add	r0, sp, #24
 8002e76:	f002 fb0f 	bl	8005498 <memset>

	/** Configure the main internal regulator output voltage
	 */
	__HAL_PWR_VOLTAGESCALING_CONFIG(PWR_REGULATOR_VOLTAGE_SCALE1);
 8002e7a:	491d      	ldr	r1, [pc, #116]	; (8002ef0 <SystemClock_Config+0x98>)
 8002e7c:	4a1d      	ldr	r2, [pc, #116]	; (8002ef4 <SystemClock_Config+0x9c>)
 8002e7e:	680b      	ldr	r3, [r1, #0]

	/** Initializes the RCC Oscillators according to the specified parameters
	 * in the RCC_OscInitTypeDef structure.
	 */
	RCC_OscInitStruct.OscillatorType = RCC_OSCILLATORTYPE_HSI;
	RCC_OscInitStruct.HSIState = RCC_HSI_ON;
 8002e80:	2401      	movs	r4, #1
	__HAL_PWR_VOLTAGESCALING_CONFIG(PWR_REGULATOR_VOLTAGE_SCALE1);
 8002e82:	401a      	ands	r2, r3
 8002e84:	2380      	movs	r3, #128	; 0x80
 8002e86:	011b      	lsls	r3, r3, #4
 8002e88:	4313      	orrs	r3, r2
 8002e8a:	600b      	str	r3, [r1, #0]
	RCC_OscInitStruct.OscillatorType = RCC_OSCILLATORTYPE_HSI;
 8002e8c:	2302      	movs	r3, #2
 8002e8e:	930e      	str	r3, [sp, #56]	; 0x38
	RCC_OscInitStruct.HSICalibrationValue = RCC_HSICALIBRATION_DEFAULT;
	RCC_OscInitStruct.PLL.PLLState = RCC_PLL_ON;
 8002e90:	9318      	str	r3, [sp, #96]	; 0x60
	RCC_OscInitStruct.PLL.PLLSource = RCC_PLLSOURCE_HSI;
 8002e92:	2300      	movs	r3, #0
 8002e94:	9319      	str	r3, [sp, #100]	; 0x64
	RCC_OscInitStruct.PLL.PLLMUL = RCC_PLLMUL_4;
 8002e96:	2380      	movs	r3, #128	; 0x80
 8002e98:	02db      	lsls	r3, r3, #11
 8002e9a:	931a      	str	r3, [sp, #104]	; 0x68
	RCC_OscInitStruct.PLL.PLLDIV = RCC_PLLDIV_2;
 8002e9c:	2380      	movs	r3, #128	; 0x80
	RCC_OscInitStruct.HSICalibrationValue = RCC_HSICALIBRATION_DEFAULT;
 8002e9e:	2210      	movs	r2, #16
	RCC_OscInitStruct.PLL.PLLDIV = RCC_PLLDIV_2;
 8002ea0:	03db      	lsls	r3, r3, #15
	if (HAL_RCC_OscConfig(&RCC_OscInitStruct) != HAL_OK)
 8002ea2:	a80e      	add	r0, sp, #56	; 0x38
	RCC_OscInitStruct.HSIState = RCC_HSI_ON;
 8002ea4:	9411      	str	r4, [sp, #68]	; 0x44
	RCC_OscInitStruct.HSICalibrationValue = RCC_HSICALIBRATION_DEFAULT;
 8002ea6:	9212      	str	r2, [sp, #72]	; 0x48
	RCC_OscInitStruct.PLL.PLLDIV = RCC_PLLDIV_2;
 8002ea8:	931b      	str	r3, [sp, #108]	; 0x6c
	if (HAL_RCC_OscConfig(&RCC_OscInitStruct) != HAL_OK)
 8002eaa:	f001 f96d 	bl	8004188 <HAL_RCC_OscConfig>
 8002eae:	2800      	cmp	r0, #0
 8002eb0:	d001      	beq.n	8002eb6 <SystemClock_Config+0x5e>
  \details Disables IRQ interrupts by setting the I-bit in the CPSR.
           Can only be executed in Privileged modes.
 */
__STATIC_FORCEINLINE void __disable_irq(void)
{
  __ASM volatile ("cpsid i" : : : "memory");
 8002eb2:	b672      	cpsid	i
void Error_Handler(void)
{
	/* USER CODE BEGIN Error_Handler_Debug */
	/* User can add his own implementation to report the HAL error return state */
	__disable_irq();
	while (1)
 8002eb4:	e7fe      	b.n	8002eb4 <SystemClock_Config+0x5c>
	RCC_ClkInitStruct.ClockType = RCC_CLOCKTYPE_HCLK|RCC_CLOCKTYPE_SYSCLK
 8002eb6:	230f      	movs	r3, #15
	RCC_ClkInitStruct.AHBCLKDivider = RCC_SYSCLK_DIV1;
 8002eb8:	9003      	str	r0, [sp, #12]
	RCC_ClkInitStruct.ClockType = RCC_CLOCKTYPE_HCLK|RCC_CLOCKTYPE_SYSCLK
 8002eba:	9301      	str	r3, [sp, #4]
	RCC_ClkInitStruct.APB1CLKDivider = RCC_HCLK_DIV1;
 8002ebc:	9004      	str	r0, [sp, #16]
	RCC_ClkInitStruct.SYSCLKSource = RCC_SYSCLKSOURCE_PLLCLK;
 8002ebe:	3b0c      	subs	r3, #12
	RCC_ClkInitStruct.APB2CLKDivider = RCC_HCLK_DIV1;
 8002ec0:	9005      	str	r0, [sp, #20]
	if (HAL_RCC_ClockConfig(&RCC_ClkInitStruct, FLASH_LATENCY_1) != HAL_OK)
 8002ec2:	0021      	movs	r1, r4
 8002ec4:	a801      	add	r0, sp, #4
	RCC_ClkInitStruct.SYSCLKSource = RCC_SYSCLKSOURCE_PLLCLK;
 8002ec6:	9302      	str	r3, [sp, #8]
	if (HAL_RCC_ClockConfig(&RCC_ClkInitStruct, FLASH_LATENCY_1) != HAL_OK)
 8002ec8:	f001 fbe0 	bl	800468c <HAL_RCC_ClockConfig>
 8002ecc:	2800      	cmp	r0, #0
 8002ece:	d001      	beq.n	8002ed4 <SystemClock_Config+0x7c>
 8002ed0:	b672      	cpsid	i
	while (1)
 8002ed2:	e7fe      	b.n	8002ed2 <SystemClock_Config+0x7a>
	PeriphClkInit.PeriphClockSelection = RCC_PERIPHCLK_USART1|RCC_PERIPHCLK_I2C1;
 8002ed4:	2309      	movs	r3, #9
	PeriphClkInit.Usart1ClockSelection = RCC_USART1CLKSOURCE_PCLK2;
 8002ed6:	9008      	str	r0, [sp, #32]
	PeriphClkInit.I2c1ClockSelection = RCC_I2C1CLKSOURCE_PCLK1;
 8002ed8:	900b      	str	r0, [sp, #44]	; 0x2c
	if (HAL_RCCEx_PeriphCLKConfig(&PeriphClkInit) != HAL_OK)
 8002eda:	a806      	add	r0, sp, #24
	PeriphClkInit.PeriphClockSelection = RCC_PERIPHCLK_USART1|RCC_PERIPHCLK_I2C1;
 8002edc:	9306      	str	r3, [sp, #24]
	if (HAL_RCCEx_PeriphCLKConfig(&PeriphClkInit) != HAL_OK)
 8002ede:	f001 fcc3 	bl	8004868 <HAL_RCCEx_PeriphCLKConfig>
 8002ee2:	2800      	cmp	r0, #0
 8002ee4:	d001      	beq.n	8002eea <SystemClock_Config+0x92>
 8002ee6:	b672      	cpsid	i
	while (1)
 8002ee8:	e7fe      	b.n	8002ee8 <SystemClock_Config+0x90>
}
 8002eea:	b01c      	add	sp, #112	; 0x70
 8002eec:	bd10      	pop	{r4, pc}
 8002eee:	46c0      	nop			; (mov r8, r8)
 8002ef0:	40007000 	.word	0x40007000
 8002ef4:	ffffe7ff 	.word	0xffffe7ff

08002ef8 <main>:
{
 8002ef8:	b5f0      	push	{r4, r5, r6, r7, lr}
	__HAL_RCC_GPIOA_CLK_ENABLE();
 8002efa:	2601      	movs	r6, #1
{
 8002efc:	b08d      	sub	sp, #52	; 0x34
	HAL_Init();
 8002efe:	f000 faaf 	bl	8003460 <HAL_Init>
	SystemClock_Config();
 8002f02:	f7ff ffa9 	bl	8002e58 <SystemClock_Config>
	GPIO_InitTypeDef GPIO_InitStruct = {0};
 8002f06:	2214      	movs	r2, #20
 8002f08:	2100      	movs	r1, #0
 8002f0a:	a807      	add	r0, sp, #28
 8002f0c:	f002 fac4 	bl	8005498 <memset>
	__HAL_RCC_GPIOB_CLK_ENABLE();
 8002f10:	2102      	movs	r1, #2
	HAL_GPIO_WritePin(GPIOA, LED1_Pin|LED2_Pin|LED3_Pin, GPIO_PIN_RESET);
 8002f12:	25a0      	movs	r5, #160	; 0xa0
	__HAL_RCC_GPIOA_CLK_ENABLE();
 8002f14:	4b80      	ldr	r3, [pc, #512]	; (8003118 <main+0x220>)
	HAL_GPIO_WritePin(GPIOA, LED1_Pin|LED2_Pin|LED3_Pin, GPIO_PIN_RESET);
 8002f16:	05ed      	lsls	r5, r5, #23
	__HAL_RCC_GPIOA_CLK_ENABLE();
 8002f18:	6ada      	ldr	r2, [r3, #44]	; 0x2c
	HAL_GPIO_WritePin(GPIOA, LED1_Pin|LED2_Pin|LED3_Pin, GPIO_PIN_RESET);
 8002f1a:	0028      	movs	r0, r5
	__HAL_RCC_GPIOA_CLK_ENABLE();
 8002f1c:	4332      	orrs	r2, r6
 8002f1e:	62da      	str	r2, [r3, #44]	; 0x2c
 8002f20:	6ada      	ldr	r2, [r3, #44]	; 0x2c
	GPIO_InitStruct.Mode = GPIO_MODE_INPUT;
 8002f22:	2400      	movs	r4, #0
	__HAL_RCC_GPIOA_CLK_ENABLE();
 8002f24:	4032      	ands	r2, r6
 8002f26:	9203      	str	r2, [sp, #12]
 8002f28:	9a03      	ldr	r2, [sp, #12]
	__HAL_RCC_GPIOB_CLK_ENABLE();
 8002f2a:	6ada      	ldr	r2, [r3, #44]	; 0x2c
 8002f2c:	430a      	orrs	r2, r1
 8002f2e:	62da      	str	r2, [r3, #44]	; 0x2c
 8002f30:	6adb      	ldr	r3, [r3, #44]	; 0x2c
	HAL_GPIO_WritePin(GPIOA, LED1_Pin|LED2_Pin|LED3_Pin, GPIO_PIN_RESET);
 8002f32:	2200      	movs	r2, #0
	__HAL_RCC_GPIOB_CLK_ENABLE();
 8002f34:	400b      	ands	r3, r1
 8002f36:	9304      	str	r3, [sp, #16]
	HAL_GPIO_WritePin(GPIOA, LED1_Pin|LED2_Pin|LED3_Pin, GPIO_PIN_RESET);
 8002f38:	3136      	adds	r1, #54	; 0x36
	__HAL_RCC_GPIOB_CLK_ENABLE();
 8002f3a:	9b04      	ldr	r3, [sp, #16]
	HAL_GPIO_WritePin(GPIOA, LED1_Pin|LED2_Pin|LED3_Pin, GPIO_PIN_RESET);
 8002f3c:	f000 fbd0 	bl	80036e0 <HAL_GPIO_WritePin>
	GPIO_InitStruct.Pin = SW1_Pin|SW2_Pin|SW3_Pin;
 8002f40:	2307      	movs	r3, #7
	HAL_GPIO_Init(GPIOA, &GPIO_InitStruct);
 8002f42:	0028      	movs	r0, r5
 8002f44:	a907      	add	r1, sp, #28
	GPIO_InitStruct.Pin = SW1_Pin|SW2_Pin|SW3_Pin;
 8002f46:	9307      	str	r3, [sp, #28]
	GPIO_InitStruct.Mode = GPIO_MODE_INPUT;
 8002f48:	9408      	str	r4, [sp, #32]
	GPIO_InitStruct.Pull = GPIO_PULLUP;
 8002f4a:	9609      	str	r6, [sp, #36]	; 0x24
	HAL_GPIO_Init(GPIOA, &GPIO_InitStruct);
 8002f4c:	f000 fb08 	bl	8003560 <HAL_GPIO_Init>
	GPIO_InitStruct.Pin = LED1_Pin|LED2_Pin|LED3_Pin;
 8002f50:	2338      	movs	r3, #56	; 0x38
	HAL_GPIO_Init(GPIOA, &GPIO_InitStruct);
 8002f52:	0028      	movs	r0, r5
 8002f54:	a907      	add	r1, sp, #28
	GPIO_InitStruct.Pin = LED1_Pin|LED2_Pin|LED3_Pin;
 8002f56:	9307      	str	r3, [sp, #28]
	GPIO_InitStruct.Mode = GPIO_MODE_OUTPUT_PP;
 8002f58:	9608      	str	r6, [sp, #32]
	GPIO_InitStruct.Pull = GPIO_NOPULL;
 8002f5a:	9409      	str	r4, [sp, #36]	; 0x24
	GPIO_InitStruct.Speed = GPIO_SPEED_FREQ_LOW;
 8002f5c:	940a      	str	r4, [sp, #40]	; 0x28
	HAL_GPIO_Init(GPIOA, &GPIO_InitStruct);
 8002f5e:	f000 faff 	bl	8003560 <HAL_GPIO_Init>
	GPIO_InitStruct.Pin = LEFT_Pin|RIGHT_Pin;
 8002f62:	230a      	movs	r3, #10
	HAL_GPIO_Init(GPIOB, &GPIO_InitStruct);
 8002f64:	486d      	ldr	r0, [pc, #436]	; (800311c <main+0x224>)
 8002f66:	a907      	add	r1, sp, #28
	GPIO_InitStruct.Pin = LEFT_Pin|RIGHT_Pin;
 8002f68:	9307      	str	r3, [sp, #28]
	GPIO_InitStruct.Mode = GPIO_MODE_INPUT;
 8002f6a:	9408      	str	r4, [sp, #32]
	GPIO_InitStruct.Pull = GPIO_NOPULL;
 8002f6c:	9409      	str	r4, [sp, #36]	; 0x24
	HAL_GPIO_Init(GPIOB, &GPIO_InitStruct);
 8002f6e:	f000 faf7 	bl	8003560 <HAL_GPIO_Init>
	huart1.Instance = USART1;
 8002f72:	486b      	ldr	r0, [pc, #428]	; (8003120 <main+0x228>)
 8002f74:	4b6b      	ldr	r3, [pc, #428]	; (8003124 <main+0x22c>)
	huart1.Init.WordLength = UART_WORDLENGTH_8B;
 8002f76:	6084      	str	r4, [r0, #8]
	huart1.Instance = USART1;
 8002f78:	6003      	str	r3, [r0, #0]
	huart1.Init.BaudRate = 9600;
 8002f7a:	2396      	movs	r3, #150	; 0x96
 8002f7c:	019b      	lsls	r3, r3, #6
 8002f7e:	6043      	str	r3, [r0, #4]
	huart1.Init.Mode = UART_MODE_TX_RX;
 8002f80:	230c      	movs	r3, #12
	huart1.Init.StopBits = UART_STOPBITS_1;
 8002f82:	60c4      	str	r4, [r0, #12]
	huart1.Init.Parity = UART_PARITY_NONE;
 8002f84:	6104      	str	r4, [r0, #16]
	huart1.Init.Mode = UART_MODE_TX_RX;
 8002f86:	6143      	str	r3, [r0, #20]
	huart1.Init.HwFlowCtl = UART_HWCONTROL_NONE;
 8002f88:	6184      	str	r4, [r0, #24]
	huart1.Init.OverSampling = UART_OVERSAMPLING_16;
 8002f8a:	61c4      	str	r4, [r0, #28]
	huart1.Init.OneBitSampling = UART_ONE_BIT_SAMPLE_DISABLE;
 8002f8c:	6204      	str	r4, [r0, #32]
	huart1.AdvancedInit.AdvFeatureInit = UART_ADVFEATURE_NO_INIT;
 8002f8e:	6244      	str	r4, [r0, #36]	; 0x24
	if (HAL_UART_Init(&huart1) != HAL_OK)
 8002f90:	f002 fa26 	bl	80053e0 <HAL_UART_Init>
 8002f94:	42a0      	cmp	r0, r4
 8002f96:	d001      	beq.n	8002f9c <main+0xa4>
 8002f98:	b672      	cpsid	i
	while (1)
 8002f9a:	e7fe      	b.n	8002f9a <main+0xa2>
	hi2c1.Instance = I2C1;
 8002f9c:	4c62      	ldr	r4, [pc, #392]	; (8003128 <main+0x230>)
 8002f9e:	4b63      	ldr	r3, [pc, #396]	; (800312c <main+0x234>)
	hi2c1.Init.OwnAddress1 = 0;
 8002fa0:	60a0      	str	r0, [r4, #8]
	hi2c1.Instance = I2C1;
 8002fa2:	6023      	str	r3, [r4, #0]
	hi2c1.Init.Timing = 0x00300F38;
 8002fa4:	4b62      	ldr	r3, [pc, #392]	; (8003130 <main+0x238>)
	hi2c1.Init.DualAddressMode = I2C_DUALADDRESS_DISABLE;
 8002fa6:	6120      	str	r0, [r4, #16]
	hi2c1.Init.OwnAddress2 = 0;
 8002fa8:	6160      	str	r0, [r4, #20]
	hi2c1.Init.OwnAddress2Masks = I2C_OA2_NOMASK;
 8002faa:	61a0      	str	r0, [r4, #24]
	hi2c1.Init.GeneralCallMode = I2C_GENERALCALL_DISABLE;
 8002fac:	61e0      	str	r0, [r4, #28]
	hi2c1.Init.NoStretchMode = I2C_NOSTRETCH_DISABLE;
 8002fae:	6220      	str	r0, [r4, #32]
	if (HAL_I2C_Init(&hi2c1) != HAL_OK)
 8002fb0:	0020      	movs	r0, r4
	hi2c1.Init.Timing = 0x00300F38;
 8002fb2:	6063      	str	r3, [r4, #4]
	hi2c1.Init.AddressingMode = I2C_ADDRESSINGMODE_7BIT;
 8002fb4:	60e6      	str	r6, [r4, #12]
	if (HAL_I2C_Init(&hi2c1) != HAL_OK)
 8002fb6:	f000 fd1b 	bl	80039f0 <HAL_I2C_Init>
 8002fba:	1e01      	subs	r1, r0, #0
 8002fbc:	d001      	beq.n	8002fc2 <main+0xca>
 8002fbe:	b672      	cpsid	i
	while (1)
 8002fc0:	e7fe      	b.n	8002fc0 <main+0xc8>
	if (HAL_I2CEx_ConfigAnalogFilter(&hi2c1, I2C_ANALOGFILTER_ENABLE) != HAL_OK)
 8002fc2:	0020      	movs	r0, r4
 8002fc4:	f001 f84e 	bl	8004064 <HAL_I2CEx_ConfigAnalogFilter>
 8002fc8:	1e01      	subs	r1, r0, #0
 8002fca:	d001      	beq.n	8002fd0 <main+0xd8>
 8002fcc:	b672      	cpsid	i
	while (1)
 8002fce:	e7fe      	b.n	8002fce <main+0xd6>
	if (HAL_I2CEx_ConfigDigitalFilter(&hi2c1, 0) != HAL_OK)
 8002fd0:	0020      	movs	r0, r4
 8002fd2:	f001 f86d 	bl	80040b0 <HAL_I2CEx_ConfigDigitalFilter>
 8002fd6:	1e06      	subs	r6, r0, #0
 8002fd8:	d001      	beq.n	8002fde <main+0xe6>
 8002fda:	b672      	cpsid	i
	while (1)
 8002fdc:	e7fe      	b.n	8002fdc <main+0xe4>
	TIM_MasterConfigTypeDef sMasterConfig = {0};
 8002fde:	0001      	movs	r1, r0
 8002fe0:	2208      	movs	r2, #8
 8002fe2:	a805      	add	r0, sp, #20
 8002fe4:	f002 fa58 	bl	8005498 <memset>
	TIM_OC_InitTypeDef sConfigOC = {0};
 8002fe8:	2210      	movs	r2, #16
 8002fea:	0031      	movs	r1, r6
 8002fec:	a807      	add	r0, sp, #28
 8002fee:	f002 fa53 	bl	8005498 <memset>
	htim2.Instance = TIM2;
 8002ff2:	2380      	movs	r3, #128	; 0x80
 8002ff4:	4c4f      	ldr	r4, [pc, #316]	; (8003134 <main+0x23c>)
 8002ff6:	05db      	lsls	r3, r3, #23
 8002ff8:	6023      	str	r3, [r4, #0]
	htim2.Init.Prescaler = 32-1;
 8002ffa:	231f      	movs	r3, #31
	if (HAL_TIM_PWM_Init(&htim2) != HAL_OK)
 8002ffc:	0020      	movs	r0, r4
	htim2.Init.Prescaler = 32-1;
 8002ffe:	6063      	str	r3, [r4, #4]
	htim2.Init.Period = 250-1;
 8003000:	33da      	adds	r3, #218	; 0xda
	htim2.Init.CounterMode = TIM_COUNTERMODE_UP;
 8003002:	60a6      	str	r6, [r4, #8]
	htim2.Init.Period = 250-1;
 8003004:	60e3      	str	r3, [r4, #12]
	htim2.Init.ClockDivision = TIM_CLOCKDIVISION_DIV1;
 8003006:	6126      	str	r6, [r4, #16]
	htim2.Init.AutoReloadPreload = TIM_AUTORELOAD_PRELOAD_DISABLE;
 8003008:	6166      	str	r6, [r4, #20]
	if (HAL_TIM_PWM_Init(&htim2) != HAL_OK)
 800300a:	f001 fdd1 	bl	8004bb0 <HAL_TIM_PWM_Init>
 800300e:	2800      	cmp	r0, #0
 8003010:	d001      	beq.n	8003016 <main+0x11e>
 8003012:	b672      	cpsid	i
	while (1)
 8003014:	e7fe      	b.n	8003014 <main+0x11c>
	sMasterConfig.MasterOutputTrigger = TIM_TRGO_RESET;
 8003016:	9005      	str	r0, [sp, #20]
	sMasterConfig.MasterSlaveMode = TIM_MASTERSLAVEMODE_DISABLE;
 8003018:	9006      	str	r0, [sp, #24]
	if (HAL_TIMEx_MasterConfigSynchronization(&htim2, &sMasterConfig) != HAL_OK)
 800301a:	a905      	add	r1, sp, #20
 800301c:	0020      	movs	r0, r4
 800301e:	f001 fe81 	bl	8004d24 <HAL_TIMEx_MasterConfigSynchronization>
 8003022:	1e02      	subs	r2, r0, #0
 8003024:	d001      	beq.n	800302a <main+0x132>
 8003026:	b672      	cpsid	i
	while (1)
 8003028:	e7fe      	b.n	8003028 <main+0x130>
	sConfigOC.OCMode = TIM_OCMODE_PWM1;
 800302a:	2360      	movs	r3, #96	; 0x60
	sConfigOC.OCPolarity = TIM_OCPOLARITY_HIGH;
 800302c:	9009      	str	r0, [sp, #36]	; 0x24
	sConfigOC.OCMode = TIM_OCMODE_PWM1;
 800302e:	9307      	str	r3, [sp, #28]
	sConfigOC.OCFastMode = TIM_OCFAST_DISABLE;
 8003030:	900a      	str	r0, [sp, #40]	; 0x28
	sConfigOC.Pulse = 125-1;
 8003032:	331c      	adds	r3, #28
	if (HAL_TIM_PWM_ConfigChannel(&htim2, &sConfigOC, TIM_CHANNEL_1) != HAL_OK)
 8003034:	0020      	movs	r0, r4
 8003036:	a907      	add	r1, sp, #28
	sConfigOC.Pulse = 125-1;
 8003038:	9308      	str	r3, [sp, #32]
	if (HAL_TIM_PWM_ConfigChannel(&htim2, &sConfigOC, TIM_CHANNEL_1) != HAL_OK)
 800303a:	f001 fde5 	bl	8004c08 <HAL_TIM_PWM_ConfigChannel>
 800303e:	9000      	str	r0, [sp, #0]
 8003040:	2800      	cmp	r0, #0
 8003042:	d001      	beq.n	8003048 <main+0x150>
 8003044:	b672      	cpsid	i
	while (1)
 8003046:	e7fe      	b.n	8003046 <main+0x14e>
	HAL_TIM_MspPostInit(&htim2);
 8003048:	0020      	movs	r0, r4
 800304a:	f000 f93b 	bl	80032c4 <HAL_TIM_MspPostInit>
	initEns160();
 800304e:	f7ff f8c9 	bl	80021e4 <initEns160>
	initDrv8830();
 8003052:	f7ff f88f 	bl	8002174 <initDrv8830>
	user_buz.buz_reset_fuc = reset_buz;
 8003056:	4838      	ldr	r0, [pc, #224]	; (8003138 <main+0x240>)
 8003058:	4b38      	ldr	r3, [pc, #224]	; (800313c <main+0x244>)
	user_mode.reset_mode_fuc = reset_mode;
 800305a:	4c39      	ldr	r4, [pc, #228]	; (8003140 <main+0x248>)
	user_buz.buz_reset_fuc = reset_buz;
 800305c:	6043      	str	r3, [r0, #4]
	user_mode.reset_mode_fuc = reset_mode;
 800305e:	4b39      	ldr	r3, [pc, #228]	; (8003144 <main+0x24c>)
	user_sht41.reset_sht41_fuc = reset_sht41;
 8003060:	4a39      	ldr	r2, [pc, #228]	; (8003148 <main+0x250>)
	user_mode.reset_mode_fuc = reset_mode;
 8003062:	6063      	str	r3, [r4, #4]
	user_sht41.reset_sht41_fuc = reset_sht41;
 8003064:	4b39      	ldr	r3, [pc, #228]	; (800314c <main+0x254>)
	menu_fuc.struct_reset_fuc = menu_struct_reset_fuc;
 8003066:	4f3a      	ldr	r7, [pc, #232]	; (8003150 <main+0x258>)
	user_sht41.reset_sht41_fuc = reset_sht41;
 8003068:	6093      	str	r3, [r2, #8]
	user_ens160.reset_ens160_fuc = reset_ens160;
 800306a:	4b3a      	ldr	r3, [pc, #232]	; (8003154 <main+0x25c>)
 800306c:	4a3a      	ldr	r2, [pc, #232]	; (8003158 <main+0x260>)
	co2_fuc.struct_reset_fuc = co2_struct_reset_fuc;
 800306e:	4e3b      	ldr	r6, [pc, #236]	; (800315c <main+0x264>)
	user_ens160.reset_ens160_fuc = reset_ens160;
 8003070:	6053      	str	r3, [r2, #4]
	menu_fuc.struct_reset_fuc = menu_struct_reset_fuc;
 8003072:	4b3b      	ldr	r3, [pc, #236]	; (8003160 <main+0x268>)
	temp_fuc.struct_reset_fuc = temp_struct_reset_fuc;
 8003074:	4a3b      	ldr	r2, [pc, #236]	; (8003164 <main+0x26c>)
	menu_fuc.struct_reset_fuc = menu_struct_reset_fuc;
 8003076:	603b      	str	r3, [r7, #0]
	temp_fuc.struct_reset_fuc = temp_struct_reset_fuc;
 8003078:	4b3b      	ldr	r3, [pc, #236]	; (8003168 <main+0x270>)
 800307a:	6013      	str	r3, [r2, #0]
	humidity_fuc.struct_reset_fuc = humidity_struct_reset_fuc;
 800307c:	4a3b      	ldr	r2, [pc, #236]	; (800316c <main+0x274>)
 800307e:	4b3c      	ldr	r3, [pc, #240]	; (8003170 <main+0x278>)
 8003080:	6013      	str	r3, [r2, #0]
	co2_fuc.struct_reset_fuc = co2_struct_reset_fuc;
 8003082:	4b3c      	ldr	r3, [pc, #240]	; (8003174 <main+0x27c>)
 8003084:	6033      	str	r3, [r6, #0]
	user_buz.buz_reset_fuc(&user_buz);
 8003086:	f7ff f8d9 	bl	800223c <reset_buz>
	user_mode.reset_mode_fuc(&user_mode);
 800308a:	0020      	movs	r0, r4
 800308c:	6863      	ldr	r3, [r4, #4]
 800308e:	4798      	blx	r3
	user_sht41.reset_sht41_fuc(&user_sht41);
 8003090:	4b2d      	ldr	r3, [pc, #180]	; (8003148 <main+0x250>)
 8003092:	482d      	ldr	r0, [pc, #180]	; (8003148 <main+0x250>)
 8003094:	689b      	ldr	r3, [r3, #8]
 8003096:	4798      	blx	r3
	user_ens160.reset_ens160_fuc(&user_ens160);
 8003098:	4b2f      	ldr	r3, [pc, #188]	; (8003158 <main+0x260>)
 800309a:	482f      	ldr	r0, [pc, #188]	; (8003158 <main+0x260>)
 800309c:	685b      	ldr	r3, [r3, #4]
 800309e:	4798      	blx	r3
	menu_fuc.struct_reset_fuc(&menu_fuc);
 80030a0:	0038      	movs	r0, r7
 80030a2:	683b      	ldr	r3, [r7, #0]
 80030a4:	4798      	blx	r3
	temp_fuc.struct_reset_fuc(&temp_fuc);
 80030a6:	4b2f      	ldr	r3, [pc, #188]	; (8003164 <main+0x26c>)
 80030a8:	482e      	ldr	r0, [pc, #184]	; (8003164 <main+0x26c>)
 80030aa:	681b      	ldr	r3, [r3, #0]
 80030ac:	9301      	str	r3, [sp, #4]
 80030ae:	4798      	blx	r3
	humidity_fuc.struct_reset_fuc(&humidity_fuc);
 80030b0:	4b2e      	ldr	r3, [pc, #184]	; (800316c <main+0x274>)
 80030b2:	482e      	ldr	r0, [pc, #184]	; (800316c <main+0x274>)
 80030b4:	681b      	ldr	r3, [r3, #0]
 80030b6:	9301      	str	r3, [sp, #4]
 80030b8:	4798      	blx	r3
	co2_fuc.struct_reset_fuc(&co2_fuc);
 80030ba:	0030      	movs	r0, r6
 80030bc:	6833      	ldr	r3, [r6, #0]
 80030be:	4798      	blx	r3
	LED(1,0);
 80030c0:	2308      	movs	r3, #8
 80030c2:	61ab      	str	r3, [r5, #24]
	LED(2,0);
 80030c4:	18db      	adds	r3, r3, r3
 80030c6:	61ab      	str	r3, [r5, #24]
	LED(3,0);
 80030c8:	3310      	adds	r3, #16
 80030ca:	61ab      	str	r3, [r5, #24]
	setMotor(DRV8830_STOP);
 80030cc:	9800      	ldr	r0, [sp, #0]
 80030ce:	f7ff f865 	bl	800219c <setMotor>
	nextion_inst_set("rest");
 80030d2:	4829      	ldr	r0, [pc, #164]	; (8003178 <main+0x280>)
 80030d4:	f7ff f836 	bl	8002144 <nextion_inst_set>
	HAL_Delay(1000);
 80030d8:	20fa      	movs	r0, #250	; 0xfa
 80030da:	0080      	lsls	r0, r0, #2
 80030dc:	f000 f9e6 	bl	80034ac <HAL_Delay>
	nextion_inst_set("sys0=temp_t.y");
 80030e0:	4826      	ldr	r0, [pc, #152]	; (800317c <main+0x284>)
 80030e2:	f7ff f82f 	bl	8002144 <nextion_inst_set>
	nextion_inst_set("sys1=hum_t.y");
 80030e6:	4826      	ldr	r0, [pc, #152]	; (8003180 <main+0x288>)
 80030e8:	f7ff f82c 	bl	8002144 <nextion_inst_set>
	nextion_inst_set("sys2=co2_t.y");
 80030ec:	4825      	ldr	r0, [pc, #148]	; (8003184 <main+0x28c>)
 80030ee:	f7ff f829 	bl	8002144 <nextion_inst_set>
	temp_fuc.pic     = 4;
 80030f2:	2304      	movs	r3, #4
 80030f4:	4a1b      	ldr	r2, [pc, #108]	; (8003164 <main+0x26c>)
 80030f6:	7153      	strb	r3, [r2, #5]
	humidity_fuc.pic = 5;
 80030f8:	4a1c      	ldr	r2, [pc, #112]	; (800316c <main+0x274>)
 80030fa:	3301      	adds	r3, #1
 80030fc:	7153      	strb	r3, [r2, #5]
	co2_fuc.pic      = 6;
 80030fe:	3301      	adds	r3, #1
 8003100:	7173      	strb	r3, [r6, #5]
		menu_fuc.left_menu_y[i] = i;
 8003102:	33fa      	adds	r3, #250	; 0xfa
 8003104:	80fb      	strh	r3, [r7, #6]
 8003106:	4b20      	ldr	r3, [pc, #128]	; (8003188 <main+0x290>)
 8003108:	60bb      	str	r3, [r7, #8]
		user_mode.change_fuc(&user_mode);
 800310a:	68a3      	ldr	r3, [r4, #8]
 800310c:	0020      	movs	r0, r4
 800310e:	4798      	blx	r3
		user_mode.run_fuc();
 8003110:	68e3      	ldr	r3, [r4, #12]
 8003112:	4798      	blx	r3
	while (1)
 8003114:	e7f9      	b.n	800310a <main+0x212>
 8003116:	46c0      	nop			; (mov r8, r8)
 8003118:	40021000 	.word	0x40021000
 800311c:	50000400 	.word	0x50000400
 8003120:	200001b4 	.word	0x200001b4
 8003124:	40013800 	.word	0x40013800
 8003128:	20000120 	.word	0x20000120
 800312c:	40005400 	.word	0x40005400
 8003130:	00300f38 	.word	0x00300f38
 8003134:	20000174 	.word	0x20000174
 8003138:	200002c0 	.word	0x200002c0
 800313c:	0800223d 	.word	0x0800223d
 8003140:	200002dc 	.word	0x200002dc
 8003144:	08002255 	.word	0x08002255
 8003148:	200002ec 	.word	0x200002ec
 800314c:	0800226d 	.word	0x0800226d
 8003150:	20000258 	.word	0x20000258
 8003154:	0800227d 	.word	0x0800227d
 8003158:	200002d0 	.word	0x200002d0
 800315c:	20000100 	.word	0x20000100
 8003160:	080022d5 	.word	0x080022d5
 8003164:	2000029c 	.word	0x2000029c
 8003168:	08002301 	.word	0x08002301
 800316c:	2000023c 	.word	0x2000023c
 8003170:	0800234d 	.word	0x0800234d
 8003174:	080023b9 	.word	0x080023b9
 8003178:	0800613e 	.word	0x0800613e
 800317c:	08006143 	.word	0x08006143
 8003180:	08006151 	.word	0x08006151
 8003184:	0800615e 	.word	0x0800615e
 8003188:	02010002 	.word	0x02010002

0800318c <getTempSht41>:
#include "sht41.h"

extern I2C_HandleTypeDef hi2c1;

SHT41_t	getTempSht41() {
 800318c:	b570      	push	{r4, r5, r6, lr}
	uint8_t txData = SHT41_MeasureHigh;
 800318e:	250f      	movs	r5, #15
 8003190:	23fd      	movs	r3, #253	; 0xfd
	uint8_t	rxData[6];
	SHT41_t result;
	uint16_t buf[2];

	HAL_I2C_Init(&hi2c1);
 8003192:	4e21      	ldr	r6, [pc, #132]	; (8003218 <getTempSht41+0x8c>)
SHT41_t	getTempSht41() {
 8003194:	b086      	sub	sp, #24
 8003196:	0004      	movs	r4, r0
	uint8_t txData = SHT41_MeasureHigh;
 8003198:	446d      	add	r5, sp
	HAL_I2C_Init(&hi2c1);
 800319a:	0030      	movs	r0, r6
	uint8_t txData = SHT41_MeasureHigh;
 800319c:	702b      	strb	r3, [r5, #0]
	HAL_I2C_Init(&hi2c1);
 800319e:	f000 fc27 	bl	80039f0 <HAL_I2C_Init>
	int status = HAL_I2C_Master_Transmit(&hi2c1, SHT41_DeviceAddress, &txData, 1, 1);
 80031a2:	2301      	movs	r3, #1
 80031a4:	002a      	movs	r2, r5
 80031a6:	9300      	str	r3, [sp, #0]
 80031a8:	2188      	movs	r1, #136	; 0x88
 80031aa:	0030      	movs	r0, r6
 80031ac:	f000 fc76 	bl	8003a9c <HAL_I2C_Master_Transmit>
	HAL_Delay(20);
 80031b0:	2014      	movs	r0, #20
 80031b2:	f000 f97b 	bl	80034ac <HAL_Delay>
	status = HAL_I2C_Master_Receive(&hi2c1, SHT41_DeviceAddress, rxData, 6, 10);
 80031b6:	230a      	movs	r3, #10
 80031b8:	ad04      	add	r5, sp, #16
 80031ba:	002a      	movs	r2, r5
 80031bc:	2188      	movs	r1, #136	; 0x88
 80031be:	9300      	str	r3, [sp, #0]
 80031c0:	0030      	movs	r0, r6
 80031c2:	3b04      	subs	r3, #4
 80031c4:	f000 fcfc 	bl	8003bc0 <HAL_I2C_Master_Receive>
	buf[0] = rxData[0] << 8 | rxData[1];
	buf[1] = rxData[3] << 8 | rxData[4];
	result.temperature = -45.0f + (175.0f * ((float)buf[0] / 65535.0f));
	result.humidity = -6.0f + (125.0f * ((float)buf[1] / 65535.0f));
 80031c8:	2213      	movs	r2, #19
 80031ca:	446a      	add	r2, sp
 80031cc:	7850      	ldrb	r0, [r2, #1]
 80031ce:	7813      	ldrb	r3, [r2, #0]
 80031d0:	0200      	lsls	r0, r0, #8
 80031d2:	4318      	orrs	r0, r3
 80031d4:	ba40      	rev16	r0, r0
 80031d6:	b280      	uxth	r0, r0
 80031d8:	f7fd fe84 	bl	8000ee4 <__aeabi_ui2f>
 80031dc:	490f      	ldr	r1, [pc, #60]	; (800321c <getTempSht41+0x90>)
 80031de:	f7fd fa75 	bl	80006cc <__aeabi_fdiv>
 80031e2:	490f      	ldr	r1, [pc, #60]	; (8003220 <getTempSht41+0x94>)
 80031e4:	f7fd fb8a 	bl	80008fc <__aeabi_fmul>
 80031e8:	490e      	ldr	r1, [pc, #56]	; (8003224 <getTempSht41+0x98>)
 80031ea:	f7fd fcad 	bl	8000b48 <__aeabi_fsub>
 80031ee:	1c06      	adds	r6, r0, #0
	result.temperature = -45.0f + (175.0f * ((float)buf[0] / 65535.0f));
 80031f0:	8828      	ldrh	r0, [r5, #0]
 80031f2:	ba40      	rev16	r0, r0
 80031f4:	b280      	uxth	r0, r0
 80031f6:	f7fd fe75 	bl	8000ee4 <__aeabi_ui2f>
 80031fa:	4908      	ldr	r1, [pc, #32]	; (800321c <getTempSht41+0x90>)
 80031fc:	f7fd fa66 	bl	80006cc <__aeabi_fdiv>
 8003200:	4909      	ldr	r1, [pc, #36]	; (8003228 <getTempSht41+0x9c>)
 8003202:	f7fd fb7b 	bl	80008fc <__aeabi_fmul>
 8003206:	4909      	ldr	r1, [pc, #36]	; (800322c <getTempSht41+0xa0>)
 8003208:	f7fd fc9e 	bl	8000b48 <__aeabi_fsub>
	return result;
 800320c:	6020      	str	r0, [r4, #0]
}
 800320e:	0020      	movs	r0, r4
	return result;
 8003210:	6066      	str	r6, [r4, #4]
}
 8003212:	b006      	add	sp, #24
 8003214:	bd70      	pop	{r4, r5, r6, pc}
 8003216:	46c0      	nop			; (mov r8, r8)
 8003218:	20000120 	.word	0x20000120
 800321c:	477fff00 	.word	0x477fff00
 8003220:	42fa0000 	.word	0x42fa0000
 8003224:	40c00000 	.word	0x40c00000
 8003228:	432f0000 	.word	0x432f0000
 800322c:	42340000 	.word	0x42340000

08003230 <HAL_MspInit>:
{
  /* USER CODE BEGIN MspInit 0 */

  /* USER CODE END MspInit 0 */

  __HAL_RCC_SYSCFG_CLK_ENABLE();
 8003230:	2201      	movs	r2, #1
 8003232:	4b05      	ldr	r3, [pc, #20]	; (8003248 <HAL_MspInit+0x18>)
 8003234:	6b59      	ldr	r1, [r3, #52]	; 0x34
 8003236:	430a      	orrs	r2, r1
 8003238:	635a      	str	r2, [r3, #52]	; 0x34
  __HAL_RCC_PWR_CLK_ENABLE();
 800323a:	2280      	movs	r2, #128	; 0x80
 800323c:	6b99      	ldr	r1, [r3, #56]	; 0x38
 800323e:	0552      	lsls	r2, r2, #21
 8003240:	430a      	orrs	r2, r1
 8003242:	639a      	str	r2, [r3, #56]	; 0x38
  /* System interrupt init*/

  /* USER CODE BEGIN MspInit 1 */

  /* USER CODE END MspInit 1 */
}
 8003244:	4770      	bx	lr
 8003246:	46c0      	nop			; (mov r8, r8)
 8003248:	40021000 	.word	0x40021000

0800324c <HAL_I2C_MspInit>:
* This function configures the hardware resources used in this example
* @param hi2c: I2C handle pointer
* @retval None
*/
void HAL_I2C_MspInit(I2C_HandleTypeDef* hi2c)
{
 800324c:	b510      	push	{r4, lr}
 800324e:	0004      	movs	r4, r0
 8003250:	b086      	sub	sp, #24
  GPIO_InitTypeDef GPIO_InitStruct = {0};
 8003252:	2214      	movs	r2, #20
 8003254:	2100      	movs	r1, #0
 8003256:	a801      	add	r0, sp, #4
 8003258:	f002 f91e 	bl	8005498 <memset>
  if(hi2c->Instance==I2C1)
 800325c:	4b0f      	ldr	r3, [pc, #60]	; (800329c <HAL_I2C_MspInit+0x50>)
 800325e:	6822      	ldr	r2, [r4, #0]
 8003260:	429a      	cmp	r2, r3
 8003262:	d119      	bne.n	8003298 <HAL_I2C_MspInit+0x4c>
  {
  /* USER CODE BEGIN I2C1_MspInit 0 */

  /* USER CODE END I2C1_MspInit 0 */

    __HAL_RCC_GPIOB_CLK_ENABLE();
 8003264:	2102      	movs	r1, #2
 8003266:	4c0e      	ldr	r4, [pc, #56]	; (80032a0 <HAL_I2C_MspInit+0x54>)
    GPIO_InitStruct.Pin = GPIO_PIN_6|GPIO_PIN_7;
    GPIO_InitStruct.Mode = GPIO_MODE_AF_OD;
    GPIO_InitStruct.Pull = GPIO_NOPULL;
    GPIO_InitStruct.Speed = GPIO_SPEED_FREQ_VERY_HIGH;
    GPIO_InitStruct.Alternate = GPIO_AF1_I2C1;
    HAL_GPIO_Init(GPIOB, &GPIO_InitStruct);
 8003268:	480e      	ldr	r0, [pc, #56]	; (80032a4 <HAL_I2C_MspInit+0x58>)
    __HAL_RCC_GPIOB_CLK_ENABLE();
 800326a:	6ae2      	ldr	r2, [r4, #44]	; 0x2c
 800326c:	430a      	orrs	r2, r1
 800326e:	62e2      	str	r2, [r4, #44]	; 0x2c
 8003270:	6ae3      	ldr	r3, [r4, #44]	; 0x2c
 8003272:	400b      	ands	r3, r1
 8003274:	9300      	str	r3, [sp, #0]
 8003276:	9b00      	ldr	r3, [sp, #0]
    GPIO_InitStruct.Pin = GPIO_PIN_6|GPIO_PIN_7;
 8003278:	23c0      	movs	r3, #192	; 0xc0
 800327a:	9301      	str	r3, [sp, #4]
    GPIO_InitStruct.Mode = GPIO_MODE_AF_OD;
 800327c:	3bae      	subs	r3, #174	; 0xae
 800327e:	9302      	str	r3, [sp, #8]
    GPIO_InitStruct.Speed = GPIO_SPEED_FREQ_VERY_HIGH;
 8003280:	3b0f      	subs	r3, #15
 8003282:	9304      	str	r3, [sp, #16]
    HAL_GPIO_Init(GPIOB, &GPIO_InitStruct);
 8003284:	a901      	add	r1, sp, #4
    GPIO_InitStruct.Alternate = GPIO_AF1_I2C1;
 8003286:	3b02      	subs	r3, #2
 8003288:	9305      	str	r3, [sp, #20]
    HAL_GPIO_Init(GPIOB, &GPIO_InitStruct);
 800328a:	f000 f969 	bl	8003560 <HAL_GPIO_Init>

    /* Peripheral clock enable */
    __HAL_RCC_I2C1_CLK_ENABLE();
 800328e:	2380      	movs	r3, #128	; 0x80
 8003290:	6ba2      	ldr	r2, [r4, #56]	; 0x38
 8003292:	039b      	lsls	r3, r3, #14
 8003294:	4313      	orrs	r3, r2
 8003296:	63a3      	str	r3, [r4, #56]	; 0x38
  /* USER CODE BEGIN I2C1_MspInit 1 */

  /* USER CODE END I2C1_MspInit 1 */
  }

}
 8003298:	b006      	add	sp, #24
 800329a:	bd10      	pop	{r4, pc}
 800329c:	40005400 	.word	0x40005400
 80032a0:	40021000 	.word	0x40021000
 80032a4:	50000400 	.word	0x50000400

080032a8 <HAL_TIM_PWM_MspInit>:
* @param htim_pwm: TIM_PWM handle pointer
* @retval None
*/
void HAL_TIM_PWM_MspInit(TIM_HandleTypeDef* htim_pwm)
{
  if(htim_pwm->Instance==TIM2)
 80032a8:	2380      	movs	r3, #128	; 0x80
 80032aa:	6802      	ldr	r2, [r0, #0]
 80032ac:	05db      	lsls	r3, r3, #23
 80032ae:	429a      	cmp	r2, r3
 80032b0:	d104      	bne.n	80032bc <HAL_TIM_PWM_MspInit+0x14>
  {
  /* USER CODE BEGIN TIM2_MspInit 0 */

  /* USER CODE END TIM2_MspInit 0 */
    /* Peripheral clock enable */
    __HAL_RCC_TIM2_CLK_ENABLE();
 80032b2:	2301      	movs	r3, #1
 80032b4:	4a02      	ldr	r2, [pc, #8]	; (80032c0 <HAL_TIM_PWM_MspInit+0x18>)
 80032b6:	6b91      	ldr	r1, [r2, #56]	; 0x38
 80032b8:	430b      	orrs	r3, r1
 80032ba:	6393      	str	r3, [r2, #56]	; 0x38
  /* USER CODE BEGIN TIM2_MspInit 1 */

  /* USER CODE END TIM2_MspInit 1 */
  }

}
 80032bc:	4770      	bx	lr
 80032be:	46c0      	nop			; (mov r8, r8)
 80032c0:	40021000 	.word	0x40021000

080032c4 <HAL_TIM_MspPostInit>:

void HAL_TIM_MspPostInit(TIM_HandleTypeDef* htim)
{
 80032c4:	b510      	push	{r4, lr}
 80032c6:	0004      	movs	r4, r0
 80032c8:	b086      	sub	sp, #24
  GPIO_InitTypeDef GPIO_InitStruct = {0};
 80032ca:	2214      	movs	r2, #20
 80032cc:	2100      	movs	r1, #0
 80032ce:	a801      	add	r0, sp, #4
 80032d0:	f002 f8e2 	bl	8005498 <memset>
  if(htim->Instance==TIM2)
 80032d4:	2380      	movs	r3, #128	; 0x80
 80032d6:	6822      	ldr	r2, [r4, #0]
 80032d8:	05db      	lsls	r3, r3, #23
 80032da:	429a      	cmp	r2, r3
 80032dc:	d114      	bne.n	8003308 <HAL_TIM_MspPostInit+0x44>
  {
  /* USER CODE BEGIN TIM2_MspPostInit 0 */

  /* USER CODE END TIM2_MspPostInit 0 */

    __HAL_RCC_GPIOA_CLK_ENABLE();
 80032de:	2001      	movs	r0, #1
 80032e0:	4a0a      	ldr	r2, [pc, #40]	; (800330c <HAL_TIM_MspPostInit+0x48>)
 80032e2:	6ad1      	ldr	r1, [r2, #44]	; 0x2c
 80032e4:	4301      	orrs	r1, r0
 80032e6:	62d1      	str	r1, [r2, #44]	; 0x2c
 80032e8:	6ad3      	ldr	r3, [r2, #44]	; 0x2c
    GPIO_InitStruct.Pin = GPIO_PIN_15;
    GPIO_InitStruct.Mode = GPIO_MODE_AF_PP;
    GPIO_InitStruct.Pull = GPIO_NOPULL;
    GPIO_InitStruct.Speed = GPIO_SPEED_FREQ_LOW;
    GPIO_InitStruct.Alternate = GPIO_AF5_TIM2;
    HAL_GPIO_Init(GPIOA, &GPIO_InitStruct);
 80032ea:	a901      	add	r1, sp, #4
    __HAL_RCC_GPIOA_CLK_ENABLE();
 80032ec:	4003      	ands	r3, r0
 80032ee:	9300      	str	r3, [sp, #0]
 80032f0:	9b00      	ldr	r3, [sp, #0]
    GPIO_InitStruct.Pin = GPIO_PIN_15;
 80032f2:	2380      	movs	r3, #128	; 0x80
 80032f4:	021b      	lsls	r3, r3, #8
    HAL_GPIO_Init(GPIOA, &GPIO_InitStruct);
 80032f6:	20a0      	movs	r0, #160	; 0xa0
    GPIO_InitStruct.Pin = GPIO_PIN_15;
 80032f8:	9301      	str	r3, [sp, #4]
    GPIO_InitStruct.Mode = GPIO_MODE_AF_PP;
 80032fa:	2302      	movs	r3, #2
    HAL_GPIO_Init(GPIOA, &GPIO_InitStruct);
 80032fc:	05c0      	lsls	r0, r0, #23
    GPIO_InitStruct.Mode = GPIO_MODE_AF_PP;
 80032fe:	9302      	str	r3, [sp, #8]
    GPIO_InitStruct.Alternate = GPIO_AF5_TIM2;
 8003300:	3303      	adds	r3, #3
 8003302:	9305      	str	r3, [sp, #20]
    HAL_GPIO_Init(GPIOA, &GPIO_InitStruct);
 8003304:	f000 f92c 	bl	8003560 <HAL_GPIO_Init>
  /* USER CODE BEGIN TIM2_MspPostInit 1 */

  /* USER CODE END TIM2_MspPostInit 1 */
  }

}
 8003308:	b006      	add	sp, #24
 800330a:	bd10      	pop	{r4, pc}
 800330c:	40021000 	.word	0x40021000

08003310 <HAL_UART_MspInit>:
* This function configures the hardware resources used in this example
* @param huart: UART handle pointer
* @retval None
*/
void HAL_UART_MspInit(UART_HandleTypeDef* huart)
{
 8003310:	b510      	push	{r4, lr}
 8003312:	0004      	movs	r4, r0
 8003314:	b086      	sub	sp, #24
  GPIO_InitTypeDef GPIO_InitStruct = {0};
 8003316:	2214      	movs	r2, #20
 8003318:	2100      	movs	r1, #0
 800331a:	a801      	add	r0, sp, #4
 800331c:	f002 f8bc 	bl	8005498 <memset>
  if(huart->Instance==USART1)
 8003320:	4b10      	ldr	r3, [pc, #64]	; (8003364 <HAL_UART_MspInit+0x54>)
 8003322:	6822      	ldr	r2, [r4, #0]
 8003324:	429a      	cmp	r2, r3
 8003326:	d11b      	bne.n	8003360 <HAL_UART_MspInit+0x50>
  {
  /* USER CODE BEGIN USART1_MspInit 0 */

  /* USER CODE END USART1_MspInit 0 */
    /* Peripheral clock enable */
    __HAL_RCC_USART1_CLK_ENABLE();
 8003328:	2280      	movs	r2, #128	; 0x80
 800332a:	4b0f      	ldr	r3, [pc, #60]	; (8003368 <HAL_UART_MspInit+0x58>)
 800332c:	01d2      	lsls	r2, r2, #7
 800332e:	6b59      	ldr	r1, [r3, #52]	; 0x34
    GPIO_InitStruct.Pin = TX_Pin|RX_Pin;
    GPIO_InitStruct.Mode = GPIO_MODE_AF_PP;
    GPIO_InitStruct.Pull = GPIO_NOPULL;
    GPIO_InitStruct.Speed = GPIO_SPEED_FREQ_VERY_HIGH;
    GPIO_InitStruct.Alternate = GPIO_AF4_USART1;
    HAL_GPIO_Init(GPIOA, &GPIO_InitStruct);
 8003330:	20a0      	movs	r0, #160	; 0xa0
    __HAL_RCC_USART1_CLK_ENABLE();
 8003332:	430a      	orrs	r2, r1
    __HAL_RCC_GPIOA_CLK_ENABLE();
 8003334:	2101      	movs	r1, #1
    __HAL_RCC_USART1_CLK_ENABLE();
 8003336:	635a      	str	r2, [r3, #52]	; 0x34
    __HAL_RCC_GPIOA_CLK_ENABLE();
 8003338:	6ada      	ldr	r2, [r3, #44]	; 0x2c
    HAL_GPIO_Init(GPIOA, &GPIO_InitStruct);
 800333a:	05c0      	lsls	r0, r0, #23
    __HAL_RCC_GPIOA_CLK_ENABLE();
 800333c:	430a      	orrs	r2, r1
 800333e:	62da      	str	r2, [r3, #44]	; 0x2c
 8003340:	6adb      	ldr	r3, [r3, #44]	; 0x2c
 8003342:	400b      	ands	r3, r1
 8003344:	9300      	str	r3, [sp, #0]
 8003346:	9b00      	ldr	r3, [sp, #0]
    GPIO_InitStruct.Pin = TX_Pin|RX_Pin;
 8003348:	23c0      	movs	r3, #192	; 0xc0
 800334a:	00db      	lsls	r3, r3, #3
 800334c:	9301      	str	r3, [sp, #4]
    GPIO_InitStruct.Mode = GPIO_MODE_AF_PP;
 800334e:	2302      	movs	r3, #2
 8003350:	9302      	str	r3, [sp, #8]
    GPIO_InitStruct.Speed = GPIO_SPEED_FREQ_VERY_HIGH;
 8003352:	185b      	adds	r3, r3, r1
 8003354:	9304      	str	r3, [sp, #16]
    GPIO_InitStruct.Alternate = GPIO_AF4_USART1;
 8003356:	185b      	adds	r3, r3, r1
    HAL_GPIO_Init(GPIOA, &GPIO_InitStruct);
 8003358:	a901      	add	r1, sp, #4
    GPIO_InitStruct.Alternate = GPIO_AF4_USART1;
 800335a:	9305      	str	r3, [sp, #20]
    HAL_GPIO_Init(GPIOA, &GPIO_InitStruct);
 800335c:	f000 f900 	bl	8003560 <HAL_GPIO_Init>
  /* USER CODE BEGIN USART1_MspInit 1 */

  /* USER CODE END USART1_MspInit 1 */
  }

}
 8003360:	b006      	add	sp, #24
 8003362:	bd10      	pop	{r4, pc}
 8003364:	40013800 	.word	0x40013800
 8003368:	40021000 	.word	0x40021000

0800336c <NMI_Handler>:
{
  /* USER CODE BEGIN NonMaskableInt_IRQn 0 */

  /* USER CODE END NonMaskableInt_IRQn 0 */
  /* USER CODE BEGIN NonMaskableInt_IRQn 1 */
  while (1)
 800336c:	e7fe      	b.n	800336c <NMI_Handler>

0800336e <HardFault_Handler>:
void HardFault_Handler(void)
{
  /* USER CODE BEGIN HardFault_IRQn 0 */

  /* USER CODE END HardFault_IRQn 0 */
  while (1)
 800336e:	e7fe      	b.n	800336e <HardFault_Handler>

08003370 <SVC_Handler>:

  /* USER CODE END SVC_IRQn 0 */
  /* USER CODE BEGIN SVC_IRQn 1 */

  /* USER CODE END SVC_IRQn 1 */
}
 8003370:	4770      	bx	lr

08003372 <PendSV_Handler>:
 8003372:	4770      	bx	lr

08003374 <SysTick_Handler>:

/**
  * @brief This function handles System tick timer.
  */
void SysTick_Handler(void)
{
 8003374:	b510      	push	{r4, lr}
  /* USER CODE BEGIN SysTick_IRQn 0 */

  /* USER CODE END SysTick_IRQn 0 */
  HAL_IncTick();
 8003376:	f000 f887 	bl	8003488 <HAL_IncTick>
  /* USER CODE BEGIN SysTick_IRQn 1 */
  HAL_SYSTICK_IRQHandler();
 800337a:	f000 f8ed 	bl	8003558 <HAL_SYSTICK_IRQHandler>
  /* USER CODE END SysTick_IRQn 1 */
}
 800337e:	bd10      	pop	{r4, pc}

08003380 <_sbrk>:
void *_sbrk(ptrdiff_t incr)
{
  extern uint8_t _end; /* Symbol defined in the linker script */
  extern uint8_t _estack; /* Symbol defined in the linker script */
  extern uint32_t _Min_Stack_Size; /* Symbol defined in the linker script */
  const uint32_t stack_limit = (uint32_t)&_estack - (uint32_t)&_Min_Stack_Size;
 8003380:	4a0b      	ldr	r2, [pc, #44]	; (80033b0 <_sbrk+0x30>)
 8003382:	490c      	ldr	r1, [pc, #48]	; (80033b4 <_sbrk+0x34>)
{
 8003384:	0003      	movs	r3, r0
  const uint32_t stack_limit = (uint32_t)&_estack - (uint32_t)&_Min_Stack_Size;
 8003386:	1a89      	subs	r1, r1, r2
  const uint8_t *max_heap = (uint8_t *)stack_limit;
  uint8_t *prev_heap_end;

  /* Initialize heap end at first call */
  if (NULL == __sbrk_heap_end)
 8003388:	4a0b      	ldr	r2, [pc, #44]	; (80033b8 <_sbrk+0x38>)
{
 800338a:	b510      	push	{r4, lr}
  if (NULL == __sbrk_heap_end)
 800338c:	6810      	ldr	r0, [r2, #0]
 800338e:	2800      	cmp	r0, #0
 8003390:	d101      	bne.n	8003396 <_sbrk+0x16>
  {
    __sbrk_heap_end = &_end;
 8003392:	480a      	ldr	r0, [pc, #40]	; (80033bc <_sbrk+0x3c>)
 8003394:	6010      	str	r0, [r2, #0]
  }

  /* Protect heap from growing into the reserved MSP stack */
  if (__sbrk_heap_end + incr > max_heap)
 8003396:	6810      	ldr	r0, [r2, #0]
 8003398:	18c3      	adds	r3, r0, r3
 800339a:	428b      	cmp	r3, r1
 800339c:	d906      	bls.n	80033ac <_sbrk+0x2c>
  {
    errno = ENOMEM;
 800339e:	f002 f851 	bl	8005444 <__errno>
 80033a2:	230c      	movs	r3, #12
 80033a4:	6003      	str	r3, [r0, #0]
    return (void *)-1;
 80033a6:	2001      	movs	r0, #1
 80033a8:	4240      	negs	r0, r0

  prev_heap_end = __sbrk_heap_end;
  __sbrk_heap_end += incr;

  return (void *)prev_heap_end;
}
 80033aa:	bd10      	pop	{r4, pc}
  __sbrk_heap_end += incr;
 80033ac:	6013      	str	r3, [r2, #0]
  return (void *)prev_heap_end;
 80033ae:	e7fc      	b.n	80033aa <_sbrk+0x2a>
 80033b0:	00000400 	.word	0x00000400
 80033b4:	20002000 	.word	0x20002000
 80033b8:	200002fc 	.word	0x200002fc
 80033bc:	20000318 	.word	0x20000318

080033c0 <SystemInit>:
{
  /* Configure the Vector Table location add offset address ------------------*/
#if defined (USER_VECT_TAB_ADDRESS)
  SCB->VTOR = VECT_TAB_BASE_ADDRESS | VECT_TAB_OFFSET; /* Vector Table Relocation in Internal SRAM */
#endif /* USER_VECT_TAB_ADDRESS */
}
 80033c0:	4770      	bx	lr
	...

080033c4 <Reset_Handler>:

    .section  .text.Reset_Handler
  .weak  Reset_Handler
  .type  Reset_Handler, %function
Reset_Handler:  
   ldr   r0, =_estack
 80033c4:	480d      	ldr	r0, [pc, #52]	; (80033fc <LoopForever+0x2>)
   mov   sp, r0          /* set stack pointer */
 80033c6:	4685      	mov	sp, r0
   
/* Call the clock system initialization function.*/
  bl  SystemInit
 80033c8:	f7ff fffa 	bl	80033c0 <SystemInit>

/* Copy the data segment initializers from flash to SRAM */
  ldr r0, =_sdata
 80033cc:	480c      	ldr	r0, [pc, #48]	; (8003400 <LoopForever+0x6>)
  ldr r1, =_edata
 80033ce:	490d      	ldr	r1, [pc, #52]	; (8003404 <LoopForever+0xa>)
  ldr r2, =_sidata
 80033d0:	4a0d      	ldr	r2, [pc, #52]	; (8003408 <LoopForever+0xe>)
  movs r3, #0
 80033d2:	2300      	movs	r3, #0
  b LoopCopyDataInit
 80033d4:	e002      	b.n	80033dc <LoopCopyDataInit>

080033d6 <CopyDataInit>:

CopyDataInit:
  ldr r4, [r2, r3]
 80033d6:	58d4      	ldr	r4, [r2, r3]
  str r4, [r0, r3]
 80033d8:	50c4      	str	r4, [r0, r3]
  adds r3, r3, #4
 80033da:	3304      	adds	r3, #4

080033dc <LoopCopyDataInit>:

LoopCopyDataInit:
  adds r4, r0, r3
 80033dc:	18c4      	adds	r4, r0, r3
  cmp r4, r1
 80033de:	428c      	cmp	r4, r1
  bcc CopyDataInit
 80033e0:	d3f9      	bcc.n	80033d6 <CopyDataInit>
  
/* Zero fill the bss segment. */
  ldr r2, =_sbss
 80033e2:	4a0a      	ldr	r2, [pc, #40]	; (800340c <LoopForever+0x12>)
  ldr r4, =_ebss
 80033e4:	4c0a      	ldr	r4, [pc, #40]	; (8003410 <LoopForever+0x16>)
  movs r3, #0
 80033e6:	2300      	movs	r3, #0
  b LoopFillZerobss
 80033e8:	e001      	b.n	80033ee <LoopFillZerobss>

080033ea <FillZerobss>:

FillZerobss:
  str  r3, [r2]
 80033ea:	6013      	str	r3, [r2, #0]
  adds r2, r2, #4
 80033ec:	3204      	adds	r2, #4

080033ee <LoopFillZerobss>:

LoopFillZerobss:
  cmp r2, r4
 80033ee:	42a2      	cmp	r2, r4
  bcc FillZerobss
 80033f0:	d3fb      	bcc.n	80033ea <FillZerobss>

/* Call static constructors */
    bl __libc_init_array
 80033f2:	f002 f82d 	bl	8005450 <__libc_init_array>
/* Call the application's entry point.*/
  bl  main
 80033f6:	f7ff fd7f 	bl	8002ef8 <main>

080033fa <LoopForever>:

LoopForever:
    b LoopForever
 80033fa:	e7fe      	b.n	80033fa <LoopForever>
   ldr   r0, =_estack
 80033fc:	20002000 	.word	0x20002000
  ldr r0, =_sdata
 8003400:	20000000 	.word	0x20000000
  ldr r1, =_edata
 8003404:	2000007c 	.word	0x2000007c
  ldr r2, =_sidata
 8003408:	080061fc 	.word	0x080061fc
  ldr r2, =_sbss
 800340c:	2000007c 	.word	0x2000007c
  ldr r4, =_ebss
 8003410:	20000314 	.word	0x20000314

08003414 <ADC1_COMP_IRQHandler>:
 * @retval : None
*/
    .section  .text.Default_Handler,"ax",%progbits
Default_Handler:
Infinite_Loop:
  b  Infinite_Loop
 8003414:	e7fe      	b.n	8003414 <ADC1_COMP_IRQHandler>
	...

08003418 <HAL_InitTick>:
  *       implementation  in user file.
  * @param TickPriority Tick interrupt priority.
  * @retval HAL status
  */
__weak HAL_StatusTypeDef HAL_InitTick(uint32_t TickPriority)
{
 8003418:	b570      	push	{r4, r5, r6, lr}
 800341a:	0005      	movs	r5, r0
  /* Configure the SysTick to have interrupt in 1ms time basis*/
  if (HAL_SYSTICK_Config(SystemCoreClock / (1000U / uwTickFreq)) > 0U)
 800341c:	20fa      	movs	r0, #250	; 0xfa
 800341e:	4b0d      	ldr	r3, [pc, #52]	; (8003454 <HAL_InitTick+0x3c>)
 8003420:	0080      	lsls	r0, r0, #2
 8003422:	7819      	ldrb	r1, [r3, #0]
 8003424:	f7fc fe8c 	bl	8000140 <__udivsi3>
 8003428:	4b0b      	ldr	r3, [pc, #44]	; (8003458 <HAL_InitTick+0x40>)
 800342a:	0001      	movs	r1, r0
 800342c:	6818      	ldr	r0, [r3, #0]
 800342e:	f7fc fe87 	bl	8000140 <__udivsi3>
 8003432:	f000 f877 	bl	8003524 <HAL_SYSTICK_Config>
 8003436:	0004      	movs	r4, r0
  {
    return HAL_ERROR;
 8003438:	2001      	movs	r0, #1
  if (HAL_SYSTICK_Config(SystemCoreClock / (1000U / uwTickFreq)) > 0U)
 800343a:	2c00      	cmp	r4, #0
 800343c:	d109      	bne.n	8003452 <HAL_InitTick+0x3a>
  }

  /* Configure the SysTick IRQ priority */
  if (TickPriority < (1UL << __NVIC_PRIO_BITS))
 800343e:	2d03      	cmp	r5, #3
 8003440:	d807      	bhi.n	8003452 <HAL_InitTick+0x3a>
  {
    HAL_NVIC_SetPriority(SysTick_IRQn, TickPriority, 0U);
 8003442:	3802      	subs	r0, #2
 8003444:	0022      	movs	r2, r4
 8003446:	0029      	movs	r1, r5
 8003448:	f000 f842 	bl	80034d0 <HAL_NVIC_SetPriority>
    uwTickPrio = TickPriority;
 800344c:	0020      	movs	r0, r4
 800344e:	4b03      	ldr	r3, [pc, #12]	; (800345c <HAL_InitTick+0x44>)
 8003450:	601d      	str	r5, [r3, #0]
    return HAL_ERROR;
  }

  /* Return function status */
  return HAL_OK;
}
 8003452:	bd70      	pop	{r4, r5, r6, pc}
 8003454:	20000010 	.word	0x20000010
 8003458:	2000000c 	.word	0x2000000c
 800345c:	20000014 	.word	0x20000014

08003460 <HAL_Init>:
  __HAL_FLASH_PREREAD_BUFFER_ENABLE();
 8003460:	2340      	movs	r3, #64	; 0x40
 8003462:	4a08      	ldr	r2, [pc, #32]	; (8003484 <HAL_Init+0x24>)
{
 8003464:	b510      	push	{r4, lr}
  __HAL_FLASH_PREREAD_BUFFER_ENABLE();
 8003466:	6811      	ldr	r1, [r2, #0]
  if (HAL_InitTick(TICK_INT_PRIORITY) != HAL_OK)
 8003468:	2003      	movs	r0, #3
  __HAL_FLASH_PREREAD_BUFFER_ENABLE();
 800346a:	430b      	orrs	r3, r1
 800346c:	6013      	str	r3, [r2, #0]
  if (HAL_InitTick(TICK_INT_PRIORITY) != HAL_OK)
 800346e:	f7ff ffd3 	bl	8003418 <HAL_InitTick>
 8003472:	1e04      	subs	r4, r0, #0
 8003474:	d103      	bne.n	800347e <HAL_Init+0x1e>
    HAL_MspInit();
 8003476:	f7ff fedb 	bl	8003230 <HAL_MspInit>
}
 800347a:	0020      	movs	r0, r4
 800347c:	bd10      	pop	{r4, pc}
    status = HAL_ERROR;
 800347e:	2401      	movs	r4, #1
 8003480:	e7fb      	b.n	800347a <HAL_Init+0x1a>
 8003482:	46c0      	nop			; (mov r8, r8)
 8003484:	40022000 	.word	0x40022000

08003488 <HAL_IncTick>:
  *      implementations in user file.
  * @retval None
  */
__weak void HAL_IncTick(void)
{
  uwTick += uwTickFreq;
 8003488:	4a03      	ldr	r2, [pc, #12]	; (8003498 <HAL_IncTick+0x10>)
 800348a:	4b04      	ldr	r3, [pc, #16]	; (800349c <HAL_IncTick+0x14>)
 800348c:	6811      	ldr	r1, [r2, #0]
 800348e:	781b      	ldrb	r3, [r3, #0]
 8003490:	185b      	adds	r3, r3, r1
 8003492:	6013      	str	r3, [r2, #0]
}
 8003494:	4770      	bx	lr
 8003496:	46c0      	nop			; (mov r8, r8)
 8003498:	20000300 	.word	0x20000300
 800349c:	20000010 	.word	0x20000010

080034a0 <HAL_GetTick>:
  *       implementations in user file.
  * @retval tick value
  */
__weak uint32_t HAL_GetTick(void)
{
  return uwTick;
 80034a0:	4b01      	ldr	r3, [pc, #4]	; (80034a8 <HAL_GetTick+0x8>)
 80034a2:	6818      	ldr	r0, [r3, #0]
}
 80034a4:	4770      	bx	lr
 80034a6:	46c0      	nop			; (mov r8, r8)
 80034a8:	20000300 	.word	0x20000300

080034ac <HAL_Delay>:
  *       implementations in user file.
  * @param Delay specifies the delay time length, in milliseconds.
  * @retval None
  */
__weak void HAL_Delay(uint32_t Delay)
{
 80034ac:	b570      	push	{r4, r5, r6, lr}
 80034ae:	0004      	movs	r4, r0
  uint32_t tickstart = HAL_GetTick();
 80034b0:	f7ff fff6 	bl	80034a0 <HAL_GetTick>
 80034b4:	0005      	movs	r5, r0
  uint32_t wait = Delay;

  /* Add a freq to guarantee minimum wait */
  if (wait < HAL_MAX_DELAY)
 80034b6:	1c63      	adds	r3, r4, #1
 80034b8:	d002      	beq.n	80034c0 <HAL_Delay+0x14>
  {
    wait += (uint32_t)(uwTickFreq);
 80034ba:	4b04      	ldr	r3, [pc, #16]	; (80034cc <HAL_Delay+0x20>)
 80034bc:	781b      	ldrb	r3, [r3, #0]
 80034be:	18e4      	adds	r4, r4, r3
  }

  while((HAL_GetTick() - tickstart) < wait)
 80034c0:	f7ff ffee 	bl	80034a0 <HAL_GetTick>
 80034c4:	1b40      	subs	r0, r0, r5
 80034c6:	42a0      	cmp	r0, r4
 80034c8:	d3fa      	bcc.n	80034c0 <HAL_Delay+0x14>
  {
  }
}
 80034ca:	bd70      	pop	{r4, r5, r6, pc}
 80034cc:	20000010 	.word	0x20000010

080034d0 <HAL_NVIC_SetPriority>:
  *         with stm32l0xx devices, this parameter is a dummy value and it is ignored, because 
  *         no subpriority supported in Cortex M0+ based products.   
  * @retval None
  */
void HAL_NVIC_SetPriority(IRQn_Type IRQn, uint32_t PreemptPriority, uint32_t SubPriority)
{ 
 80034d0:	b530      	push	{r4, r5, lr}
 */
__STATIC_INLINE void __NVIC_SetPriority(IRQn_Type IRQn, uint32_t priority)
{
  if ((int32_t)(IRQn) >= 0)
  {
    NVIC->IP[_IP_IDX(IRQn)]  = ((uint32_t)(NVIC->IP[_IP_IDX(IRQn)]  & ~(0xFFUL << _BIT_SHIFT(IRQn))) |
 80034d2:	25ff      	movs	r5, #255	; 0xff
 80034d4:	2403      	movs	r4, #3
 80034d6:	002a      	movs	r2, r5
 80034d8:	4004      	ands	r4, r0
 80034da:	00e4      	lsls	r4, r4, #3
 80034dc:	40a2      	lsls	r2, r4
       (((priority << (8U - __NVIC_PRIO_BITS)) & (uint32_t)0xFFUL) << _BIT_SHIFT(IRQn)));
 80034de:	0189      	lsls	r1, r1, #6
 80034e0:	4029      	ands	r1, r5
    NVIC->IP[_IP_IDX(IRQn)]  = ((uint32_t)(NVIC->IP[_IP_IDX(IRQn)]  & ~(0xFFUL << _BIT_SHIFT(IRQn))) |
 80034e2:	43d2      	mvns	r2, r2
       (((priority << (8U - __NVIC_PRIO_BITS)) & (uint32_t)0xFFUL) << _BIT_SHIFT(IRQn)));
 80034e4:	40a1      	lsls	r1, r4
    NVIC->IP[_IP_IDX(IRQn)]  = ((uint32_t)(NVIC->IP[_IP_IDX(IRQn)]  & ~(0xFFUL << _BIT_SHIFT(IRQn))) |
 80034e6:	b2c3      	uxtb	r3, r0
  if ((int32_t)(IRQn) >= 0)
 80034e8:	2800      	cmp	r0, #0
 80034ea:	db0a      	blt.n	8003502 <HAL_NVIC_SetPriority+0x32>
    NVIC->IP[_IP_IDX(IRQn)]  = ((uint32_t)(NVIC->IP[_IP_IDX(IRQn)]  & ~(0xFFUL << _BIT_SHIFT(IRQn))) |
 80034ec:	24c0      	movs	r4, #192	; 0xc0
 80034ee:	4b0b      	ldr	r3, [pc, #44]	; (800351c <HAL_NVIC_SetPriority+0x4c>)
 80034f0:	0880      	lsrs	r0, r0, #2
 80034f2:	0080      	lsls	r0, r0, #2
 80034f4:	18c0      	adds	r0, r0, r3
 80034f6:	00a4      	lsls	r4, r4, #2
 80034f8:	5903      	ldr	r3, [r0, r4]
 80034fa:	401a      	ands	r2, r3
 80034fc:	4311      	orrs	r1, r2
 80034fe:	5101      	str	r1, [r0, r4]
    /* Check the parameters */
  assert_param(IS_NVIC_PREEMPTION_PRIORITY(PreemptPriority));
  NVIC_SetPriority(IRQn,PreemptPriority);
}
 8003500:	bd30      	pop	{r4, r5, pc}
  }
  else
  {
    SCB->SHP[_SHP_IDX(IRQn)] = ((uint32_t)(SCB->SHP[_SHP_IDX(IRQn)] & ~(0xFFUL << _BIT_SHIFT(IRQn))) |
 8003502:	200f      	movs	r0, #15
 8003504:	4003      	ands	r3, r0
 8003506:	3b08      	subs	r3, #8
 8003508:	4805      	ldr	r0, [pc, #20]	; (8003520 <HAL_NVIC_SetPriority+0x50>)
 800350a:	089b      	lsrs	r3, r3, #2
 800350c:	009b      	lsls	r3, r3, #2
 800350e:	181b      	adds	r3, r3, r0
 8003510:	69d8      	ldr	r0, [r3, #28]
 8003512:	4002      	ands	r2, r0
 8003514:	4311      	orrs	r1, r2
 8003516:	61d9      	str	r1, [r3, #28]
 8003518:	e7f2      	b.n	8003500 <HAL_NVIC_SetPriority+0x30>
 800351a:	46c0      	nop			; (mov r8, r8)
 800351c:	e000e100 	.word	0xe000e100
 8003520:	e000ed00 	.word	0xe000ed00

08003524 <HAL_SYSTICK_Config>:
           function <b>SysTick_Config</b> is not included. In this case, the file <b><i>device</i>.h</b>
           must contain a vendor-specific implementation of this function.
 */
__STATIC_INLINE uint32_t SysTick_Config(uint32_t ticks)
{
  if ((ticks - 1UL) > SysTick_LOAD_RELOAD_Msk)
 8003524:	2280      	movs	r2, #128	; 0x80
 8003526:	1e43      	subs	r3, r0, #1
 8003528:	0452      	lsls	r2, r2, #17
  {
    return (1UL);                                                   /* Reload value impossible */
 800352a:	2001      	movs	r0, #1
  if ((ticks - 1UL) > SysTick_LOAD_RELOAD_Msk)
 800352c:	4293      	cmp	r3, r2
 800352e:	d20d      	bcs.n	800354c <HAL_SYSTICK_Config+0x28>
    SCB->SHP[_SHP_IDX(IRQn)] = ((uint32_t)(SCB->SHP[_SHP_IDX(IRQn)] & ~(0xFFUL << _BIT_SHIFT(IRQn))) |
 8003530:	21c0      	movs	r1, #192	; 0xc0
  }

  SysTick->LOAD  = (uint32_t)(ticks - 1UL);                         /* set reload register */
 8003532:	4a07      	ldr	r2, [pc, #28]	; (8003550 <HAL_SYSTICK_Config+0x2c>)
    SCB->SHP[_SHP_IDX(IRQn)] = ((uint32_t)(SCB->SHP[_SHP_IDX(IRQn)] & ~(0xFFUL << _BIT_SHIFT(IRQn))) |
 8003534:	4807      	ldr	r0, [pc, #28]	; (8003554 <HAL_SYSTICK_Config+0x30>)
  SysTick->LOAD  = (uint32_t)(ticks - 1UL);                         /* set reload register */
 8003536:	6053      	str	r3, [r2, #4]
    SCB->SHP[_SHP_IDX(IRQn)] = ((uint32_t)(SCB->SHP[_SHP_IDX(IRQn)] & ~(0xFFUL << _BIT_SHIFT(IRQn))) |
 8003538:	6a03      	ldr	r3, [r0, #32]
 800353a:	0609      	lsls	r1, r1, #24
 800353c:	021b      	lsls	r3, r3, #8
 800353e:	0a1b      	lsrs	r3, r3, #8
 8003540:	430b      	orrs	r3, r1
 8003542:	6203      	str	r3, [r0, #32]
  NVIC_SetPriority (SysTick_IRQn, (1UL << __NVIC_PRIO_BITS) - 1UL); /* set Priority for Systick Interrupt */
  SysTick->VAL   = 0UL;                                             /* Load the SysTick Counter Value */
 8003544:	2000      	movs	r0, #0
  SysTick->CTRL  = SysTick_CTRL_CLKSOURCE_Msk |
 8003546:	2307      	movs	r3, #7
  SysTick->VAL   = 0UL;                                             /* Load the SysTick Counter Value */
 8003548:	6090      	str	r0, [r2, #8]
  SysTick->CTRL  = SysTick_CTRL_CLKSOURCE_Msk |
 800354a:	6013      	str	r3, [r2, #0]
  *                  - 1  Function failed.
  */
uint32_t HAL_SYSTICK_Config(uint32_t TicksNumb)
{
   return SysTick_Config(TicksNumb);
}
 800354c:	4770      	bx	lr
 800354e:	46c0      	nop			; (mov r8, r8)
 8003550:	e000e010 	.word	0xe000e010
 8003554:	e000ed00 	.word	0xe000ed00

08003558 <HAL_SYSTICK_IRQHandler>:
/**
  * @brief  Handle SYSTICK interrupt request.
  * @retval None
  */
void HAL_SYSTICK_IRQHandler(void)
{
 8003558:	b510      	push	{r4, lr}
  HAL_SYSTICK_Callback();
 800355a:	f7ff fc59 	bl	8002e10 <HAL_SYSTICK_Callback>
}
 800355e:	bd10      	pop	{r4, pc}

08003560 <HAL_GPIO_Init>:
        /* Enable SYSCFG Clock */
        __HAL_RCC_SYSCFG_CLK_ENABLE();

        temp = SYSCFG->EXTICR[position >> 2U];
        CLEAR_BIT(temp, (0x0FUL) << (4U * (position & 0x03U)));
        SET_BIT(temp, (GPIO_GET_INDEX(GPIOx)) << (4 * (position & 0x03U)));
 8003560:	4a58      	ldr	r2, [pc, #352]	; (80036c4 <HAL_GPIO_Init+0x164>)
{
 8003562:	b5f0      	push	{r4, r5, r6, r7, lr}
        SET_BIT(temp, (GPIO_GET_INDEX(GPIOx)) << (4 * (position & 0x03U)));
 8003564:	1882      	adds	r2, r0, r2
 8003566:	1e54      	subs	r4, r2, #1
 8003568:	41a2      	sbcs	r2, r4
  uint32_t position = 0x00U;
 800356a:	2300      	movs	r3, #0
{
 800356c:	b087      	sub	sp, #28
        SET_BIT(temp, (GPIO_GET_INDEX(GPIOx)) << (4 * (position & 0x03U)));
 800356e:	3205      	adds	r2, #5
{
 8003570:	9103      	str	r1, [sp, #12]
        SET_BIT(temp, (GPIO_GET_INDEX(GPIOx)) << (4 * (position & 0x03U)));
 8003572:	9205      	str	r2, [sp, #20]
  while (((GPIO_Init->Pin) >> position) != 0)
 8003574:	9a03      	ldr	r2, [sp, #12]
 8003576:	6812      	ldr	r2, [r2, #0]
 8003578:	0014      	movs	r4, r2
 800357a:	40dc      	lsrs	r4, r3
 800357c:	d101      	bne.n	8003582 <HAL_GPIO_Init+0x22>
        EXTI->IMR = temp;
      }
    }
    position++;
  }
}
 800357e:	b007      	add	sp, #28
 8003580:	bdf0      	pop	{r4, r5, r6, r7, pc}
    iocurrent = (GPIO_Init->Pin) & (1U << position);
 8003582:	2101      	movs	r1, #1
 8003584:	000d      	movs	r5, r1
 8003586:	0014      	movs	r4, r2
 8003588:	409d      	lsls	r5, r3
 800358a:	402c      	ands	r4, r5
 800358c:	468c      	mov	ip, r1
 800358e:	9402      	str	r4, [sp, #8]
    if (iocurrent)
 8003590:	422a      	tst	r2, r5
 8003592:	d100      	bne.n	8003596 <HAL_GPIO_Init+0x36>
 8003594:	e094      	b.n	80036c0 <HAL_GPIO_Init+0x160>
      if (((GPIO_Init->Mode & GPIO_MODE) == MODE_OUTPUT) ||
 8003596:	2403      	movs	r4, #3
 8003598:	9a03      	ldr	r2, [sp, #12]
 800359a:	005e      	lsls	r6, r3, #1
 800359c:	6852      	ldr	r2, [r2, #4]
 800359e:	9201      	str	r2, [sp, #4]
 80035a0:	4022      	ands	r2, r4
        temp &= ~(GPIO_OSPEEDER_OSPEED0 << (position * 2U));
 80035a2:	40b4      	lsls	r4, r6
 80035a4:	43e1      	mvns	r1, r4
      if (((GPIO_Init->Mode & GPIO_MODE) == MODE_OUTPUT) ||
 80035a6:	1e54      	subs	r4, r2, #1
        temp &= ~(GPIO_OSPEEDER_OSPEED0 << (position * 2U));
 80035a8:	9104      	str	r1, [sp, #16]
      if (((GPIO_Init->Mode & GPIO_MODE) == MODE_OUTPUT) ||
 80035aa:	4564      	cmp	r4, ip
 80035ac:	d82a      	bhi.n	8003604 <HAL_GPIO_Init+0xa4>
        temp = GPIOx->OSPEEDR;
 80035ae:	6887      	ldr	r7, [r0, #8]
        temp &= ~(GPIO_OSPEEDER_OSPEED0 << (position * 2U));
 80035b0:	400f      	ands	r7, r1
        temp |= (GPIO_Init->Speed << (position * 2U));
 80035b2:	9903      	ldr	r1, [sp, #12]
 80035b4:	68cc      	ldr	r4, [r1, #12]
        temp |= (((GPIO_Init->Mode & OUTPUT_TYPE) >> OUTPUT_TYPE_Pos) << position);
 80035b6:	9901      	ldr	r1, [sp, #4]
        temp |= (GPIO_Init->Speed << (position * 2U));
 80035b8:	40b4      	lsls	r4, r6
 80035ba:	433c      	orrs	r4, r7
        GPIOx->OSPEEDR = temp;
 80035bc:	6084      	str	r4, [r0, #8]
        temp = GPIOx->OTYPER;
 80035be:	6844      	ldr	r4, [r0, #4]
        temp &= ~(GPIO_OTYPER_OT_0 << position) ;
 80035c0:	43ac      	bics	r4, r5
 80035c2:	0025      	movs	r5, r4
        temp |= (((GPIO_Init->Mode & OUTPUT_TYPE) >> OUTPUT_TYPE_Pos) << position);
 80035c4:	090c      	lsrs	r4, r1, #4
 80035c6:	4661      	mov	r1, ip
 80035c8:	400c      	ands	r4, r1
 80035ca:	409c      	lsls	r4, r3
 80035cc:	432c      	orrs	r4, r5
        GPIOx->OTYPER = temp;
 80035ce:	6044      	str	r4, [r0, #4]
        temp = GPIOx->PUPDR;
 80035d0:	68c5      	ldr	r5, [r0, #12]
        temp &= ~(GPIO_PUPDR_PUPD0 << (position * 2U));
 80035d2:	9904      	ldr	r1, [sp, #16]
 80035d4:	400d      	ands	r5, r1
        temp |= ((GPIO_Init->Pull) << (position * 2U));
 80035d6:	9903      	ldr	r1, [sp, #12]
 80035d8:	688c      	ldr	r4, [r1, #8]
 80035da:	40b4      	lsls	r4, r6
 80035dc:	432c      	orrs	r4, r5
        GPIOx->PUPDR = temp;
 80035de:	60c4      	str	r4, [r0, #12]
      if ((GPIO_Init->Mode & GPIO_MODE) == MODE_AF)
 80035e0:	2a02      	cmp	r2, #2
 80035e2:	d111      	bne.n	8003608 <HAL_GPIO_Init+0xa8>
        temp &= ~(0xFUL << ((uint32_t)(position & 0x07UL) * 4U));
 80035e4:	2507      	movs	r5, #7
 80035e6:	210f      	movs	r1, #15
 80035e8:	401d      	ands	r5, r3
 80035ea:	00ad      	lsls	r5, r5, #2
 80035ec:	40a9      	lsls	r1, r5
        temp = GPIOx->AFR[position >> 3U];
 80035ee:	08dc      	lsrs	r4, r3, #3
 80035f0:	00a4      	lsls	r4, r4, #2
 80035f2:	1904      	adds	r4, r0, r4
 80035f4:	6a27      	ldr	r7, [r4, #32]
        temp &= ~(0xFUL << ((uint32_t)(position & 0x07UL) * 4U));
 80035f6:	438f      	bics	r7, r1
        temp |= ((uint32_t)(GPIO_Init->Alternate) << (((uint32_t)position & (uint32_t)0x07U) * 4U));
 80035f8:	9903      	ldr	r1, [sp, #12]
 80035fa:	6909      	ldr	r1, [r1, #16]
 80035fc:	40a9      	lsls	r1, r5
 80035fe:	430f      	orrs	r7, r1
        GPIOx->AFR[position >> 3U] = temp;
 8003600:	6227      	str	r7, [r4, #32]
 8003602:	e001      	b.n	8003608 <HAL_GPIO_Init+0xa8>
      if ((GPIO_Init->Mode & GPIO_MODE) != MODE_ANALOG)
 8003604:	2a03      	cmp	r2, #3
 8003606:	d1e3      	bne.n	80035d0 <HAL_GPIO_Init+0x70>
      temp |= ((GPIO_Init->Mode & GPIO_MODE) << (position * 2U));
 8003608:	40b2      	lsls	r2, r6
      temp = GPIOx->MODER;
 800360a:	6804      	ldr	r4, [r0, #0]
      temp &= ~(GPIO_MODER_MODE0 << (position * 2U));
 800360c:	9904      	ldr	r1, [sp, #16]
 800360e:	4021      	ands	r1, r4
      temp |= ((GPIO_Init->Mode & GPIO_MODE) << (position * 2U));
 8003610:	430a      	orrs	r2, r1
      GPIOx->MODER = temp;
 8003612:	6002      	str	r2, [r0, #0]
      if ((GPIO_Init->Mode & EXTI_MODE) != 0x00U)
 8003614:	22c0      	movs	r2, #192	; 0xc0
 8003616:	9901      	ldr	r1, [sp, #4]
 8003618:	0292      	lsls	r2, r2, #10
 800361a:	4211      	tst	r1, r2
 800361c:	d050      	beq.n	80036c0 <HAL_GPIO_Init+0x160>
        __HAL_RCC_SYSCFG_CLK_ENABLE();
 800361e:	2701      	movs	r7, #1
 8003620:	4c29      	ldr	r4, [pc, #164]	; (80036c8 <HAL_GPIO_Init+0x168>)
        CLEAR_BIT(temp, (0x0FUL) << (4U * (position & 0x03U)));
 8003622:	2603      	movs	r6, #3
        __HAL_RCC_SYSCFG_CLK_ENABLE();
 8003624:	6b62      	ldr	r2, [r4, #52]	; 0x34
        CLEAR_BIT(temp, (0x0FUL) << (4U * (position & 0x03U)));
 8003626:	001d      	movs	r5, r3
        __HAL_RCC_SYSCFG_CLK_ENABLE();
 8003628:	433a      	orrs	r2, r7
 800362a:	6362      	str	r2, [r4, #52]	; 0x34
        temp = SYSCFG->EXTICR[position >> 2U];
 800362c:	4a27      	ldr	r2, [pc, #156]	; (80036cc <HAL_GPIO_Init+0x16c>)
 800362e:	089c      	lsrs	r4, r3, #2
 8003630:	00a4      	lsls	r4, r4, #2
 8003632:	18a4      	adds	r4, r4, r2
 8003634:	68a2      	ldr	r2, [r4, #8]
        CLEAR_BIT(temp, (0x0FUL) << (4U * (position & 0x03U)));
 8003636:	4035      	ands	r5, r6
        temp = SYSCFG->EXTICR[position >> 2U];
 8003638:	4694      	mov	ip, r2
        CLEAR_BIT(temp, (0x0FUL) << (4U * (position & 0x03U)));
 800363a:	220f      	movs	r2, #15
 800363c:	00ad      	lsls	r5, r5, #2
 800363e:	40aa      	lsls	r2, r5
 8003640:	4661      	mov	r1, ip
 8003642:	4391      	bics	r1, r2
        SET_BIT(temp, (GPIO_GET_INDEX(GPIOx)) << (4 * (position & 0x03U)));
 8003644:	22a0      	movs	r2, #160	; 0xa0
 8003646:	05d2      	lsls	r2, r2, #23
 8003648:	4694      	mov	ip, r2
 800364a:	2200      	movs	r2, #0
 800364c:	4560      	cmp	r0, ip
 800364e:	d00d      	beq.n	800366c <HAL_GPIO_Init+0x10c>
 8003650:	4a1f      	ldr	r2, [pc, #124]	; (80036d0 <HAL_GPIO_Init+0x170>)
 8003652:	4694      	mov	ip, r2
 8003654:	003a      	movs	r2, r7
 8003656:	4560      	cmp	r0, ip
 8003658:	d008      	beq.n	800366c <HAL_GPIO_Init+0x10c>
 800365a:	4f1e      	ldr	r7, [pc, #120]	; (80036d4 <HAL_GPIO_Init+0x174>)
 800365c:	1892      	adds	r2, r2, r2
 800365e:	42b8      	cmp	r0, r7
 8003660:	d004      	beq.n	800366c <HAL_GPIO_Init+0x10c>
 8003662:	4f1d      	ldr	r7, [pc, #116]	; (80036d8 <HAL_GPIO_Init+0x178>)
 8003664:	0032      	movs	r2, r6
 8003666:	42b8      	cmp	r0, r7
 8003668:	d000      	beq.n	800366c <HAL_GPIO_Init+0x10c>
 800366a:	9a05      	ldr	r2, [sp, #20]
 800366c:	40aa      	lsls	r2, r5
 800366e:	430a      	orrs	r2, r1
        temp &= ~((uint32_t)iocurrent);
 8003670:	9902      	ldr	r1, [sp, #8]
        SYSCFG->EXTICR[position >> 2U] = temp;
 8003672:	60a2      	str	r2, [r4, #8]
          temp |= iocurrent;
 8003674:	000d      	movs	r5, r1
        temp = EXTI->RTSR;
 8003676:	4a19      	ldr	r2, [pc, #100]	; (80036dc <HAL_GPIO_Init+0x17c>)
        temp &= ~((uint32_t)iocurrent);
 8003678:	43cc      	mvns	r4, r1
        temp = EXTI->RTSR;
 800367a:	6896      	ldr	r6, [r2, #8]
        if ((GPIO_Init->Mode & TRIGGER_RISING) != 0x00U)
 800367c:	9901      	ldr	r1, [sp, #4]
          temp |= iocurrent;
 800367e:	4335      	orrs	r5, r6
        if ((GPIO_Init->Mode & TRIGGER_RISING) != 0x00U)
 8003680:	02c9      	lsls	r1, r1, #11
 8003682:	d401      	bmi.n	8003688 <HAL_GPIO_Init+0x128>
        temp &= ~((uint32_t)iocurrent);
 8003684:	0035      	movs	r5, r6
 8003686:	4025      	ands	r5, r4
        EXTI->RTSR = temp;
 8003688:	6095      	str	r5, [r2, #8]
        temp = EXTI->FTSR;
 800368a:	68d6      	ldr	r6, [r2, #12]
          temp |= iocurrent;
 800368c:	9d02      	ldr	r5, [sp, #8]
        if ((GPIO_Init->Mode & TRIGGER_FALLING) != 0x00U)
 800368e:	9901      	ldr	r1, [sp, #4]
          temp |= iocurrent;
 8003690:	4335      	orrs	r5, r6
        if ((GPIO_Init->Mode & TRIGGER_FALLING) != 0x00U)
 8003692:	0289      	lsls	r1, r1, #10
 8003694:	d401      	bmi.n	800369a <HAL_GPIO_Init+0x13a>
        temp &= ~((uint32_t)iocurrent);
 8003696:	0035      	movs	r5, r6
 8003698:	4025      	ands	r5, r4
        EXTI->FTSR = temp;
 800369a:	60d5      	str	r5, [r2, #12]
        temp = EXTI->EMR;
 800369c:	6856      	ldr	r6, [r2, #4]
          temp |= iocurrent;
 800369e:	9d02      	ldr	r5, [sp, #8]
        if ((GPIO_Init->Mode & EXTI_EVT) != 0x00U)
 80036a0:	9901      	ldr	r1, [sp, #4]
          temp |= iocurrent;
 80036a2:	4335      	orrs	r5, r6
        if ((GPIO_Init->Mode & EXTI_EVT) != 0x00U)
 80036a4:	0389      	lsls	r1, r1, #14
 80036a6:	d401      	bmi.n	80036ac <HAL_GPIO_Init+0x14c>
        temp &= ~((uint32_t)iocurrent);
 80036a8:	0035      	movs	r5, r6
 80036aa:	4025      	ands	r5, r4
        EXTI->EMR = temp;
 80036ac:	6055      	str	r5, [r2, #4]
        temp = EXTI->IMR;
 80036ae:	6815      	ldr	r5, [r2, #0]
          temp |= iocurrent;
 80036b0:	9e02      	ldr	r6, [sp, #8]
        if ((GPIO_Init->Mode & EXTI_IT) != 0x00U)
 80036b2:	9901      	ldr	r1, [sp, #4]
          temp |= iocurrent;
 80036b4:	432e      	orrs	r6, r5
        if ((GPIO_Init->Mode & EXTI_IT) != 0x00U)
 80036b6:	03c9      	lsls	r1, r1, #15
 80036b8:	d401      	bmi.n	80036be <HAL_GPIO_Init+0x15e>
        temp &= ~((uint32_t)iocurrent);
 80036ba:	4025      	ands	r5, r4
 80036bc:	002e      	movs	r6, r5
        EXTI->IMR = temp;
 80036be:	6016      	str	r6, [r2, #0]
    position++;
 80036c0:	3301      	adds	r3, #1
 80036c2:	e757      	b.n	8003574 <HAL_GPIO_Init+0x14>
 80036c4:	afffe400 	.word	0xafffe400
 80036c8:	40021000 	.word	0x40021000
 80036cc:	40010000 	.word	0x40010000
 80036d0:	50000400 	.word	0x50000400
 80036d4:	50000800 	.word	0x50000800
 80036d8:	50000c00 	.word	0x50000c00
 80036dc:	40010400 	.word	0x40010400

080036e0 <HAL_GPIO_WritePin>:
{
  /* Check the parameters */
  assert_param(IS_GPIO_PIN_AVAILABLE(GPIOx, GPIO_Pin));
  assert_param(IS_GPIO_PIN_ACTION(PinState));

  if (PinState != GPIO_PIN_RESET)
 80036e0:	2a00      	cmp	r2, #0
 80036e2:	d001      	beq.n	80036e8 <HAL_GPIO_WritePin+0x8>
  {
    GPIOx->BSRR = GPIO_Pin;
 80036e4:	6181      	str	r1, [r0, #24]
  }
  else
  {
    GPIOx->BRR = GPIO_Pin ;
  }
}
 80036e6:	4770      	bx	lr
    GPIOx->BRR = GPIO_Pin ;
 80036e8:	6281      	str	r1, [r0, #40]	; 0x28
}
 80036ea:	e7fc      	b.n	80036e6 <HAL_GPIO_WritePin+0x6>

080036ec <I2C_Flush_TXDR>:
  */
static void I2C_Flush_TXDR(I2C_HandleTypeDef *hi2c)
{
  /* If a pending TXIS flag is set */
  /* Write a dummy data in TXDR to clear it */
  if (__HAL_I2C_GET_FLAG(hi2c, I2C_FLAG_TXIS) != RESET)
 80036ec:	6803      	ldr	r3, [r0, #0]
 80036ee:	699a      	ldr	r2, [r3, #24]
 80036f0:	0792      	lsls	r2, r2, #30
 80036f2:	d501      	bpl.n	80036f8 <I2C_Flush_TXDR+0xc>
  {
    hi2c->Instance->TXDR = 0x00U;
 80036f4:	2200      	movs	r2, #0
 80036f6:	629a      	str	r2, [r3, #40]	; 0x28
  }

  /* Flush TX register if not empty */
  if (__HAL_I2C_GET_FLAG(hi2c, I2C_FLAG_TXE) == RESET)
 80036f8:	2201      	movs	r2, #1
 80036fa:	6999      	ldr	r1, [r3, #24]
 80036fc:	4211      	tst	r1, r2
 80036fe:	d102      	bne.n	8003706 <I2C_Flush_TXDR+0x1a>
  {
    __HAL_I2C_CLEAR_FLAG(hi2c, I2C_FLAG_TXE);
 8003700:	6999      	ldr	r1, [r3, #24]
 8003702:	430a      	orrs	r2, r1
 8003704:	619a      	str	r2, [r3, #24]
  }
}
 8003706:	4770      	bx	lr

08003708 <I2C_TransferConfig>:
  *     @arg @ref I2C_GENERATE_START_WRITE Generate Restart for write request.
  * @retval None
  */
static void I2C_TransferConfig(I2C_HandleTypeDef *hi2c, uint16_t DevAddress, uint8_t Size, uint32_t Mode,
                               uint32_t Request)
{
 8003708:	b530      	push	{r4, r5, lr}
 800370a:	9c03      	ldr	r4, [sp, #12]
  uint32_t tmp = ((uint32_t)(((uint32_t)DevAddress & I2C_CR2_SADD) | \
                             (((uint32_t)Size << I2C_CR2_NBYTES_Pos) & I2C_CR2_NBYTES) | \
                             (uint32_t)Mode | (uint32_t)Request) & (~0x80000000U));

  /* update CR2 register */
  MODIFY_REG(hi2c->Instance->CR2, \
 800370c:	6800      	ldr	r0, [r0, #0]
  uint32_t tmp = ((uint32_t)(((uint32_t)DevAddress & I2C_CR2_SADD) | \
 800370e:	4323      	orrs	r3, r4
                             (((uint32_t)Size << I2C_CR2_NBYTES_Pos) & I2C_CR2_NBYTES) | \
 8003710:	0412      	lsls	r2, r2, #16
  uint32_t tmp = ((uint32_t)(((uint32_t)DevAddress & I2C_CR2_SADD) | \
 8003712:	0589      	lsls	r1, r1, #22
 8003714:	431a      	orrs	r2, r3
 8003716:	0d89      	lsrs	r1, r1, #22
  MODIFY_REG(hi2c->Instance->CR2, \
 8003718:	4b05      	ldr	r3, [pc, #20]	; (8003730 <I2C_TransferConfig+0x28>)
 800371a:	6845      	ldr	r5, [r0, #4]
  uint32_t tmp = ((uint32_t)(((uint32_t)DevAddress & I2C_CR2_SADD) | \
 800371c:	430a      	orrs	r2, r1
  MODIFY_REG(hi2c->Instance->CR2, \
 800371e:	0d64      	lsrs	r4, r4, #21
 8003720:	431c      	orrs	r4, r3
  uint32_t tmp = ((uint32_t)(((uint32_t)DevAddress & I2C_CR2_SADD) | \
 8003722:	0052      	lsls	r2, r2, #1
  MODIFY_REG(hi2c->Instance->CR2, \
 8003724:	43a5      	bics	r5, r4
  uint32_t tmp = ((uint32_t)(((uint32_t)DevAddress & I2C_CR2_SADD) | \
 8003726:	0852      	lsrs	r2, r2, #1
  MODIFY_REG(hi2c->Instance->CR2, \
 8003728:	432a      	orrs	r2, r5
 800372a:	6042      	str	r2, [r0, #4]
             ((I2C_CR2_SADD | I2C_CR2_NBYTES | I2C_CR2_RELOAD | I2C_CR2_AUTOEND | \
               (I2C_CR2_RD_WRN & (uint32_t)(Request >> (31U - I2C_CR2_RD_WRN_Pos))) | \
               I2C_CR2_START | I2C_CR2_STOP)), tmp);
}
 800372c:	bd30      	pop	{r4, r5, pc}
 800372e:	46c0      	nop			; (mov r8, r8)
 8003730:	03ff63ff 	.word	0x03ff63ff

08003734 <I2C_IsErrorOccurred>:
{
 8003734:	b5f7      	push	{r0, r1, r2, r4, r5, r6, r7, lr}
 8003736:	0015      	movs	r5, r2
  uint32_t itflag   = hi2c->Instance->ISR;
 8003738:	6802      	ldr	r2, [r0, #0]
{
 800373a:	000e      	movs	r6, r1
  uint32_t itflag   = hi2c->Instance->ISR;
 800373c:	6991      	ldr	r1, [r2, #24]
  if (HAL_IS_BIT_SET(itflag, I2C_FLAG_AF))
 800373e:	2310      	movs	r3, #16
 8003740:	000f      	movs	r7, r1
{
 8003742:	0004      	movs	r4, r0
  if (HAL_IS_BIT_SET(itflag, I2C_FLAG_AF))
 8003744:	401f      	ands	r7, r3
  HAL_StatusTypeDef status = HAL_OK;
 8003746:	2000      	movs	r0, #0
  if (HAL_IS_BIT_SET(itflag, I2C_FLAG_AF))
 8003748:	4219      	tst	r1, r3
 800374a:	d00e      	beq.n	800376a <I2C_IsErrorOccurred+0x36>
    while ((__HAL_I2C_GET_FLAG(hi2c, I2C_FLAG_STOPF) == RESET) && (status == HAL_OK))
 800374c:	2720      	movs	r7, #32
    __HAL_I2C_CLEAR_FLAG(hi2c, I2C_FLAG_AF);
 800374e:	61d3      	str	r3, [r2, #28]
  uint32_t error_code = 0;
 8003750:	9000      	str	r0, [sp, #0]
  HAL_StatusTypeDef status = HAL_OK;
 8003752:	9001      	str	r0, [sp, #4]
    while ((__HAL_I2C_GET_FLAG(hi2c, I2C_FLAG_STOPF) == RESET) && (status == HAL_OK))
 8003754:	6823      	ldr	r3, [r4, #0]
 8003756:	699a      	ldr	r2, [r3, #24]
 8003758:	423a      	tst	r2, r7
 800375a:	d164      	bne.n	8003826 <I2C_IsErrorOccurred+0xf2>
 800375c:	9a01      	ldr	r2, [sp, #4]
 800375e:	2a00      	cmp	r2, #0
 8003760:	d032      	beq.n	80037c8 <I2C_IsErrorOccurred+0x94>
    error_code |= HAL_I2C_ERROR_AF;
 8003762:	2704      	movs	r7, #4
    status = HAL_ERROR;
 8003764:	2001      	movs	r0, #1
    error_code |= HAL_I2C_ERROR_AF;
 8003766:	9b00      	ldr	r3, [sp, #0]
 8003768:	431f      	orrs	r7, r3
  if (HAL_IS_BIT_SET(itflag, I2C_FLAG_BERR))
 800376a:	2180      	movs	r1, #128	; 0x80
  itflag = hi2c->Instance->ISR;
 800376c:	6823      	ldr	r3, [r4, #0]
  if (HAL_IS_BIT_SET(itflag, I2C_FLAG_BERR))
 800376e:	0049      	lsls	r1, r1, #1
  itflag = hi2c->Instance->ISR;
 8003770:	699a      	ldr	r2, [r3, #24]
  if (HAL_IS_BIT_SET(itflag, I2C_FLAG_BERR))
 8003772:	420a      	tst	r2, r1
 8003774:	d002      	beq.n	800377c <I2C_IsErrorOccurred+0x48>
    error_code |= HAL_I2C_ERROR_BERR;
 8003776:	2001      	movs	r0, #1
    __HAL_I2C_CLEAR_FLAG(hi2c, I2C_FLAG_BERR);
 8003778:	61d9      	str	r1, [r3, #28]
    error_code |= HAL_I2C_ERROR_BERR;
 800377a:	4307      	orrs	r7, r0
  if (HAL_IS_BIT_SET(itflag, I2C_FLAG_OVR))
 800377c:	2180      	movs	r1, #128	; 0x80
 800377e:	00c9      	lsls	r1, r1, #3
 8003780:	420a      	tst	r2, r1
 8003782:	d003      	beq.n	800378c <I2C_IsErrorOccurred+0x58>
    error_code |= HAL_I2C_ERROR_OVR;
 8003784:	2008      	movs	r0, #8
    __HAL_I2C_CLEAR_FLAG(hi2c, I2C_FLAG_OVR);
 8003786:	61d9      	str	r1, [r3, #28]
    error_code |= HAL_I2C_ERROR_OVR;
 8003788:	4307      	orrs	r7, r0
    status = HAL_ERROR;
 800378a:	3807      	subs	r0, #7
  if (HAL_IS_BIT_SET(itflag, I2C_FLAG_ARLO))
 800378c:	2180      	movs	r1, #128	; 0x80
 800378e:	0089      	lsls	r1, r1, #2
 8003790:	420a      	tst	r2, r1
 8003792:	d04d      	beq.n	8003830 <I2C_IsErrorOccurred+0xfc>
    error_code |= HAL_I2C_ERROR_ARLO;
 8003794:	2202      	movs	r2, #2
    __HAL_I2C_CLEAR_FLAG(hi2c, I2C_FLAG_ARLO);
 8003796:	61d9      	str	r1, [r3, #28]
    error_code |= HAL_I2C_ERROR_ARLO;
 8003798:	4317      	orrs	r7, r2
    I2C_Flush_TXDR(hi2c);
 800379a:	0020      	movs	r0, r4
 800379c:	f7ff ffa6 	bl	80036ec <I2C_Flush_TXDR>
    I2C_RESET_CR2(hi2c);
 80037a0:	6822      	ldr	r2, [r4, #0]
 80037a2:	4925      	ldr	r1, [pc, #148]	; (8003838 <I2C_IsErrorOccurred+0x104>)
 80037a4:	6853      	ldr	r3, [r2, #4]
 80037a6:	400b      	ands	r3, r1
 80037a8:	6053      	str	r3, [r2, #4]
    hi2c->State = HAL_I2C_STATE_READY;
 80037aa:	0023      	movs	r3, r4
 80037ac:	2220      	movs	r2, #32
    hi2c->ErrorCode |= error_code;
 80037ae:	6c60      	ldr	r0, [r4, #68]	; 0x44
    hi2c->State = HAL_I2C_STATE_READY;
 80037b0:	3341      	adds	r3, #65	; 0x41
    hi2c->ErrorCode |= error_code;
 80037b2:	4307      	orrs	r7, r0
 80037b4:	6467      	str	r7, [r4, #68]	; 0x44
    hi2c->State = HAL_I2C_STATE_READY;
 80037b6:	701a      	strb	r2, [r3, #0]
    hi2c->Mode = HAL_I2C_MODE_NONE;
 80037b8:	0022      	movs	r2, r4
 80037ba:	2300      	movs	r3, #0
 80037bc:	3242      	adds	r2, #66	; 0x42
    __HAL_UNLOCK(hi2c);
 80037be:	3440      	adds	r4, #64	; 0x40
    hi2c->Mode = HAL_I2C_MODE_NONE;
 80037c0:	7013      	strb	r3, [r2, #0]
    __HAL_UNLOCK(hi2c);
 80037c2:	2001      	movs	r0, #1
 80037c4:	7023      	strb	r3, [r4, #0]
 80037c6:	e035      	b.n	8003834 <I2C_IsErrorOccurred+0x100>
      if (Timeout != HAL_MAX_DELAY)
 80037c8:	1c72      	adds	r2, r6, #1
 80037ca:	d0c4      	beq.n	8003756 <I2C_IsErrorOccurred+0x22>
        if (((HAL_GetTick() - tickstart) > Timeout) || (Timeout == 0U))
 80037cc:	f7ff fe68 	bl	80034a0 <HAL_GetTick>
 80037d0:	1b40      	subs	r0, r0, r5
 80037d2:	42b0      	cmp	r0, r6
 80037d4:	d801      	bhi.n	80037da <I2C_IsErrorOccurred+0xa6>
 80037d6:	2e00      	cmp	r6, #0
 80037d8:	d1bc      	bne.n	8003754 <I2C_IsErrorOccurred+0x20>
          tmp2 = hi2c->Mode;
 80037da:	0022      	movs	r2, r4
          tmp1 = (uint32_t)(hi2c->Instance->CR2 & I2C_CR2_STOP);
 80037dc:	6823      	ldr	r3, [r4, #0]
          tmp2 = hi2c->Mode;
 80037de:	3242      	adds	r2, #66	; 0x42
          tmp1 = (uint32_t)(hi2c->Instance->CR2 & I2C_CR2_STOP);
 80037e0:	6858      	ldr	r0, [r3, #4]
          tmp2 = hi2c->Mode;
 80037e2:	7811      	ldrb	r1, [r2, #0]
 80037e4:	b2ca      	uxtb	r2, r1
          if ((__HAL_I2C_GET_FLAG(hi2c, I2C_FLAG_BUSY) != RESET) && \
 80037e6:	2180      	movs	r1, #128	; 0x80
          tmp2 = hi2c->Mode;
 80037e8:	4694      	mov	ip, r2
          if ((__HAL_I2C_GET_FLAG(hi2c, I2C_FLAG_BUSY) != RESET) && \
 80037ea:	699a      	ldr	r2, [r3, #24]
 80037ec:	0209      	lsls	r1, r1, #8
 80037ee:	420a      	tst	r2, r1
 80037f0:	d00c      	beq.n	800380c <I2C_IsErrorOccurred+0xd8>
          tmp1 = (uint32_t)(hi2c->Instance->CR2 & I2C_CR2_STOP);
 80037f2:	2280      	movs	r2, #128	; 0x80
 80037f4:	01d2      	lsls	r2, r2, #7
          if ((__HAL_I2C_GET_FLAG(hi2c, I2C_FLAG_BUSY) != RESET) && \
 80037f6:	4210      	tst	r0, r2
 80037f8:	d108      	bne.n	800380c <I2C_IsErrorOccurred+0xd8>
              (tmp1 != I2C_CR2_STOP) && \
 80037fa:	4661      	mov	r1, ip
 80037fc:	2920      	cmp	r1, #32
 80037fe:	d005      	beq.n	800380c <I2C_IsErrorOccurred+0xd8>
            hi2c->Instance->CR2 |= I2C_CR2_STOP;
 8003800:	6859      	ldr	r1, [r3, #4]
 8003802:	430a      	orrs	r2, r1
 8003804:	605a      	str	r2, [r3, #4]
            tickstart = HAL_GetTick();
 8003806:	f7ff fe4b 	bl	80034a0 <HAL_GetTick>
 800380a:	0005      	movs	r5, r0
          while (__HAL_I2C_GET_FLAG(hi2c, I2C_FLAG_STOPF) == RESET)
 800380c:	6823      	ldr	r3, [r4, #0]
 800380e:	699b      	ldr	r3, [r3, #24]
 8003810:	423b      	tst	r3, r7
 8003812:	d19f      	bne.n	8003754 <I2C_IsErrorOccurred+0x20>
            if ((HAL_GetTick() - tickstart) > I2C_TIMEOUT_STOPF)
 8003814:	f7ff fe44 	bl	80034a0 <HAL_GetTick>
 8003818:	1b40      	subs	r0, r0, r5
 800381a:	2819      	cmp	r0, #25
 800381c:	d9f6      	bls.n	800380c <I2C_IsErrorOccurred+0xd8>
              status = HAL_ERROR;
 800381e:	2301      	movs	r3, #1
              error_code |= HAL_I2C_ERROR_TIMEOUT;
 8003820:	9700      	str	r7, [sp, #0]
              status = HAL_ERROR;
 8003822:	9301      	str	r3, [sp, #4]
 8003824:	e796      	b.n	8003754 <I2C_IsErrorOccurred+0x20>
    if (status == HAL_OK)
 8003826:	9a01      	ldr	r2, [sp, #4]
 8003828:	2a00      	cmp	r2, #0
 800382a:	d19a      	bne.n	8003762 <I2C_IsErrorOccurred+0x2e>
      __HAL_I2C_CLEAR_FLAG(hi2c, I2C_FLAG_STOPF);
 800382c:	61df      	str	r7, [r3, #28]
 800382e:	e798      	b.n	8003762 <I2C_IsErrorOccurred+0x2e>
  if (status != HAL_OK)
 8003830:	2800      	cmp	r0, #0
 8003832:	d1b2      	bne.n	800379a <I2C_IsErrorOccurred+0x66>
}
 8003834:	bdfe      	pop	{r1, r2, r3, r4, r5, r6, r7, pc}
 8003836:	46c0      	nop			; (mov r8, r8)
 8003838:	fe00e800 	.word	0xfe00e800

0800383c <I2C_WaitOnTXISFlagUntilTimeout>:
{
 800383c:	b5f8      	push	{r3, r4, r5, r6, r7, lr}
 800383e:	0004      	movs	r4, r0
 8003840:	000d      	movs	r5, r1
 8003842:	0016      	movs	r6, r2
  while (__HAL_I2C_GET_FLAG(hi2c, I2C_FLAG_TXIS) == RESET)
 8003844:	2702      	movs	r7, #2
 8003846:	6823      	ldr	r3, [r4, #0]
 8003848:	699b      	ldr	r3, [r3, #24]
 800384a:	423b      	tst	r3, r7
 800384c:	d001      	beq.n	8003852 <I2C_WaitOnTXISFlagUntilTimeout+0x16>
  return HAL_OK;
 800384e:	2000      	movs	r0, #0
}
 8003850:	bdf8      	pop	{r3, r4, r5, r6, r7, pc}
    if (I2C_IsErrorOccurred(hi2c, Timeout, Tickstart) != HAL_OK)
 8003852:	0032      	movs	r2, r6
 8003854:	0029      	movs	r1, r5
 8003856:	0020      	movs	r0, r4
 8003858:	f7ff ff6c 	bl	8003734 <I2C_IsErrorOccurred>
 800385c:	2800      	cmp	r0, #0
 800385e:	d118      	bne.n	8003892 <I2C_WaitOnTXISFlagUntilTimeout+0x56>
    if (Timeout != HAL_MAX_DELAY)
 8003860:	1c6b      	adds	r3, r5, #1
 8003862:	d0f0      	beq.n	8003846 <I2C_WaitOnTXISFlagUntilTimeout+0xa>
      if (((HAL_GetTick() - Tickstart) > Timeout) || (Timeout == 0U))
 8003864:	f7ff fe1c 	bl	80034a0 <HAL_GetTick>
 8003868:	1b80      	subs	r0, r0, r6
 800386a:	42a8      	cmp	r0, r5
 800386c:	d801      	bhi.n	8003872 <I2C_WaitOnTXISFlagUntilTimeout+0x36>
 800386e:	2d00      	cmp	r5, #0
 8003870:	d1e9      	bne.n	8003846 <I2C_WaitOnTXISFlagUntilTimeout+0xa>
        if ((__HAL_I2C_GET_FLAG(hi2c, I2C_FLAG_TXIS) == RESET))
 8003872:	6823      	ldr	r3, [r4, #0]
 8003874:	699b      	ldr	r3, [r3, #24]
 8003876:	001a      	movs	r2, r3
 8003878:	403a      	ands	r2, r7
 800387a:	423b      	tst	r3, r7
 800387c:	d1e3      	bne.n	8003846 <I2C_WaitOnTXISFlagUntilTimeout+0xa>
          hi2c->ErrorCode |= HAL_I2C_ERROR_TIMEOUT;
 800387e:	2120      	movs	r1, #32
 8003880:	6c63      	ldr	r3, [r4, #68]	; 0x44
 8003882:	430b      	orrs	r3, r1
 8003884:	6463      	str	r3, [r4, #68]	; 0x44
          hi2c->State = HAL_I2C_STATE_READY;
 8003886:	0023      	movs	r3, r4
          __HAL_UNLOCK(hi2c);
 8003888:	3440      	adds	r4, #64	; 0x40
          hi2c->State = HAL_I2C_STATE_READY;
 800388a:	3341      	adds	r3, #65	; 0x41
 800388c:	7019      	strb	r1, [r3, #0]
          hi2c->Mode = HAL_I2C_MODE_NONE;
 800388e:	705a      	strb	r2, [r3, #1]
          __HAL_UNLOCK(hi2c);
 8003890:	7022      	strb	r2, [r4, #0]
      return HAL_ERROR;
 8003892:	2001      	movs	r0, #1
 8003894:	e7dc      	b.n	8003850 <I2C_WaitOnTXISFlagUntilTimeout+0x14>

08003896 <I2C_WaitOnFlagUntilTimeout>:
{
 8003896:	b5f8      	push	{r3, r4, r5, r6, r7, lr}
 8003898:	0004      	movs	r4, r0
 800389a:	000d      	movs	r5, r1
 800389c:	0017      	movs	r7, r2
 800389e:	001e      	movs	r6, r3
  while (__HAL_I2C_GET_FLAG(hi2c, Flag) == Status)
 80038a0:	6822      	ldr	r2, [r4, #0]
 80038a2:	6993      	ldr	r3, [r2, #24]
 80038a4:	402b      	ands	r3, r5
 80038a6:	1b5b      	subs	r3, r3, r5
 80038a8:	4259      	negs	r1, r3
 80038aa:	414b      	adcs	r3, r1
 80038ac:	42bb      	cmp	r3, r7
 80038ae:	d001      	beq.n	80038b4 <I2C_WaitOnFlagUntilTimeout+0x1e>
  return HAL_OK;
 80038b0:	2000      	movs	r0, #0
 80038b2:	e01f      	b.n	80038f4 <I2C_WaitOnFlagUntilTimeout+0x5e>
    if (Timeout != HAL_MAX_DELAY)
 80038b4:	1c73      	adds	r3, r6, #1
 80038b6:	d0f4      	beq.n	80038a2 <I2C_WaitOnFlagUntilTimeout+0xc>
      if (((HAL_GetTick() - Tickstart) > Timeout) || (Timeout == 0U))
 80038b8:	f7ff fdf2 	bl	80034a0 <HAL_GetTick>
 80038bc:	9b06      	ldr	r3, [sp, #24]
 80038be:	1ac0      	subs	r0, r0, r3
 80038c0:	42b0      	cmp	r0, r6
 80038c2:	d801      	bhi.n	80038c8 <I2C_WaitOnFlagUntilTimeout+0x32>
 80038c4:	2e00      	cmp	r6, #0
 80038c6:	d1eb      	bne.n	80038a0 <I2C_WaitOnFlagUntilTimeout+0xa>
        if ((__HAL_I2C_GET_FLAG(hi2c, Flag) == Status))
 80038c8:	6823      	ldr	r3, [r4, #0]
 80038ca:	699b      	ldr	r3, [r3, #24]
 80038cc:	402b      	ands	r3, r5
 80038ce:	1b5b      	subs	r3, r3, r5
 80038d0:	425a      	negs	r2, r3
 80038d2:	4153      	adcs	r3, r2
 80038d4:	42bb      	cmp	r3, r7
 80038d6:	d1e3      	bne.n	80038a0 <I2C_WaitOnFlagUntilTimeout+0xa>
          hi2c->ErrorCode |= HAL_I2C_ERROR_TIMEOUT;
 80038d8:	2220      	movs	r2, #32
 80038da:	6c63      	ldr	r3, [r4, #68]	; 0x44
          return HAL_ERROR;
 80038dc:	2001      	movs	r0, #1
          hi2c->ErrorCode |= HAL_I2C_ERROR_TIMEOUT;
 80038de:	4313      	orrs	r3, r2
 80038e0:	6463      	str	r3, [r4, #68]	; 0x44
          hi2c->State = HAL_I2C_STATE_READY;
 80038e2:	0023      	movs	r3, r4
 80038e4:	3341      	adds	r3, #65	; 0x41
 80038e6:	701a      	strb	r2, [r3, #0]
          hi2c->Mode = HAL_I2C_MODE_NONE;
 80038e8:	0022      	movs	r2, r4
 80038ea:	2300      	movs	r3, #0
 80038ec:	3242      	adds	r2, #66	; 0x42
          __HAL_UNLOCK(hi2c);
 80038ee:	3440      	adds	r4, #64	; 0x40
          hi2c->Mode = HAL_I2C_MODE_NONE;
 80038f0:	7013      	strb	r3, [r2, #0]
          __HAL_UNLOCK(hi2c);
 80038f2:	7023      	strb	r3, [r4, #0]
}
 80038f4:	bdf8      	pop	{r3, r4, r5, r6, r7, pc}

080038f6 <I2C_WaitOnSTOPFlagUntilTimeout>:
{
 80038f6:	b5f8      	push	{r3, r4, r5, r6, r7, lr}
 80038f8:	0004      	movs	r4, r0
 80038fa:	000e      	movs	r6, r1
 80038fc:	0017      	movs	r7, r2
  while (__HAL_I2C_GET_FLAG(hi2c, I2C_FLAG_STOPF) == RESET)
 80038fe:	2520      	movs	r5, #32
 8003900:	6823      	ldr	r3, [r4, #0]
 8003902:	699b      	ldr	r3, [r3, #24]
 8003904:	422b      	tst	r3, r5
 8003906:	d001      	beq.n	800390c <I2C_WaitOnSTOPFlagUntilTimeout+0x16>
  return HAL_OK;
 8003908:	2000      	movs	r0, #0
}
 800390a:	bdf8      	pop	{r3, r4, r5, r6, r7, pc}
    if (I2C_IsErrorOccurred(hi2c, Timeout, Tickstart) != HAL_OK)
 800390c:	003a      	movs	r2, r7
 800390e:	0031      	movs	r1, r6
 8003910:	0020      	movs	r0, r4
 8003912:	f7ff ff0f 	bl	8003734 <I2C_IsErrorOccurred>
 8003916:	2800      	cmp	r0, #0
 8003918:	d115      	bne.n	8003946 <I2C_WaitOnSTOPFlagUntilTimeout+0x50>
    if (((HAL_GetTick() - Tickstart) > Timeout) || (Timeout == 0U))
 800391a:	f7ff fdc1 	bl	80034a0 <HAL_GetTick>
 800391e:	1bc0      	subs	r0, r0, r7
 8003920:	42b0      	cmp	r0, r6
 8003922:	d801      	bhi.n	8003928 <I2C_WaitOnSTOPFlagUntilTimeout+0x32>
 8003924:	2e00      	cmp	r6, #0
 8003926:	d1eb      	bne.n	8003900 <I2C_WaitOnSTOPFlagUntilTimeout+0xa>
      if ((__HAL_I2C_GET_FLAG(hi2c, I2C_FLAG_STOPF) == RESET))
 8003928:	6823      	ldr	r3, [r4, #0]
 800392a:	699b      	ldr	r3, [r3, #24]
 800392c:	001a      	movs	r2, r3
 800392e:	402a      	ands	r2, r5
 8003930:	422b      	tst	r3, r5
 8003932:	d1e5      	bne.n	8003900 <I2C_WaitOnSTOPFlagUntilTimeout+0xa>
        hi2c->ErrorCode |= HAL_I2C_ERROR_TIMEOUT;
 8003934:	6c63      	ldr	r3, [r4, #68]	; 0x44
 8003936:	432b      	orrs	r3, r5
 8003938:	6463      	str	r3, [r4, #68]	; 0x44
        hi2c->State = HAL_I2C_STATE_READY;
 800393a:	0023      	movs	r3, r4
        __HAL_UNLOCK(hi2c);
 800393c:	3440      	adds	r4, #64	; 0x40
        hi2c->State = HAL_I2C_STATE_READY;
 800393e:	3341      	adds	r3, #65	; 0x41
 8003940:	701d      	strb	r5, [r3, #0]
        hi2c->Mode = HAL_I2C_MODE_NONE;
 8003942:	705a      	strb	r2, [r3, #1]
        __HAL_UNLOCK(hi2c);
 8003944:	7022      	strb	r2, [r4, #0]
      return HAL_ERROR;
 8003946:	2001      	movs	r0, #1
 8003948:	e7df      	b.n	800390a <I2C_WaitOnSTOPFlagUntilTimeout+0x14>
	...

0800394c <I2C_WaitOnRXNEFlagUntilTimeout>:
{
 800394c:	b5f8      	push	{r3, r4, r5, r6, r7, lr}
 800394e:	0004      	movs	r4, r0
 8003950:	000d      	movs	r5, r1
 8003952:	0017      	movs	r7, r2
  while (__HAL_I2C_GET_FLAG(hi2c, I2C_FLAG_RXNE) == RESET)
 8003954:	2604      	movs	r6, #4
 8003956:	6823      	ldr	r3, [r4, #0]
 8003958:	699b      	ldr	r3, [r3, #24]
 800395a:	4233      	tst	r3, r6
 800395c:	d111      	bne.n	8003982 <I2C_WaitOnRXNEFlagUntilTimeout+0x36>
    if (I2C_IsErrorOccurred(hi2c, Timeout, Tickstart) != HAL_OK)
 800395e:	003a      	movs	r2, r7
 8003960:	0029      	movs	r1, r5
 8003962:	0020      	movs	r0, r4
 8003964:	f7ff fee6 	bl	8003734 <I2C_IsErrorOccurred>
 8003968:	2800      	cmp	r0, #0
 800396a:	d124      	bne.n	80039b6 <I2C_WaitOnRXNEFlagUntilTimeout+0x6a>
    if (__HAL_I2C_GET_FLAG(hi2c, I2C_FLAG_STOPF) == SET)
 800396c:	2120      	movs	r1, #32
 800396e:	6823      	ldr	r3, [r4, #0]
 8003970:	699a      	ldr	r2, [r3, #24]
 8003972:	420a      	tst	r2, r1
 8003974:	d023      	beq.n	80039be <I2C_WaitOnRXNEFlagUntilTimeout+0x72>
      if ((__HAL_I2C_GET_FLAG(hi2c, I2C_FLAG_RXNE) == SET) && (hi2c->XferSize > 0U))
 8003976:	699a      	ldr	r2, [r3, #24]
 8003978:	4232      	tst	r2, r6
 800397a:	d004      	beq.n	8003986 <I2C_WaitOnRXNEFlagUntilTimeout+0x3a>
 800397c:	8d22      	ldrh	r2, [r4, #40]	; 0x28
 800397e:	2a00      	cmp	r2, #0
 8003980:	d001      	beq.n	8003986 <I2C_WaitOnRXNEFlagUntilTimeout+0x3a>
        return HAL_OK;
 8003982:	2000      	movs	r0, #0
}
 8003984:	bdf8      	pop	{r3, r4, r5, r6, r7, pc}
        if (__HAL_I2C_GET_FLAG(hi2c, I2C_FLAG_AF) == SET)
 8003986:	6999      	ldr	r1, [r3, #24]
 8003988:	2210      	movs	r2, #16
 800398a:	0008      	movs	r0, r1
 800398c:	4010      	ands	r0, r2
 800398e:	4211      	tst	r1, r2
 8003990:	d013      	beq.n	80039ba <I2C_WaitOnRXNEFlagUntilTimeout+0x6e>
          __HAL_I2C_CLEAR_FLAG(hi2c, I2C_FLAG_AF);
 8003992:	61da      	str	r2, [r3, #28]
          hi2c->ErrorCode = HAL_I2C_ERROR_AF;
 8003994:	3a0c      	subs	r2, #12
 8003996:	6462      	str	r2, [r4, #68]	; 0x44
        __HAL_I2C_CLEAR_FLAG(hi2c, I2C_FLAG_STOPF);
 8003998:	2120      	movs	r1, #32
 800399a:	61d9      	str	r1, [r3, #28]
        I2C_RESET_CR2(hi2c);
 800399c:	685a      	ldr	r2, [r3, #4]
 800399e:	4813      	ldr	r0, [pc, #76]	; (80039ec <I2C_WaitOnRXNEFlagUntilTimeout+0xa0>)
 80039a0:	4002      	ands	r2, r0
 80039a2:	605a      	str	r2, [r3, #4]
        hi2c->State = HAL_I2C_STATE_READY;
 80039a4:	0023      	movs	r3, r4
        hi2c->Mode = HAL_I2C_MODE_NONE;
 80039a6:	0022      	movs	r2, r4
        hi2c->State = HAL_I2C_STATE_READY;
 80039a8:	3341      	adds	r3, #65	; 0x41
 80039aa:	7019      	strb	r1, [r3, #0]
        hi2c->Mode = HAL_I2C_MODE_NONE;
 80039ac:	2300      	movs	r3, #0
 80039ae:	3242      	adds	r2, #66	; 0x42
        __HAL_UNLOCK(hi2c);
 80039b0:	3440      	adds	r4, #64	; 0x40
        hi2c->Mode = HAL_I2C_MODE_NONE;
 80039b2:	7013      	strb	r3, [r2, #0]
        __HAL_UNLOCK(hi2c);
 80039b4:	7023      	strb	r3, [r4, #0]
      return HAL_ERROR;
 80039b6:	2001      	movs	r0, #1
 80039b8:	e7e4      	b.n	8003984 <I2C_WaitOnRXNEFlagUntilTimeout+0x38>
          hi2c->ErrorCode = HAL_I2C_ERROR_NONE;
 80039ba:	6460      	str	r0, [r4, #68]	; 0x44
 80039bc:	e7ec      	b.n	8003998 <I2C_WaitOnRXNEFlagUntilTimeout+0x4c>
    if (((HAL_GetTick() - Tickstart) > Timeout) || (Timeout == 0U))
 80039be:	f7ff fd6f 	bl	80034a0 <HAL_GetTick>
 80039c2:	1bc0      	subs	r0, r0, r7
 80039c4:	42a8      	cmp	r0, r5
 80039c6:	d801      	bhi.n	80039cc <I2C_WaitOnRXNEFlagUntilTimeout+0x80>
 80039c8:	2d00      	cmp	r5, #0
 80039ca:	d1c4      	bne.n	8003956 <I2C_WaitOnRXNEFlagUntilTimeout+0xa>
      if ((__HAL_I2C_GET_FLAG(hi2c, I2C_FLAG_RXNE) == RESET))
 80039cc:	6823      	ldr	r3, [r4, #0]
 80039ce:	699b      	ldr	r3, [r3, #24]
 80039d0:	0019      	movs	r1, r3
 80039d2:	4031      	ands	r1, r6
 80039d4:	4233      	tst	r3, r6
 80039d6:	d1be      	bne.n	8003956 <I2C_WaitOnRXNEFlagUntilTimeout+0xa>
        hi2c->ErrorCode |= HAL_I2C_ERROR_TIMEOUT;
 80039d8:	2220      	movs	r2, #32
 80039da:	6c63      	ldr	r3, [r4, #68]	; 0x44
 80039dc:	4313      	orrs	r3, r2
 80039de:	6463      	str	r3, [r4, #68]	; 0x44
        hi2c->State = HAL_I2C_STATE_READY;
 80039e0:	0023      	movs	r3, r4
        __HAL_UNLOCK(hi2c);
 80039e2:	3440      	adds	r4, #64	; 0x40
        hi2c->State = HAL_I2C_STATE_READY;
 80039e4:	3341      	adds	r3, #65	; 0x41
 80039e6:	701a      	strb	r2, [r3, #0]
        __HAL_UNLOCK(hi2c);
 80039e8:	7021      	strb	r1, [r4, #0]
        return HAL_ERROR;
 80039ea:	e7e4      	b.n	80039b6 <I2C_WaitOnRXNEFlagUntilTimeout+0x6a>
 80039ec:	fe00e800 	.word	0xfe00e800

080039f0 <HAL_I2C_Init>:
{
 80039f0:	b570      	push	{r4, r5, r6, lr}
 80039f2:	0004      	movs	r4, r0
    return HAL_ERROR;
 80039f4:	2001      	movs	r0, #1
  if (hi2c == NULL)
 80039f6:	2c00      	cmp	r4, #0
 80039f8:	d03f      	beq.n	8003a7a <HAL_I2C_Init+0x8a>
  if (hi2c->State == HAL_I2C_STATE_RESET)
 80039fa:	0025      	movs	r5, r4
 80039fc:	3541      	adds	r5, #65	; 0x41
 80039fe:	782b      	ldrb	r3, [r5, #0]
 8003a00:	b2da      	uxtb	r2, r3
 8003a02:	2b00      	cmp	r3, #0
 8003a04:	d105      	bne.n	8003a12 <HAL_I2C_Init+0x22>
    hi2c->Lock = HAL_UNLOCKED;
 8003a06:	0023      	movs	r3, r4
 8003a08:	3340      	adds	r3, #64	; 0x40
    HAL_I2C_MspInit(hi2c);
 8003a0a:	0020      	movs	r0, r4
    hi2c->Lock = HAL_UNLOCKED;
 8003a0c:	701a      	strb	r2, [r3, #0]
    HAL_I2C_MspInit(hi2c);
 8003a0e:	f7ff fc1d 	bl	800324c <HAL_I2C_MspInit>
  hi2c->State = HAL_I2C_STATE_BUSY;
 8003a12:	2324      	movs	r3, #36	; 0x24
  __HAL_I2C_DISABLE(hi2c);
 8003a14:	2101      	movs	r1, #1
  hi2c->State = HAL_I2C_STATE_BUSY;
 8003a16:	702b      	strb	r3, [r5, #0]
  __HAL_I2C_DISABLE(hi2c);
 8003a18:	6823      	ldr	r3, [r4, #0]
  hi2c->Instance->OAR1 &= ~I2C_OAR1_OA1EN;
 8003a1a:	481d      	ldr	r0, [pc, #116]	; (8003a90 <HAL_I2C_Init+0xa0>)
  __HAL_I2C_DISABLE(hi2c);
 8003a1c:	681a      	ldr	r2, [r3, #0]
    hi2c->Instance->OAR1 = (I2C_OAR1_OA1EN | hi2c->Init.OwnAddress1);
 8003a1e:	68a6      	ldr	r6, [r4, #8]
  __HAL_I2C_DISABLE(hi2c);
 8003a20:	438a      	bics	r2, r1
 8003a22:	601a      	str	r2, [r3, #0]
  hi2c->Instance->TIMINGR = hi2c->Init.Timing & TIMING_CLEAR_MASK;
 8003a24:	6861      	ldr	r1, [r4, #4]
 8003a26:	4a1b      	ldr	r2, [pc, #108]	; (8003a94 <HAL_I2C_Init+0xa4>)
 8003a28:	400a      	ands	r2, r1
 8003a2a:	611a      	str	r2, [r3, #16]
  hi2c->Instance->OAR1 &= ~I2C_OAR1_OA1EN;
 8003a2c:	689a      	ldr	r2, [r3, #8]
 8003a2e:	4002      	ands	r2, r0
 8003a30:	609a      	str	r2, [r3, #8]
  if (hi2c->Init.AddressingMode == I2C_ADDRESSINGMODE_7BIT)
 8003a32:	68e2      	ldr	r2, [r4, #12]
 8003a34:	2a01      	cmp	r2, #1
 8003a36:	d121      	bne.n	8003a7c <HAL_I2C_Init+0x8c>
    hi2c->Instance->OAR1 = (I2C_OAR1_OA1EN | hi2c->Init.OwnAddress1);
 8003a38:	2180      	movs	r1, #128	; 0x80
 8003a3a:	0209      	lsls	r1, r1, #8
 8003a3c:	4331      	orrs	r1, r6
 8003a3e:	6099      	str	r1, [r3, #8]
  hi2c->Instance->CR2 |= (I2C_CR2_AUTOEND | I2C_CR2_NACK);
 8003a40:	685a      	ldr	r2, [r3, #4]
 8003a42:	4915      	ldr	r1, [pc, #84]	; (8003a98 <HAL_I2C_Init+0xa8>)
 8003a44:	4311      	orrs	r1, r2
 8003a46:	6059      	str	r1, [r3, #4]
  hi2c->Instance->OAR2 &= ~I2C_DUALADDRESS_ENABLE;
 8003a48:	68da      	ldr	r2, [r3, #12]
  hi2c->Instance->OAR2 = (hi2c->Init.DualAddressMode | hi2c->Init.OwnAddress2 | \
 8003a4a:	6961      	ldr	r1, [r4, #20]
  hi2c->Instance->OAR2 &= ~I2C_DUALADDRESS_ENABLE;
 8003a4c:	4002      	ands	r2, r0
 8003a4e:	60da      	str	r2, [r3, #12]
  hi2c->Instance->OAR2 = (hi2c->Init.DualAddressMode | hi2c->Init.OwnAddress2 | \
 8003a50:	6922      	ldr	r2, [r4, #16]
  hi2c->ErrorCode = HAL_I2C_ERROR_NONE;
 8003a52:	2000      	movs	r0, #0
  hi2c->Instance->OAR2 = (hi2c->Init.DualAddressMode | hi2c->Init.OwnAddress2 | \
 8003a54:	430a      	orrs	r2, r1
                          (hi2c->Init.OwnAddress2Masks << 8));
 8003a56:	69a1      	ldr	r1, [r4, #24]
 8003a58:	0209      	lsls	r1, r1, #8
  hi2c->Instance->OAR2 = (hi2c->Init.DualAddressMode | hi2c->Init.OwnAddress2 | \
 8003a5a:	430a      	orrs	r2, r1
 8003a5c:	60da      	str	r2, [r3, #12]
  hi2c->Instance->CR1 = (hi2c->Init.GeneralCallMode | hi2c->Init.NoStretchMode);
 8003a5e:	6a21      	ldr	r1, [r4, #32]
 8003a60:	69e2      	ldr	r2, [r4, #28]
 8003a62:	430a      	orrs	r2, r1
 8003a64:	601a      	str	r2, [r3, #0]
  __HAL_I2C_ENABLE(hi2c);
 8003a66:	2201      	movs	r2, #1
 8003a68:	6819      	ldr	r1, [r3, #0]
 8003a6a:	430a      	orrs	r2, r1
 8003a6c:	601a      	str	r2, [r3, #0]
  hi2c->State = HAL_I2C_STATE_READY;
 8003a6e:	2320      	movs	r3, #32
  hi2c->ErrorCode = HAL_I2C_ERROR_NONE;
 8003a70:	6460      	str	r0, [r4, #68]	; 0x44
  hi2c->State = HAL_I2C_STATE_READY;
 8003a72:	702b      	strb	r3, [r5, #0]
  hi2c->PreviousState = I2C_STATE_NONE;
 8003a74:	6320      	str	r0, [r4, #48]	; 0x30
  hi2c->Mode = HAL_I2C_MODE_NONE;
 8003a76:	3442      	adds	r4, #66	; 0x42
 8003a78:	7020      	strb	r0, [r4, #0]
}
 8003a7a:	bd70      	pop	{r4, r5, r6, pc}
    hi2c->Instance->OAR1 = (I2C_OAR1_OA1EN | I2C_OAR1_OA1MODE | hi2c->Init.OwnAddress1);
 8003a7c:	2184      	movs	r1, #132	; 0x84
 8003a7e:	0209      	lsls	r1, r1, #8
 8003a80:	4331      	orrs	r1, r6
 8003a82:	6099      	str	r1, [r3, #8]
  if (hi2c->Init.AddressingMode == I2C_ADDRESSINGMODE_10BIT)
 8003a84:	2a02      	cmp	r2, #2
 8003a86:	d1db      	bne.n	8003a40 <HAL_I2C_Init+0x50>
    hi2c->Instance->CR2 = (I2C_CR2_ADD10);
 8003a88:	2280      	movs	r2, #128	; 0x80
 8003a8a:	0112      	lsls	r2, r2, #4
 8003a8c:	605a      	str	r2, [r3, #4]
 8003a8e:	e7d7      	b.n	8003a40 <HAL_I2C_Init+0x50>
 8003a90:	ffff7fff 	.word	0xffff7fff
 8003a94:	f0ffffff 	.word	0xf0ffffff
 8003a98:	02008000 	.word	0x02008000

08003a9c <HAL_I2C_Master_Transmit>:
{
 8003a9c:	b5f0      	push	{r4, r5, r6, r7, lr}
 8003a9e:	b087      	sub	sp, #28
 8003aa0:	9305      	str	r3, [sp, #20]
  if (hi2c->State == HAL_I2C_STATE_READY)
 8003aa2:	0003      	movs	r3, r0
 8003aa4:	3341      	adds	r3, #65	; 0x41
{
 8003aa6:	9204      	str	r2, [sp, #16]
  if (hi2c->State == HAL_I2C_STATE_READY)
 8003aa8:	9303      	str	r3, [sp, #12]
 8003aaa:	781b      	ldrb	r3, [r3, #0]
{
 8003aac:	0004      	movs	r4, r0
 8003aae:	000f      	movs	r7, r1
    return HAL_BUSY;
 8003ab0:	2002      	movs	r0, #2
  if (hi2c->State == HAL_I2C_STATE_READY)
 8003ab2:	2b20      	cmp	r3, #32
 8003ab4:	d114      	bne.n	8003ae0 <HAL_I2C_Master_Transmit+0x44>
    __HAL_LOCK(hi2c);
 8003ab6:	0023      	movs	r3, r4
 8003ab8:	3340      	adds	r3, #64	; 0x40
 8003aba:	781a      	ldrb	r2, [r3, #0]
 8003abc:	2a01      	cmp	r2, #1
 8003abe:	d00f      	beq.n	8003ae0 <HAL_I2C_Master_Transmit+0x44>
 8003ac0:	2601      	movs	r6, #1
 8003ac2:	701e      	strb	r6, [r3, #0]
    tickstart = HAL_GetTick();
 8003ac4:	f7ff fcec 	bl	80034a0 <HAL_GetTick>
    if (I2C_WaitOnFlagUntilTimeout(hi2c, I2C_FLAG_BUSY, SET, I2C_TIMEOUT_BUSY, tickstart) != HAL_OK)
 8003ac8:	2180      	movs	r1, #128	; 0x80
    tickstart = HAL_GetTick();
 8003aca:	0005      	movs	r5, r0
    if (I2C_WaitOnFlagUntilTimeout(hi2c, I2C_FLAG_BUSY, SET, I2C_TIMEOUT_BUSY, tickstart) != HAL_OK)
 8003acc:	9000      	str	r0, [sp, #0]
 8003ace:	2319      	movs	r3, #25
 8003ad0:	0032      	movs	r2, r6
 8003ad2:	0020      	movs	r0, r4
 8003ad4:	0209      	lsls	r1, r1, #8
 8003ad6:	f7ff fede 	bl	8003896 <I2C_WaitOnFlagUntilTimeout>
 8003ada:	2800      	cmp	r0, #0
 8003adc:	d002      	beq.n	8003ae4 <HAL_I2C_Master_Transmit+0x48>
      return HAL_ERROR;
 8003ade:	2001      	movs	r0, #1
}
 8003ae0:	b007      	add	sp, #28
 8003ae2:	bdf0      	pop	{r4, r5, r6, r7, pc}
    hi2c->State     = HAL_I2C_STATE_BUSY_TX;
 8003ae4:	2321      	movs	r3, #33	; 0x21
    hi2c->Mode      = HAL_I2C_MODE_MASTER;
 8003ae6:	0026      	movs	r6, r4
    hi2c->State     = HAL_I2C_STATE_BUSY_TX;
 8003ae8:	9a03      	ldr	r2, [sp, #12]
    hi2c->Mode      = HAL_I2C_MODE_MASTER;
 8003aea:	3642      	adds	r6, #66	; 0x42
    hi2c->State     = HAL_I2C_STATE_BUSY_TX;
 8003aec:	7013      	strb	r3, [r2, #0]
    hi2c->Mode      = HAL_I2C_MODE_MASTER;
 8003aee:	3b11      	subs	r3, #17
 8003af0:	7033      	strb	r3, [r6, #0]
    hi2c->pBuffPtr  = pData;
 8003af2:	9b04      	ldr	r3, [sp, #16]
    hi2c->ErrorCode = HAL_I2C_ERROR_NONE;
 8003af4:	6460      	str	r0, [r4, #68]	; 0x44
    hi2c->pBuffPtr  = pData;
 8003af6:	6263      	str	r3, [r4, #36]	; 0x24
    hi2c->XferCount = Size;
 8003af8:	9b05      	ldr	r3, [sp, #20]
    hi2c->XferISR   = NULL;
 8003afa:	6360      	str	r0, [r4, #52]	; 0x34
    hi2c->XferCount = Size;
 8003afc:	8563      	strh	r3, [r4, #42]	; 0x2a
    if (hi2c->XferCount > MAX_NBYTE_SIZE)
 8003afe:	8d62      	ldrh	r2, [r4, #42]	; 0x2a
 8003b00:	4b2d      	ldr	r3, [pc, #180]	; (8003bb8 <HAL_I2C_Master_Transmit+0x11c>)
 8003b02:	2aff      	cmp	r2, #255	; 0xff
 8003b04:	d920      	bls.n	8003b48 <HAL_I2C_Master_Transmit+0xac>
      hi2c->XferSize = MAX_NBYTE_SIZE;
 8003b06:	22ff      	movs	r2, #255	; 0xff
 8003b08:	8522      	strh	r2, [r4, #40]	; 0x28
      I2C_TransferConfig(hi2c, DevAddress, (uint8_t)hi2c->XferSize, I2C_RELOAD_MODE,
 8003b0a:	9300      	str	r3, [sp, #0]
 8003b0c:	2380      	movs	r3, #128	; 0x80
 8003b0e:	045b      	lsls	r3, r3, #17
          I2C_TransferConfig(hi2c, DevAddress, (uint8_t)hi2c->XferSize, I2C_AUTOEND_MODE,
 8003b10:	0039      	movs	r1, r7
 8003b12:	0020      	movs	r0, r4
 8003b14:	f7ff fdf8 	bl	8003708 <I2C_TransferConfig>
    while (hi2c->XferCount > 0U)
 8003b18:	8d63      	ldrh	r3, [r4, #42]	; 0x2a
      if (I2C_WaitOnTXISFlagUntilTimeout(hi2c, Timeout, tickstart) != HAL_OK)
 8003b1a:	002a      	movs	r2, r5
 8003b1c:	0020      	movs	r0, r4
 8003b1e:	990c      	ldr	r1, [sp, #48]	; 0x30
    while (hi2c->XferCount > 0U)
 8003b20:	2b00      	cmp	r3, #0
 8003b22:	d119      	bne.n	8003b58 <HAL_I2C_Master_Transmit+0xbc>
    if (I2C_WaitOnSTOPFlagUntilTimeout(hi2c, Timeout, tickstart) != HAL_OK)
 8003b24:	f7ff fee7 	bl	80038f6 <I2C_WaitOnSTOPFlagUntilTimeout>
 8003b28:	2800      	cmp	r0, #0
 8003b2a:	d1d8      	bne.n	8003ade <HAL_I2C_Master_Transmit+0x42>
    __HAL_I2C_CLEAR_FLAG(hi2c, I2C_FLAG_STOPF);
 8003b2c:	2120      	movs	r1, #32
 8003b2e:	6823      	ldr	r3, [r4, #0]
    I2C_RESET_CR2(hi2c);
 8003b30:	4d22      	ldr	r5, [pc, #136]	; (8003bbc <HAL_I2C_Master_Transmit+0x120>)
    __HAL_I2C_CLEAR_FLAG(hi2c, I2C_FLAG_STOPF);
 8003b32:	61d9      	str	r1, [r3, #28]
    I2C_RESET_CR2(hi2c);
 8003b34:	685a      	ldr	r2, [r3, #4]
 8003b36:	402a      	ands	r2, r5
 8003b38:	605a      	str	r2, [r3, #4]
    hi2c->State = HAL_I2C_STATE_READY;
 8003b3a:	0023      	movs	r3, r4
    __HAL_UNLOCK(hi2c);
 8003b3c:	3440      	adds	r4, #64	; 0x40
    hi2c->State = HAL_I2C_STATE_READY;
 8003b3e:	3341      	adds	r3, #65	; 0x41
 8003b40:	7019      	strb	r1, [r3, #0]
    hi2c->Mode  = HAL_I2C_MODE_NONE;
 8003b42:	7030      	strb	r0, [r6, #0]
    __HAL_UNLOCK(hi2c);
 8003b44:	7020      	strb	r0, [r4, #0]
    return HAL_OK;
 8003b46:	e7cb      	b.n	8003ae0 <HAL_I2C_Master_Transmit+0x44>
      hi2c->XferSize = hi2c->XferCount;
 8003b48:	8d62      	ldrh	r2, [r4, #42]	; 0x2a
 8003b4a:	b292      	uxth	r2, r2
 8003b4c:	8522      	strh	r2, [r4, #40]	; 0x28
      I2C_TransferConfig(hi2c, DevAddress, (uint8_t)hi2c->XferSize, I2C_AUTOEND_MODE,
 8003b4e:	b2d2      	uxtb	r2, r2
 8003b50:	9300      	str	r3, [sp, #0]
          I2C_TransferConfig(hi2c, DevAddress, (uint8_t)hi2c->XferSize, I2C_AUTOEND_MODE,
 8003b52:	2380      	movs	r3, #128	; 0x80
 8003b54:	049b      	lsls	r3, r3, #18
 8003b56:	e7db      	b.n	8003b10 <HAL_I2C_Master_Transmit+0x74>
      if (I2C_WaitOnTXISFlagUntilTimeout(hi2c, Timeout, tickstart) != HAL_OK)
 8003b58:	f7ff fe70 	bl	800383c <I2C_WaitOnTXISFlagUntilTimeout>
 8003b5c:	2800      	cmp	r0, #0
 8003b5e:	d1be      	bne.n	8003ade <HAL_I2C_Master_Transmit+0x42>
      hi2c->Instance->TXDR = *hi2c->pBuffPtr;
 8003b60:	6a63      	ldr	r3, [r4, #36]	; 0x24
 8003b62:	6822      	ldr	r2, [r4, #0]
 8003b64:	7819      	ldrb	r1, [r3, #0]
      hi2c->pBuffPtr++;
 8003b66:	3301      	adds	r3, #1
      hi2c->Instance->TXDR = *hi2c->pBuffPtr;
 8003b68:	6291      	str	r1, [r2, #40]	; 0x28
      hi2c->pBuffPtr++;
 8003b6a:	6263      	str	r3, [r4, #36]	; 0x24
      hi2c->XferCount--;
 8003b6c:	8d63      	ldrh	r3, [r4, #42]	; 0x2a
      hi2c->XferSize--;
 8003b6e:	8d22      	ldrh	r2, [r4, #40]	; 0x28
      hi2c->XferCount--;
 8003b70:	3b01      	subs	r3, #1
 8003b72:	b29b      	uxth	r3, r3
 8003b74:	8563      	strh	r3, [r4, #42]	; 0x2a
      hi2c->XferSize--;
 8003b76:	3a01      	subs	r2, #1
      if ((hi2c->XferCount != 0U) && (hi2c->XferSize == 0U))
 8003b78:	8d63      	ldrh	r3, [r4, #42]	; 0x2a
      hi2c->XferSize--;
 8003b7a:	b292      	uxth	r2, r2
 8003b7c:	8522      	strh	r2, [r4, #40]	; 0x28
      if ((hi2c->XferCount != 0U) && (hi2c->XferSize == 0U))
 8003b7e:	2b00      	cmp	r3, #0
 8003b80:	d0ca      	beq.n	8003b18 <HAL_I2C_Master_Transmit+0x7c>
 8003b82:	2a00      	cmp	r2, #0
 8003b84:	d1c8      	bne.n	8003b18 <HAL_I2C_Master_Transmit+0x7c>
        if (I2C_WaitOnFlagUntilTimeout(hi2c, I2C_FLAG_TCR, RESET, Timeout, tickstart) != HAL_OK)
 8003b86:	2180      	movs	r1, #128	; 0x80
 8003b88:	0020      	movs	r0, r4
 8003b8a:	9b0c      	ldr	r3, [sp, #48]	; 0x30
 8003b8c:	9500      	str	r5, [sp, #0]
 8003b8e:	f7ff fe82 	bl	8003896 <I2C_WaitOnFlagUntilTimeout>
 8003b92:	2800      	cmp	r0, #0
 8003b94:	d1a3      	bne.n	8003ade <HAL_I2C_Master_Transmit+0x42>
        if (hi2c->XferCount > MAX_NBYTE_SIZE)
 8003b96:	8d63      	ldrh	r3, [r4, #42]	; 0x2a
 8003b98:	2bff      	cmp	r3, #255	; 0xff
 8003b9a:	d906      	bls.n	8003baa <HAL_I2C_Master_Transmit+0x10e>
          hi2c->XferSize = MAX_NBYTE_SIZE;
 8003b9c:	23ff      	movs	r3, #255	; 0xff
 8003b9e:	8523      	strh	r3, [r4, #40]	; 0x28
          I2C_TransferConfig(hi2c, DevAddress, (uint8_t)hi2c->XferSize, I2C_RELOAD_MODE,
 8003ba0:	2380      	movs	r3, #128	; 0x80
 8003ba2:	22ff      	movs	r2, #255	; 0xff
 8003ba4:	9000      	str	r0, [sp, #0]
 8003ba6:	045b      	lsls	r3, r3, #17
 8003ba8:	e7b2      	b.n	8003b10 <HAL_I2C_Master_Transmit+0x74>
          hi2c->XferSize = hi2c->XferCount;
 8003baa:	8d62      	ldrh	r2, [r4, #42]	; 0x2a
 8003bac:	b292      	uxth	r2, r2
 8003bae:	8522      	strh	r2, [r4, #40]	; 0x28
          I2C_TransferConfig(hi2c, DevAddress, (uint8_t)hi2c->XferSize, I2C_AUTOEND_MODE,
 8003bb0:	b2d2      	uxtb	r2, r2
 8003bb2:	9000      	str	r0, [sp, #0]
 8003bb4:	e7cd      	b.n	8003b52 <HAL_I2C_Master_Transmit+0xb6>
 8003bb6:	46c0      	nop			; (mov r8, r8)
 8003bb8:	80002000 	.word	0x80002000
 8003bbc:	fe00e800 	.word	0xfe00e800

08003bc0 <HAL_I2C_Master_Receive>:
{
 8003bc0:	b5f0      	push	{r4, r5, r6, r7, lr}
 8003bc2:	b087      	sub	sp, #28
 8003bc4:	9305      	str	r3, [sp, #20]
  if (hi2c->State == HAL_I2C_STATE_READY)
 8003bc6:	0003      	movs	r3, r0
 8003bc8:	3341      	adds	r3, #65	; 0x41
{
 8003bca:	9204      	str	r2, [sp, #16]
  if (hi2c->State == HAL_I2C_STATE_READY)
 8003bcc:	9303      	str	r3, [sp, #12]
 8003bce:	781b      	ldrb	r3, [r3, #0]
{
 8003bd0:	0004      	movs	r4, r0
 8003bd2:	000f      	movs	r7, r1
    return HAL_BUSY;
 8003bd4:	2002      	movs	r0, #2
  if (hi2c->State == HAL_I2C_STATE_READY)
 8003bd6:	2b20      	cmp	r3, #32
 8003bd8:	d114      	bne.n	8003c04 <HAL_I2C_Master_Receive+0x44>
    __HAL_LOCK(hi2c);
 8003bda:	0023      	movs	r3, r4
 8003bdc:	3340      	adds	r3, #64	; 0x40
 8003bde:	781a      	ldrb	r2, [r3, #0]
 8003be0:	2a01      	cmp	r2, #1
 8003be2:	d00f      	beq.n	8003c04 <HAL_I2C_Master_Receive+0x44>
 8003be4:	2601      	movs	r6, #1
 8003be6:	701e      	strb	r6, [r3, #0]
    tickstart = HAL_GetTick();
 8003be8:	f7ff fc5a 	bl	80034a0 <HAL_GetTick>
    if (I2C_WaitOnFlagUntilTimeout(hi2c, I2C_FLAG_BUSY, SET, I2C_TIMEOUT_BUSY, tickstart) != HAL_OK)
 8003bec:	2180      	movs	r1, #128	; 0x80
    tickstart = HAL_GetTick();
 8003bee:	0005      	movs	r5, r0
    if (I2C_WaitOnFlagUntilTimeout(hi2c, I2C_FLAG_BUSY, SET, I2C_TIMEOUT_BUSY, tickstart) != HAL_OK)
 8003bf0:	9000      	str	r0, [sp, #0]
 8003bf2:	2319      	movs	r3, #25
 8003bf4:	0032      	movs	r2, r6
 8003bf6:	0020      	movs	r0, r4
 8003bf8:	0209      	lsls	r1, r1, #8
 8003bfa:	f7ff fe4c 	bl	8003896 <I2C_WaitOnFlagUntilTimeout>
 8003bfe:	2800      	cmp	r0, #0
 8003c00:	d002      	beq.n	8003c08 <HAL_I2C_Master_Receive+0x48>
      return HAL_ERROR;
 8003c02:	2001      	movs	r0, #1
}
 8003c04:	b007      	add	sp, #28
 8003c06:	bdf0      	pop	{r4, r5, r6, r7, pc}
    hi2c->State     = HAL_I2C_STATE_BUSY_RX;
 8003c08:	2322      	movs	r3, #34	; 0x22
    hi2c->Mode      = HAL_I2C_MODE_MASTER;
 8003c0a:	0026      	movs	r6, r4
    hi2c->State     = HAL_I2C_STATE_BUSY_RX;
 8003c0c:	9a03      	ldr	r2, [sp, #12]
    hi2c->Mode      = HAL_I2C_MODE_MASTER;
 8003c0e:	3642      	adds	r6, #66	; 0x42
    hi2c->State     = HAL_I2C_STATE_BUSY_RX;
 8003c10:	7013      	strb	r3, [r2, #0]
    hi2c->Mode      = HAL_I2C_MODE_MASTER;
 8003c12:	3b12      	subs	r3, #18
 8003c14:	7033      	strb	r3, [r6, #0]
    hi2c->pBuffPtr  = pData;
 8003c16:	9b04      	ldr	r3, [sp, #16]
    hi2c->ErrorCode = HAL_I2C_ERROR_NONE;
 8003c18:	6460      	str	r0, [r4, #68]	; 0x44
    hi2c->pBuffPtr  = pData;
 8003c1a:	6263      	str	r3, [r4, #36]	; 0x24
    hi2c->XferCount = Size;
 8003c1c:	9b05      	ldr	r3, [sp, #20]
    hi2c->XferISR   = NULL;
 8003c1e:	6360      	str	r0, [r4, #52]	; 0x34
    hi2c->XferCount = Size;
 8003c20:	8563      	strh	r3, [r4, #42]	; 0x2a
    if (hi2c->XferCount > MAX_NBYTE_SIZE)
 8003c22:	8d62      	ldrh	r2, [r4, #42]	; 0x2a
 8003c24:	4b2d      	ldr	r3, [pc, #180]	; (8003cdc <HAL_I2C_Master_Receive+0x11c>)
 8003c26:	2aff      	cmp	r2, #255	; 0xff
 8003c28:	d920      	bls.n	8003c6c <HAL_I2C_Master_Receive+0xac>
      hi2c->XferSize = MAX_NBYTE_SIZE;
 8003c2a:	22ff      	movs	r2, #255	; 0xff
 8003c2c:	8522      	strh	r2, [r4, #40]	; 0x28
      I2C_TransferConfig(hi2c, DevAddress, (uint8_t)hi2c->XferSize, I2C_RELOAD_MODE,
 8003c2e:	9300      	str	r3, [sp, #0]
 8003c30:	2380      	movs	r3, #128	; 0x80
 8003c32:	045b      	lsls	r3, r3, #17
          I2C_TransferConfig(hi2c, DevAddress, (uint8_t)hi2c->XferSize, I2C_AUTOEND_MODE,
 8003c34:	0039      	movs	r1, r7
 8003c36:	0020      	movs	r0, r4
 8003c38:	f7ff fd66 	bl	8003708 <I2C_TransferConfig>
    while (hi2c->XferCount > 0U)
 8003c3c:	8d63      	ldrh	r3, [r4, #42]	; 0x2a
      if (I2C_WaitOnRXNEFlagUntilTimeout(hi2c, Timeout, tickstart) != HAL_OK)
 8003c3e:	002a      	movs	r2, r5
 8003c40:	0020      	movs	r0, r4
 8003c42:	990c      	ldr	r1, [sp, #48]	; 0x30
    while (hi2c->XferCount > 0U)
 8003c44:	2b00      	cmp	r3, #0
 8003c46:	d119      	bne.n	8003c7c <HAL_I2C_Master_Receive+0xbc>
    if (I2C_WaitOnSTOPFlagUntilTimeout(hi2c, Timeout, tickstart) != HAL_OK)
 8003c48:	f7ff fe55 	bl	80038f6 <I2C_WaitOnSTOPFlagUntilTimeout>
 8003c4c:	2800      	cmp	r0, #0
 8003c4e:	d1d8      	bne.n	8003c02 <HAL_I2C_Master_Receive+0x42>
    __HAL_I2C_CLEAR_FLAG(hi2c, I2C_FLAG_STOPF);
 8003c50:	2120      	movs	r1, #32
 8003c52:	6823      	ldr	r3, [r4, #0]
    I2C_RESET_CR2(hi2c);
 8003c54:	4d22      	ldr	r5, [pc, #136]	; (8003ce0 <HAL_I2C_Master_Receive+0x120>)
    __HAL_I2C_CLEAR_FLAG(hi2c, I2C_FLAG_STOPF);
 8003c56:	61d9      	str	r1, [r3, #28]
    I2C_RESET_CR2(hi2c);
 8003c58:	685a      	ldr	r2, [r3, #4]
 8003c5a:	402a      	ands	r2, r5
 8003c5c:	605a      	str	r2, [r3, #4]
    hi2c->State = HAL_I2C_STATE_READY;
 8003c5e:	0023      	movs	r3, r4
    __HAL_UNLOCK(hi2c);
 8003c60:	3440      	adds	r4, #64	; 0x40
    hi2c->State = HAL_I2C_STATE_READY;
 8003c62:	3341      	adds	r3, #65	; 0x41
 8003c64:	7019      	strb	r1, [r3, #0]
    hi2c->Mode  = HAL_I2C_MODE_NONE;
 8003c66:	7030      	strb	r0, [r6, #0]
    __HAL_UNLOCK(hi2c);
 8003c68:	7020      	strb	r0, [r4, #0]
    return HAL_OK;
 8003c6a:	e7cb      	b.n	8003c04 <HAL_I2C_Master_Receive+0x44>
      hi2c->XferSize = hi2c->XferCount;
 8003c6c:	8d62      	ldrh	r2, [r4, #42]	; 0x2a
 8003c6e:	b292      	uxth	r2, r2
 8003c70:	8522      	strh	r2, [r4, #40]	; 0x28
      I2C_TransferConfig(hi2c, DevAddress, (uint8_t)hi2c->XferSize, I2C_AUTOEND_MODE,
 8003c72:	b2d2      	uxtb	r2, r2
 8003c74:	9300      	str	r3, [sp, #0]
          I2C_TransferConfig(hi2c, DevAddress, (uint8_t)hi2c->XferSize, I2C_AUTOEND_MODE,
 8003c76:	2380      	movs	r3, #128	; 0x80
 8003c78:	049b      	lsls	r3, r3, #18
 8003c7a:	e7db      	b.n	8003c34 <HAL_I2C_Master_Receive+0x74>
      if (I2C_WaitOnRXNEFlagUntilTimeout(hi2c, Timeout, tickstart) != HAL_OK)
 8003c7c:	f7ff fe66 	bl	800394c <I2C_WaitOnRXNEFlagUntilTimeout>
 8003c80:	2800      	cmp	r0, #0
 8003c82:	d1be      	bne.n	8003c02 <HAL_I2C_Master_Receive+0x42>
      *hi2c->pBuffPtr = (uint8_t)hi2c->Instance->RXDR;
 8003c84:	6823      	ldr	r3, [r4, #0]
 8003c86:	6a62      	ldr	r2, [r4, #36]	; 0x24
 8003c88:	6a5b      	ldr	r3, [r3, #36]	; 0x24
 8003c8a:	7013      	strb	r3, [r2, #0]
      hi2c->pBuffPtr++;
 8003c8c:	6a63      	ldr	r3, [r4, #36]	; 0x24
      hi2c->XferSize--;
 8003c8e:	8d22      	ldrh	r2, [r4, #40]	; 0x28
      hi2c->pBuffPtr++;
 8003c90:	3301      	adds	r3, #1
 8003c92:	6263      	str	r3, [r4, #36]	; 0x24
      hi2c->XferCount--;
 8003c94:	8d63      	ldrh	r3, [r4, #42]	; 0x2a
      hi2c->XferSize--;
 8003c96:	3a01      	subs	r2, #1
      hi2c->XferCount--;
 8003c98:	3b01      	subs	r3, #1
 8003c9a:	b29b      	uxth	r3, r3
 8003c9c:	8563      	strh	r3, [r4, #42]	; 0x2a
      if ((hi2c->XferCount != 0U) && (hi2c->XferSize == 0U))
 8003c9e:	8d63      	ldrh	r3, [r4, #42]	; 0x2a
      hi2c->XferSize--;
 8003ca0:	b292      	uxth	r2, r2
 8003ca2:	8522      	strh	r2, [r4, #40]	; 0x28
      if ((hi2c->XferCount != 0U) && (hi2c->XferSize == 0U))
 8003ca4:	2b00      	cmp	r3, #0
 8003ca6:	d0c9      	beq.n	8003c3c <HAL_I2C_Master_Receive+0x7c>
 8003ca8:	2a00      	cmp	r2, #0
 8003caa:	d1c7      	bne.n	8003c3c <HAL_I2C_Master_Receive+0x7c>
        if (I2C_WaitOnFlagUntilTimeout(hi2c, I2C_FLAG_TCR, RESET, Timeout, tickstart) != HAL_OK)
 8003cac:	2180      	movs	r1, #128	; 0x80
 8003cae:	0020      	movs	r0, r4
 8003cb0:	9b0c      	ldr	r3, [sp, #48]	; 0x30
 8003cb2:	9500      	str	r5, [sp, #0]
 8003cb4:	f7ff fdef 	bl	8003896 <I2C_WaitOnFlagUntilTimeout>
 8003cb8:	2800      	cmp	r0, #0
 8003cba:	d1a2      	bne.n	8003c02 <HAL_I2C_Master_Receive+0x42>
        if (hi2c->XferCount > MAX_NBYTE_SIZE)
 8003cbc:	8d63      	ldrh	r3, [r4, #42]	; 0x2a
 8003cbe:	2bff      	cmp	r3, #255	; 0xff
 8003cc0:	d906      	bls.n	8003cd0 <HAL_I2C_Master_Receive+0x110>
          hi2c->XferSize = MAX_NBYTE_SIZE;
 8003cc2:	23ff      	movs	r3, #255	; 0xff
 8003cc4:	8523      	strh	r3, [r4, #40]	; 0x28
          I2C_TransferConfig(hi2c, DevAddress, (uint8_t)hi2c->XferSize, I2C_RELOAD_MODE,
 8003cc6:	2380      	movs	r3, #128	; 0x80
 8003cc8:	22ff      	movs	r2, #255	; 0xff
 8003cca:	9000      	str	r0, [sp, #0]
 8003ccc:	045b      	lsls	r3, r3, #17
 8003cce:	e7b1      	b.n	8003c34 <HAL_I2C_Master_Receive+0x74>
          hi2c->XferSize = hi2c->XferCount;
 8003cd0:	8d62      	ldrh	r2, [r4, #42]	; 0x2a
 8003cd2:	b292      	uxth	r2, r2
 8003cd4:	8522      	strh	r2, [r4, #40]	; 0x28
          I2C_TransferConfig(hi2c, DevAddress, (uint8_t)hi2c->XferSize, I2C_AUTOEND_MODE,
 8003cd6:	b2d2      	uxtb	r2, r2
 8003cd8:	9000      	str	r0, [sp, #0]
 8003cda:	e7cc      	b.n	8003c76 <HAL_I2C_Master_Receive+0xb6>
 8003cdc:	80002400 	.word	0x80002400
 8003ce0:	fe00e800 	.word	0xfe00e800

08003ce4 <HAL_I2C_Mem_Write>:
{
 8003ce4:	b5f0      	push	{r4, r5, r6, r7, lr}
 8003ce6:	b089      	sub	sp, #36	; 0x24
 8003ce8:	9304      	str	r3, [sp, #16]
 8003cea:	ab0e      	add	r3, sp, #56	; 0x38
 8003cec:	9203      	str	r2, [sp, #12]
 8003cee:	cb04      	ldmia	r3!, {r2}
 8003cf0:	0004      	movs	r4, r0
 8003cf2:	881b      	ldrh	r3, [r3, #0]
 8003cf4:	9205      	str	r2, [sp, #20]
 8003cf6:	9306      	str	r3, [sp, #24]
  if (hi2c->State == HAL_I2C_STATE_READY)
 8003cf8:	0003      	movs	r3, r0
 8003cfa:	3341      	adds	r3, #65	; 0x41
 8003cfc:	9307      	str	r3, [sp, #28]
 8003cfe:	781b      	ldrb	r3, [r3, #0]
{
 8003d00:	000f      	movs	r7, r1
    return HAL_BUSY;
 8003d02:	2002      	movs	r0, #2
{
 8003d04:	9e10      	ldr	r6, [sp, #64]	; 0x40
  if (hi2c->State == HAL_I2C_STATE_READY)
 8003d06:	2b20      	cmp	r3, #32
 8003d08:	d108      	bne.n	8003d1c <HAL_I2C_Mem_Write+0x38>
    if ((pData == NULL) || (Size == 0U))
 8003d0a:	2a00      	cmp	r2, #0
 8003d0c:	d002      	beq.n	8003d14 <HAL_I2C_Mem_Write+0x30>
 8003d0e:	9b06      	ldr	r3, [sp, #24]
 8003d10:	2b00      	cmp	r3, #0
 8003d12:	d105      	bne.n	8003d20 <HAL_I2C_Mem_Write+0x3c>
      hi2c->ErrorCode = HAL_I2C_ERROR_INVALID_PARAM;
 8003d14:	2380      	movs	r3, #128	; 0x80
 8003d16:	009b      	lsls	r3, r3, #2
 8003d18:	6463      	str	r3, [r4, #68]	; 0x44
      return HAL_ERROR;
 8003d1a:	2001      	movs	r0, #1
}
 8003d1c:	b009      	add	sp, #36	; 0x24
 8003d1e:	bdf0      	pop	{r4, r5, r6, r7, pc}
    __HAL_LOCK(hi2c);
 8003d20:	0023      	movs	r3, r4
 8003d22:	3340      	adds	r3, #64	; 0x40
 8003d24:	781a      	ldrb	r2, [r3, #0]
    return HAL_BUSY;
 8003d26:	2002      	movs	r0, #2
    __HAL_LOCK(hi2c);
 8003d28:	2a01      	cmp	r2, #1
 8003d2a:	d0f7      	beq.n	8003d1c <HAL_I2C_Mem_Write+0x38>
 8003d2c:	2201      	movs	r2, #1
 8003d2e:	701a      	strb	r2, [r3, #0]
    tickstart = HAL_GetTick();
 8003d30:	f7ff fbb6 	bl	80034a0 <HAL_GetTick>
    if (I2C_WaitOnFlagUntilTimeout(hi2c, I2C_FLAG_BUSY, SET, I2C_TIMEOUT_BUSY, tickstart) != HAL_OK)
 8003d34:	2180      	movs	r1, #128	; 0x80
    tickstart = HAL_GetTick();
 8003d36:	0005      	movs	r5, r0
    if (I2C_WaitOnFlagUntilTimeout(hi2c, I2C_FLAG_BUSY, SET, I2C_TIMEOUT_BUSY, tickstart) != HAL_OK)
 8003d38:	9000      	str	r0, [sp, #0]
 8003d3a:	2319      	movs	r3, #25
 8003d3c:	2201      	movs	r2, #1
 8003d3e:	0020      	movs	r0, r4
 8003d40:	0209      	lsls	r1, r1, #8
 8003d42:	f7ff fda8 	bl	8003896 <I2C_WaitOnFlagUntilTimeout>
 8003d46:	2800      	cmp	r0, #0
 8003d48:	d1e7      	bne.n	8003d1a <HAL_I2C_Mem_Write+0x36>
    hi2c->State     = HAL_I2C_STATE_BUSY_TX;
 8003d4a:	2321      	movs	r3, #33	; 0x21
 8003d4c:	9a07      	ldr	r2, [sp, #28]
  I2C_TransferConfig(hi2c, DevAddress, (uint8_t)MemAddSize, I2C_RELOAD_MODE, I2C_GENERATE_START_WRITE);
 8003d4e:	0039      	movs	r1, r7
    hi2c->State     = HAL_I2C_STATE_BUSY_TX;
 8003d50:	7013      	strb	r3, [r2, #0]
    hi2c->Mode      = HAL_I2C_MODE_MEM;
 8003d52:	0023      	movs	r3, r4
 8003d54:	3342      	adds	r3, #66	; 0x42
 8003d56:	9307      	str	r3, [sp, #28]
 8003d58:	2340      	movs	r3, #64	; 0x40
 8003d5a:	9a07      	ldr	r2, [sp, #28]
 8003d5c:	7013      	strb	r3, [r2, #0]
    hi2c->pBuffPtr  = pData;
 8003d5e:	9b05      	ldr	r3, [sp, #20]
    hi2c->ErrorCode = HAL_I2C_ERROR_NONE;
 8003d60:	6460      	str	r0, [r4, #68]	; 0x44
    hi2c->pBuffPtr  = pData;
 8003d62:	6263      	str	r3, [r4, #36]	; 0x24
    hi2c->XferCount = Size;
 8003d64:	9b06      	ldr	r3, [sp, #24]
    hi2c->XferISR   = NULL;
 8003d66:	6360      	str	r0, [r4, #52]	; 0x34
    hi2c->XferCount = Size;
 8003d68:	8563      	strh	r3, [r4, #42]	; 0x2a
  I2C_TransferConfig(hi2c, DevAddress, (uint8_t)MemAddSize, I2C_RELOAD_MODE, I2C_GENERATE_START_WRITE);
 8003d6a:	466b      	mov	r3, sp
 8003d6c:	7c1a      	ldrb	r2, [r3, #16]
 8003d6e:	4b4a      	ldr	r3, [pc, #296]	; (8003e98 <HAL_I2C_Mem_Write+0x1b4>)
 8003d70:	0020      	movs	r0, r4
 8003d72:	9300      	str	r3, [sp, #0]
 8003d74:	2380      	movs	r3, #128	; 0x80
 8003d76:	045b      	lsls	r3, r3, #17
 8003d78:	f7ff fcc6 	bl	8003708 <I2C_TransferConfig>
  if (I2C_WaitOnTXISFlagUntilTimeout(hi2c, Timeout, Tickstart) != HAL_OK)
 8003d7c:	002a      	movs	r2, r5
 8003d7e:	0031      	movs	r1, r6
 8003d80:	0020      	movs	r0, r4
 8003d82:	f7ff fd5b 	bl	800383c <I2C_WaitOnTXISFlagUntilTimeout>
 8003d86:	2800      	cmp	r0, #0
 8003d88:	d126      	bne.n	8003dd8 <HAL_I2C_Mem_Write+0xf4>
  if (MemAddSize == I2C_MEMADD_SIZE_8BIT)
 8003d8a:	9a04      	ldr	r2, [sp, #16]
    hi2c->Instance->TXDR = I2C_MEM_ADD_LSB(MemAddress);
 8003d8c:	6823      	ldr	r3, [r4, #0]
  if (MemAddSize == I2C_MEMADD_SIZE_8BIT)
 8003d8e:	2a01      	cmp	r2, #1
 8003d90:	d116      	bne.n	8003dc0 <HAL_I2C_Mem_Write+0xdc>
    hi2c->Instance->TXDR = I2C_MEM_ADD_LSB(MemAddress);
 8003d92:	466a      	mov	r2, sp
 8003d94:	7b12      	ldrb	r2, [r2, #12]
  if (I2C_WaitOnFlagUntilTimeout(hi2c, I2C_FLAG_TCR, RESET, Timeout, Tickstart) != HAL_OK)
 8003d96:	2180      	movs	r1, #128	; 0x80
    hi2c->Instance->TXDR = I2C_MEM_ADD_LSB(MemAddress);
 8003d98:	629a      	str	r2, [r3, #40]	; 0x28
  if (I2C_WaitOnFlagUntilTimeout(hi2c, I2C_FLAG_TCR, RESET, Timeout, Tickstart) != HAL_OK)
 8003d9a:	0020      	movs	r0, r4
 8003d9c:	0033      	movs	r3, r6
 8003d9e:	2200      	movs	r2, #0
 8003da0:	9500      	str	r5, [sp, #0]
 8003da2:	f7ff fd78 	bl	8003896 <I2C_WaitOnFlagUntilTimeout>
 8003da6:	2800      	cmp	r0, #0
 8003da8:	d116      	bne.n	8003dd8 <HAL_I2C_Mem_Write+0xf4>
    if (hi2c->XferCount > MAX_NBYTE_SIZE)
 8003daa:	8d63      	ldrh	r3, [r4, #42]	; 0x2a
 8003dac:	2bff      	cmp	r3, #255	; 0xff
 8003dae:	d817      	bhi.n	8003de0 <HAL_I2C_Mem_Write+0xfc>
      I2C_TransferConfig(hi2c, DevAddress, (uint8_t)hi2c->XferSize, I2C_AUTOEND_MODE, I2C_NO_STARTSTOP);
 8003db0:	2380      	movs	r3, #128	; 0x80
      hi2c->XferSize = hi2c->XferCount;
 8003db2:	8d62      	ldrh	r2, [r4, #42]	; 0x2a
      I2C_TransferConfig(hi2c, DevAddress, (uint8_t)hi2c->XferSize, I2C_AUTOEND_MODE, I2C_NO_STARTSTOP);
 8003db4:	049b      	lsls	r3, r3, #18
      hi2c->XferSize = hi2c->XferCount;
 8003db6:	b292      	uxth	r2, r2
 8003db8:	8522      	strh	r2, [r4, #40]	; 0x28
      I2C_TransferConfig(hi2c, DevAddress, (uint8_t)hi2c->XferSize, I2C_AUTOEND_MODE, I2C_NO_STARTSTOP);
 8003dba:	b2d2      	uxtb	r2, r2
 8003dbc:	9000      	str	r0, [sp, #0]
 8003dbe:	e014      	b.n	8003dea <HAL_I2C_Mem_Write+0x106>
    hi2c->Instance->TXDR = I2C_MEM_ADD_MSB(MemAddress);
 8003dc0:	9a03      	ldr	r2, [sp, #12]
    if (I2C_WaitOnTXISFlagUntilTimeout(hi2c, Timeout, Tickstart) != HAL_OK)
 8003dc2:	0031      	movs	r1, r6
    hi2c->Instance->TXDR = I2C_MEM_ADD_MSB(MemAddress);
 8003dc4:	0a12      	lsrs	r2, r2, #8
 8003dc6:	629a      	str	r2, [r3, #40]	; 0x28
    if (I2C_WaitOnTXISFlagUntilTimeout(hi2c, Timeout, Tickstart) != HAL_OK)
 8003dc8:	0020      	movs	r0, r4
 8003dca:	002a      	movs	r2, r5
 8003dcc:	f7ff fd36 	bl	800383c <I2C_WaitOnTXISFlagUntilTimeout>
 8003dd0:	2800      	cmp	r0, #0
 8003dd2:	d101      	bne.n	8003dd8 <HAL_I2C_Mem_Write+0xf4>
    hi2c->Instance->TXDR = I2C_MEM_ADD_LSB(MemAddress);
 8003dd4:	6823      	ldr	r3, [r4, #0]
 8003dd6:	e7dc      	b.n	8003d92 <HAL_I2C_Mem_Write+0xae>
      __HAL_UNLOCK(hi2c);
 8003dd8:	2300      	movs	r3, #0
 8003dda:	3440      	adds	r4, #64	; 0x40
 8003ddc:	7023      	strb	r3, [r4, #0]
 8003dde:	e79c      	b.n	8003d1a <HAL_I2C_Mem_Write+0x36>
      hi2c->XferSize = MAX_NBYTE_SIZE;
 8003de0:	22ff      	movs	r2, #255	; 0xff
      I2C_TransferConfig(hi2c, DevAddress, (uint8_t)hi2c->XferSize, I2C_RELOAD_MODE, I2C_NO_STARTSTOP);
 8003de2:	2380      	movs	r3, #128	; 0x80
      hi2c->XferSize = MAX_NBYTE_SIZE;
 8003de4:	8522      	strh	r2, [r4, #40]	; 0x28
      I2C_TransferConfig(hi2c, DevAddress, (uint8_t)hi2c->XferSize, I2C_RELOAD_MODE, I2C_NO_STARTSTOP);
 8003de6:	045b      	lsls	r3, r3, #17
 8003de8:	9000      	str	r0, [sp, #0]
      I2C_TransferConfig(hi2c, DevAddress, (uint8_t)hi2c->XferSize, I2C_AUTOEND_MODE, I2C_NO_STARTSTOP);
 8003dea:	0039      	movs	r1, r7
 8003dec:	0020      	movs	r0, r4
 8003dee:	f7ff fc8b 	bl	8003708 <I2C_TransferConfig>
      if (I2C_WaitOnTXISFlagUntilTimeout(hi2c, Timeout, tickstart) != HAL_OK)
 8003df2:	002a      	movs	r2, r5
 8003df4:	0031      	movs	r1, r6
 8003df6:	0020      	movs	r0, r4
 8003df8:	f7ff fd20 	bl	800383c <I2C_WaitOnTXISFlagUntilTimeout>
 8003dfc:	2800      	cmp	r0, #0
 8003dfe:	d000      	beq.n	8003e02 <HAL_I2C_Mem_Write+0x11e>
 8003e00:	e78b      	b.n	8003d1a <HAL_I2C_Mem_Write+0x36>
      hi2c->Instance->TXDR = *hi2c->pBuffPtr;
 8003e02:	6a63      	ldr	r3, [r4, #36]	; 0x24
 8003e04:	6822      	ldr	r2, [r4, #0]
 8003e06:	7819      	ldrb	r1, [r3, #0]
      hi2c->pBuffPtr++;
 8003e08:	3301      	adds	r3, #1
      hi2c->Instance->TXDR = *hi2c->pBuffPtr;
 8003e0a:	6291      	str	r1, [r2, #40]	; 0x28
      hi2c->pBuffPtr++;
 8003e0c:	6263      	str	r3, [r4, #36]	; 0x24
      hi2c->XferCount--;
 8003e0e:	8d63      	ldrh	r3, [r4, #42]	; 0x2a
      hi2c->XferSize--;
 8003e10:	8d22      	ldrh	r2, [r4, #40]	; 0x28
      hi2c->XferCount--;
 8003e12:	3b01      	subs	r3, #1
 8003e14:	b29b      	uxth	r3, r3
 8003e16:	8563      	strh	r3, [r4, #42]	; 0x2a
      hi2c->XferSize--;
 8003e18:	3a01      	subs	r2, #1
      if ((hi2c->XferCount != 0U) && (hi2c->XferSize == 0U))
 8003e1a:	8d63      	ldrh	r3, [r4, #42]	; 0x2a
      hi2c->XferSize--;
 8003e1c:	b292      	uxth	r2, r2
 8003e1e:	8522      	strh	r2, [r4, #40]	; 0x28
      if ((hi2c->XferCount != 0U) && (hi2c->XferSize == 0U))
 8003e20:	2b00      	cmp	r3, #0
 8003e22:	d017      	beq.n	8003e54 <HAL_I2C_Mem_Write+0x170>
 8003e24:	2a00      	cmp	r2, #0
 8003e26:	d115      	bne.n	8003e54 <HAL_I2C_Mem_Write+0x170>
        if (I2C_WaitOnFlagUntilTimeout(hi2c, I2C_FLAG_TCR, RESET, Timeout, tickstart) != HAL_OK)
 8003e28:	0033      	movs	r3, r6
 8003e2a:	2180      	movs	r1, #128	; 0x80
 8003e2c:	0020      	movs	r0, r4
 8003e2e:	9500      	str	r5, [sp, #0]
 8003e30:	f7ff fd31 	bl	8003896 <I2C_WaitOnFlagUntilTimeout>
 8003e34:	2800      	cmp	r0, #0
 8003e36:	d000      	beq.n	8003e3a <HAL_I2C_Mem_Write+0x156>
 8003e38:	e76f      	b.n	8003d1a <HAL_I2C_Mem_Write+0x36>
        if (hi2c->XferCount > MAX_NBYTE_SIZE)
 8003e3a:	8d63      	ldrh	r3, [r4, #42]	; 0x2a
 8003e3c:	2bff      	cmp	r3, #255	; 0xff
 8003e3e:	d923      	bls.n	8003e88 <HAL_I2C_Mem_Write+0x1a4>
          hi2c->XferSize = MAX_NBYTE_SIZE;
 8003e40:	23ff      	movs	r3, #255	; 0xff
 8003e42:	8523      	strh	r3, [r4, #40]	; 0x28
          I2C_TransferConfig(hi2c, DevAddress, (uint8_t)hi2c->XferSize, I2C_RELOAD_MODE,
 8003e44:	2380      	movs	r3, #128	; 0x80
 8003e46:	22ff      	movs	r2, #255	; 0xff
 8003e48:	9000      	str	r0, [sp, #0]
 8003e4a:	045b      	lsls	r3, r3, #17
          I2C_TransferConfig(hi2c, DevAddress, (uint8_t)hi2c->XferSize, I2C_AUTOEND_MODE,
 8003e4c:	0039      	movs	r1, r7
 8003e4e:	0020      	movs	r0, r4
 8003e50:	f7ff fc5a 	bl	8003708 <I2C_TransferConfig>
    } while (hi2c->XferCount > 0U);
 8003e54:	8d63      	ldrh	r3, [r4, #42]	; 0x2a
 8003e56:	2b00      	cmp	r3, #0
 8003e58:	d1cb      	bne.n	8003df2 <HAL_I2C_Mem_Write+0x10e>
    if (I2C_WaitOnSTOPFlagUntilTimeout(hi2c, Timeout, tickstart) != HAL_OK)
 8003e5a:	002a      	movs	r2, r5
 8003e5c:	0031      	movs	r1, r6
 8003e5e:	0020      	movs	r0, r4
 8003e60:	f7ff fd49 	bl	80038f6 <I2C_WaitOnSTOPFlagUntilTimeout>
 8003e64:	2800      	cmp	r0, #0
 8003e66:	d000      	beq.n	8003e6a <HAL_I2C_Mem_Write+0x186>
 8003e68:	e757      	b.n	8003d1a <HAL_I2C_Mem_Write+0x36>
    __HAL_I2C_CLEAR_FLAG(hi2c, I2C_FLAG_STOPF);
 8003e6a:	2120      	movs	r1, #32
 8003e6c:	6823      	ldr	r3, [r4, #0]
    I2C_RESET_CR2(hi2c);
 8003e6e:	4d0b      	ldr	r5, [pc, #44]	; (8003e9c <HAL_I2C_Mem_Write+0x1b8>)
    __HAL_I2C_CLEAR_FLAG(hi2c, I2C_FLAG_STOPF);
 8003e70:	61d9      	str	r1, [r3, #28]
    I2C_RESET_CR2(hi2c);
 8003e72:	685a      	ldr	r2, [r3, #4]
 8003e74:	402a      	ands	r2, r5
 8003e76:	605a      	str	r2, [r3, #4]
    hi2c->State = HAL_I2C_STATE_READY;
 8003e78:	0023      	movs	r3, r4
 8003e7a:	3341      	adds	r3, #65	; 0x41
 8003e7c:	7019      	strb	r1, [r3, #0]
    hi2c->Mode  = HAL_I2C_MODE_NONE;
 8003e7e:	9b07      	ldr	r3, [sp, #28]
    __HAL_UNLOCK(hi2c);
 8003e80:	3440      	adds	r4, #64	; 0x40
    hi2c->Mode  = HAL_I2C_MODE_NONE;
 8003e82:	7018      	strb	r0, [r3, #0]
    __HAL_UNLOCK(hi2c);
 8003e84:	7020      	strb	r0, [r4, #0]
    return HAL_OK;
 8003e86:	e749      	b.n	8003d1c <HAL_I2C_Mem_Write+0x38>
          I2C_TransferConfig(hi2c, DevAddress, (uint8_t)hi2c->XferSize, I2C_AUTOEND_MODE,
 8003e88:	2380      	movs	r3, #128	; 0x80
          hi2c->XferSize = hi2c->XferCount;
 8003e8a:	8d62      	ldrh	r2, [r4, #42]	; 0x2a
          I2C_TransferConfig(hi2c, DevAddress, (uint8_t)hi2c->XferSize, I2C_AUTOEND_MODE,
 8003e8c:	049b      	lsls	r3, r3, #18
          hi2c->XferSize = hi2c->XferCount;
 8003e8e:	b292      	uxth	r2, r2
 8003e90:	8522      	strh	r2, [r4, #40]	; 0x28
          I2C_TransferConfig(hi2c, DevAddress, (uint8_t)hi2c->XferSize, I2C_AUTOEND_MODE,
 8003e92:	b2d2      	uxtb	r2, r2
 8003e94:	9000      	str	r0, [sp, #0]
 8003e96:	e7d9      	b.n	8003e4c <HAL_I2C_Mem_Write+0x168>
 8003e98:	80002000 	.word	0x80002000
 8003e9c:	fe00e800 	.word	0xfe00e800

08003ea0 <HAL_I2C_Mem_Read>:
{
 8003ea0:	b5f0      	push	{r4, r5, r6, r7, lr}
 8003ea2:	b089      	sub	sp, #36	; 0x24
 8003ea4:	9304      	str	r3, [sp, #16]
 8003ea6:	ab0e      	add	r3, sp, #56	; 0x38
 8003ea8:	9203      	str	r2, [sp, #12]
 8003eaa:	cb04      	ldmia	r3!, {r2}
 8003eac:	0004      	movs	r4, r0
 8003eae:	881b      	ldrh	r3, [r3, #0]
 8003eb0:	9205      	str	r2, [sp, #20]
 8003eb2:	9306      	str	r3, [sp, #24]
  if (hi2c->State == HAL_I2C_STATE_READY)
 8003eb4:	0003      	movs	r3, r0
 8003eb6:	3341      	adds	r3, #65	; 0x41
 8003eb8:	9307      	str	r3, [sp, #28]
 8003eba:	781b      	ldrb	r3, [r3, #0]
{
 8003ebc:	000f      	movs	r7, r1
    return HAL_BUSY;
 8003ebe:	2002      	movs	r0, #2
{
 8003ec0:	9e10      	ldr	r6, [sp, #64]	; 0x40
  if (hi2c->State == HAL_I2C_STATE_READY)
 8003ec2:	2b20      	cmp	r3, #32
 8003ec4:	d108      	bne.n	8003ed8 <HAL_I2C_Mem_Read+0x38>
    if ((pData == NULL) || (Size == 0U))
 8003ec6:	2a00      	cmp	r2, #0
 8003ec8:	d002      	beq.n	8003ed0 <HAL_I2C_Mem_Read+0x30>
 8003eca:	9b06      	ldr	r3, [sp, #24]
 8003ecc:	2b00      	cmp	r3, #0
 8003ece:	d105      	bne.n	8003edc <HAL_I2C_Mem_Read+0x3c>
      hi2c->ErrorCode = HAL_I2C_ERROR_INVALID_PARAM;
 8003ed0:	2380      	movs	r3, #128	; 0x80
 8003ed2:	009b      	lsls	r3, r3, #2
 8003ed4:	6463      	str	r3, [r4, #68]	; 0x44
      return HAL_ERROR;
 8003ed6:	2001      	movs	r0, #1
}
 8003ed8:	b009      	add	sp, #36	; 0x24
 8003eda:	bdf0      	pop	{r4, r5, r6, r7, pc}
    __HAL_LOCK(hi2c);
 8003edc:	0023      	movs	r3, r4
 8003ede:	3340      	adds	r3, #64	; 0x40
 8003ee0:	781a      	ldrb	r2, [r3, #0]
    return HAL_BUSY;
 8003ee2:	2002      	movs	r0, #2
    __HAL_LOCK(hi2c);
 8003ee4:	2a01      	cmp	r2, #1
 8003ee6:	d0f7      	beq.n	8003ed8 <HAL_I2C_Mem_Read+0x38>
 8003ee8:	2201      	movs	r2, #1
 8003eea:	701a      	strb	r2, [r3, #0]
    tickstart = HAL_GetTick();
 8003eec:	f7ff fad8 	bl	80034a0 <HAL_GetTick>
    if (I2C_WaitOnFlagUntilTimeout(hi2c, I2C_FLAG_BUSY, SET, I2C_TIMEOUT_BUSY, tickstart) != HAL_OK)
 8003ef0:	2180      	movs	r1, #128	; 0x80
 8003ef2:	2319      	movs	r3, #25
 8003ef4:	9000      	str	r0, [sp, #0]
    tickstart = HAL_GetTick();
 8003ef6:	0005      	movs	r5, r0
    if (I2C_WaitOnFlagUntilTimeout(hi2c, I2C_FLAG_BUSY, SET, I2C_TIMEOUT_BUSY, tickstart) != HAL_OK)
 8003ef8:	2201      	movs	r2, #1
 8003efa:	0020      	movs	r0, r4
 8003efc:	0209      	lsls	r1, r1, #8
 8003efe:	f7ff fcca 	bl	8003896 <I2C_WaitOnFlagUntilTimeout>
 8003f02:	1e03      	subs	r3, r0, #0
 8003f04:	d1e7      	bne.n	8003ed6 <HAL_I2C_Mem_Read+0x36>
    hi2c->State     = HAL_I2C_STATE_BUSY_RX;
 8003f06:	2222      	movs	r2, #34	; 0x22
 8003f08:	9907      	ldr	r1, [sp, #28]
 8003f0a:	700a      	strb	r2, [r1, #0]
    hi2c->Mode      = HAL_I2C_MODE_MEM;
 8003f0c:	0022      	movs	r2, r4
 8003f0e:	3242      	adds	r2, #66	; 0x42
 8003f10:	9207      	str	r2, [sp, #28]
 8003f12:	2240      	movs	r2, #64	; 0x40
 8003f14:	9907      	ldr	r1, [sp, #28]
 8003f16:	700a      	strb	r2, [r1, #0]
    hi2c->pBuffPtr  = pData;
 8003f18:	9a05      	ldr	r2, [sp, #20]
    hi2c->ErrorCode = HAL_I2C_ERROR_NONE;
 8003f1a:	6460      	str	r0, [r4, #68]	; 0x44
    hi2c->pBuffPtr  = pData;
 8003f1c:	6262      	str	r2, [r4, #36]	; 0x24
    hi2c->XferCount = Size;
 8003f1e:	9a06      	ldr	r2, [sp, #24]
  I2C_TransferConfig(hi2c, DevAddress, (uint8_t)MemAddSize, I2C_SOFTEND_MODE, I2C_GENERATE_START_WRITE);
 8003f20:	494d      	ldr	r1, [pc, #308]	; (8004058 <HAL_I2C_Mem_Read+0x1b8>)
    hi2c->XferCount = Size;
 8003f22:	8562      	strh	r2, [r4, #42]	; 0x2a
  I2C_TransferConfig(hi2c, DevAddress, (uint8_t)MemAddSize, I2C_SOFTEND_MODE, I2C_GENERATE_START_WRITE);
 8003f24:	466a      	mov	r2, sp
    hi2c->XferISR   = NULL;
 8003f26:	6360      	str	r0, [r4, #52]	; 0x34
  I2C_TransferConfig(hi2c, DevAddress, (uint8_t)MemAddSize, I2C_SOFTEND_MODE, I2C_GENERATE_START_WRITE);
 8003f28:	7c12      	ldrb	r2, [r2, #16]
 8003f2a:	0020      	movs	r0, r4
 8003f2c:	9100      	str	r1, [sp, #0]
 8003f2e:	0039      	movs	r1, r7
 8003f30:	f7ff fbea 	bl	8003708 <I2C_TransferConfig>
  if (I2C_WaitOnTXISFlagUntilTimeout(hi2c, Timeout, Tickstart) != HAL_OK)
 8003f34:	002a      	movs	r2, r5
 8003f36:	0031      	movs	r1, r6
 8003f38:	0020      	movs	r0, r4
 8003f3a:	f7ff fc7f 	bl	800383c <I2C_WaitOnTXISFlagUntilTimeout>
 8003f3e:	2800      	cmp	r0, #0
 8003f40:	d127      	bne.n	8003f92 <HAL_I2C_Mem_Read+0xf2>
  if (MemAddSize == I2C_MEMADD_SIZE_8BIT)
 8003f42:	9a04      	ldr	r2, [sp, #16]
    hi2c->Instance->TXDR = I2C_MEM_ADD_LSB(MemAddress);
 8003f44:	6823      	ldr	r3, [r4, #0]
  if (MemAddSize == I2C_MEMADD_SIZE_8BIT)
 8003f46:	2a01      	cmp	r2, #1
 8003f48:	d117      	bne.n	8003f7a <HAL_I2C_Mem_Read+0xda>
    hi2c->Instance->TXDR = I2C_MEM_ADD_LSB(MemAddress);
 8003f4a:	466a      	mov	r2, sp
 8003f4c:	7b12      	ldrb	r2, [r2, #12]
  if (I2C_WaitOnFlagUntilTimeout(hi2c, I2C_FLAG_TC, RESET, Timeout, Tickstart) != HAL_OK)
 8003f4e:	2140      	movs	r1, #64	; 0x40
    hi2c->Instance->TXDR = I2C_MEM_ADD_LSB(MemAddress);
 8003f50:	629a      	str	r2, [r3, #40]	; 0x28
  if (I2C_WaitOnFlagUntilTimeout(hi2c, I2C_FLAG_TC, RESET, Timeout, Tickstart) != HAL_OK)
 8003f52:	0020      	movs	r0, r4
 8003f54:	0033      	movs	r3, r6
 8003f56:	2200      	movs	r2, #0
 8003f58:	9500      	str	r5, [sp, #0]
 8003f5a:	f7ff fc9c 	bl	8003896 <I2C_WaitOnFlagUntilTimeout>
 8003f5e:	2800      	cmp	r0, #0
 8003f60:	d117      	bne.n	8003f92 <HAL_I2C_Mem_Read+0xf2>
    if (hi2c->XferCount > MAX_NBYTE_SIZE)
 8003f62:	8d62      	ldrh	r2, [r4, #42]	; 0x2a
 8003f64:	4b3d      	ldr	r3, [pc, #244]	; (800405c <HAL_I2C_Mem_Read+0x1bc>)
 8003f66:	2aff      	cmp	r2, #255	; 0xff
 8003f68:	d817      	bhi.n	8003f9a <HAL_I2C_Mem_Read+0xfa>
      hi2c->XferSize = hi2c->XferCount;
 8003f6a:	8d62      	ldrh	r2, [r4, #42]	; 0x2a
 8003f6c:	b292      	uxth	r2, r2
 8003f6e:	8522      	strh	r2, [r4, #40]	; 0x28
      I2C_TransferConfig(hi2c, DevAddress, (uint8_t)hi2c->XferSize, I2C_AUTOEND_MODE,
 8003f70:	9300      	str	r3, [sp, #0]
 8003f72:	2380      	movs	r3, #128	; 0x80
 8003f74:	b2d2      	uxtb	r2, r2
 8003f76:	049b      	lsls	r3, r3, #18
 8003f78:	e014      	b.n	8003fa4 <HAL_I2C_Mem_Read+0x104>
    hi2c->Instance->TXDR = I2C_MEM_ADD_MSB(MemAddress);
 8003f7a:	9a03      	ldr	r2, [sp, #12]
    if (I2C_WaitOnTXISFlagUntilTimeout(hi2c, Timeout, Tickstart) != HAL_OK)
 8003f7c:	0031      	movs	r1, r6
    hi2c->Instance->TXDR = I2C_MEM_ADD_MSB(MemAddress);
 8003f7e:	0a12      	lsrs	r2, r2, #8
 8003f80:	629a      	str	r2, [r3, #40]	; 0x28
    if (I2C_WaitOnTXISFlagUntilTimeout(hi2c, Timeout, Tickstart) != HAL_OK)
 8003f82:	0020      	movs	r0, r4
 8003f84:	002a      	movs	r2, r5
 8003f86:	f7ff fc59 	bl	800383c <I2C_WaitOnTXISFlagUntilTimeout>
 8003f8a:	2800      	cmp	r0, #0
 8003f8c:	d101      	bne.n	8003f92 <HAL_I2C_Mem_Read+0xf2>
    hi2c->Instance->TXDR = I2C_MEM_ADD_LSB(MemAddress);
 8003f8e:	6823      	ldr	r3, [r4, #0]
 8003f90:	e7db      	b.n	8003f4a <HAL_I2C_Mem_Read+0xaa>
      __HAL_UNLOCK(hi2c);
 8003f92:	2300      	movs	r3, #0
 8003f94:	3440      	adds	r4, #64	; 0x40
 8003f96:	7023      	strb	r3, [r4, #0]
 8003f98:	e79d      	b.n	8003ed6 <HAL_I2C_Mem_Read+0x36>
      hi2c->XferSize = MAX_NBYTE_SIZE;
 8003f9a:	22ff      	movs	r2, #255	; 0xff
 8003f9c:	8522      	strh	r2, [r4, #40]	; 0x28
      I2C_TransferConfig(hi2c, DevAddress, (uint8_t)hi2c->XferSize, I2C_RELOAD_MODE,
 8003f9e:	9300      	str	r3, [sp, #0]
 8003fa0:	2380      	movs	r3, #128	; 0x80
 8003fa2:	045b      	lsls	r3, r3, #17
      I2C_TransferConfig(hi2c, DevAddress, (uint8_t)hi2c->XferSize, I2C_AUTOEND_MODE,
 8003fa4:	0039      	movs	r1, r7
 8003fa6:	0020      	movs	r0, r4
 8003fa8:	f7ff fbae 	bl	8003708 <I2C_TransferConfig>
      if (I2C_WaitOnFlagUntilTimeout(hi2c, I2C_FLAG_RXNE, RESET, Timeout, tickstart) != HAL_OK)
 8003fac:	0033      	movs	r3, r6
 8003fae:	2200      	movs	r2, #0
 8003fb0:	2104      	movs	r1, #4
 8003fb2:	0020      	movs	r0, r4
 8003fb4:	9500      	str	r5, [sp, #0]
 8003fb6:	f7ff fc6e 	bl	8003896 <I2C_WaitOnFlagUntilTimeout>
 8003fba:	2800      	cmp	r0, #0
 8003fbc:	d000      	beq.n	8003fc0 <HAL_I2C_Mem_Read+0x120>
 8003fbe:	e78a      	b.n	8003ed6 <HAL_I2C_Mem_Read+0x36>
      *hi2c->pBuffPtr = (uint8_t)hi2c->Instance->RXDR;
 8003fc0:	6823      	ldr	r3, [r4, #0]
 8003fc2:	6a62      	ldr	r2, [r4, #36]	; 0x24
 8003fc4:	6a5b      	ldr	r3, [r3, #36]	; 0x24
 8003fc6:	7013      	strb	r3, [r2, #0]
      hi2c->pBuffPtr++;
 8003fc8:	6a63      	ldr	r3, [r4, #36]	; 0x24
      hi2c->XferSize--;
 8003fca:	8d22      	ldrh	r2, [r4, #40]	; 0x28
      hi2c->pBuffPtr++;
 8003fcc:	3301      	adds	r3, #1
 8003fce:	6263      	str	r3, [r4, #36]	; 0x24
      hi2c->XferCount--;
 8003fd0:	8d63      	ldrh	r3, [r4, #42]	; 0x2a
      hi2c->XferSize--;
 8003fd2:	3a01      	subs	r2, #1
      hi2c->XferCount--;
 8003fd4:	3b01      	subs	r3, #1
 8003fd6:	b29b      	uxth	r3, r3
 8003fd8:	8563      	strh	r3, [r4, #42]	; 0x2a
      if ((hi2c->XferCount != 0U) && (hi2c->XferSize == 0U))
 8003fda:	8d63      	ldrh	r3, [r4, #42]	; 0x2a
      hi2c->XferSize--;
 8003fdc:	b292      	uxth	r2, r2
 8003fde:	8522      	strh	r2, [r4, #40]	; 0x28
      if ((hi2c->XferCount != 0U) && (hi2c->XferSize == 0U))
 8003fe0:	2b00      	cmp	r3, #0
 8003fe2:	d017      	beq.n	8004014 <HAL_I2C_Mem_Read+0x174>
 8003fe4:	2a00      	cmp	r2, #0
 8003fe6:	d115      	bne.n	8004014 <HAL_I2C_Mem_Read+0x174>
        if (I2C_WaitOnFlagUntilTimeout(hi2c, I2C_FLAG_TCR, RESET, Timeout, tickstart) != HAL_OK)
 8003fe8:	0033      	movs	r3, r6
 8003fea:	2180      	movs	r1, #128	; 0x80
 8003fec:	0020      	movs	r0, r4
 8003fee:	9500      	str	r5, [sp, #0]
 8003ff0:	f7ff fc51 	bl	8003896 <I2C_WaitOnFlagUntilTimeout>
 8003ff4:	2800      	cmp	r0, #0
 8003ff6:	d000      	beq.n	8003ffa <HAL_I2C_Mem_Read+0x15a>
 8003ff8:	e76d      	b.n	8003ed6 <HAL_I2C_Mem_Read+0x36>
        if (hi2c->XferCount > MAX_NBYTE_SIZE)
 8003ffa:	8d63      	ldrh	r3, [r4, #42]	; 0x2a
 8003ffc:	2bff      	cmp	r3, #255	; 0xff
 8003ffe:	d923      	bls.n	8004048 <HAL_I2C_Mem_Read+0x1a8>
          hi2c->XferSize = MAX_NBYTE_SIZE;
 8004000:	23ff      	movs	r3, #255	; 0xff
 8004002:	8523      	strh	r3, [r4, #40]	; 0x28
          I2C_TransferConfig(hi2c, DevAddress, (uint8_t) hi2c->XferSize, I2C_RELOAD_MODE,
 8004004:	2380      	movs	r3, #128	; 0x80
 8004006:	22ff      	movs	r2, #255	; 0xff
 8004008:	9000      	str	r0, [sp, #0]
 800400a:	045b      	lsls	r3, r3, #17
          I2C_TransferConfig(hi2c, DevAddress, (uint8_t)hi2c->XferSize, I2C_AUTOEND_MODE,
 800400c:	0039      	movs	r1, r7
 800400e:	0020      	movs	r0, r4
 8004010:	f7ff fb7a 	bl	8003708 <I2C_TransferConfig>
    } while (hi2c->XferCount > 0U);
 8004014:	8d63      	ldrh	r3, [r4, #42]	; 0x2a
 8004016:	2b00      	cmp	r3, #0
 8004018:	d1c8      	bne.n	8003fac <HAL_I2C_Mem_Read+0x10c>
    if (I2C_WaitOnSTOPFlagUntilTimeout(hi2c, Timeout, tickstart) != HAL_OK)
 800401a:	002a      	movs	r2, r5
 800401c:	0031      	movs	r1, r6
 800401e:	0020      	movs	r0, r4
 8004020:	f7ff fc69 	bl	80038f6 <I2C_WaitOnSTOPFlagUntilTimeout>
 8004024:	2800      	cmp	r0, #0
 8004026:	d000      	beq.n	800402a <HAL_I2C_Mem_Read+0x18a>
 8004028:	e755      	b.n	8003ed6 <HAL_I2C_Mem_Read+0x36>
    __HAL_I2C_CLEAR_FLAG(hi2c, I2C_FLAG_STOPF);
 800402a:	2120      	movs	r1, #32
 800402c:	6823      	ldr	r3, [r4, #0]
    I2C_RESET_CR2(hi2c);
 800402e:	4d0c      	ldr	r5, [pc, #48]	; (8004060 <HAL_I2C_Mem_Read+0x1c0>)
    __HAL_I2C_CLEAR_FLAG(hi2c, I2C_FLAG_STOPF);
 8004030:	61d9      	str	r1, [r3, #28]
    I2C_RESET_CR2(hi2c);
 8004032:	685a      	ldr	r2, [r3, #4]
 8004034:	402a      	ands	r2, r5
 8004036:	605a      	str	r2, [r3, #4]
    hi2c->State = HAL_I2C_STATE_READY;
 8004038:	0023      	movs	r3, r4
 800403a:	3341      	adds	r3, #65	; 0x41
 800403c:	7019      	strb	r1, [r3, #0]
    hi2c->Mode  = HAL_I2C_MODE_NONE;
 800403e:	9b07      	ldr	r3, [sp, #28]
    __HAL_UNLOCK(hi2c);
 8004040:	3440      	adds	r4, #64	; 0x40
    hi2c->Mode  = HAL_I2C_MODE_NONE;
 8004042:	7018      	strb	r0, [r3, #0]
    __HAL_UNLOCK(hi2c);
 8004044:	7020      	strb	r0, [r4, #0]
    return HAL_OK;
 8004046:	e747      	b.n	8003ed8 <HAL_I2C_Mem_Read+0x38>
          I2C_TransferConfig(hi2c, DevAddress, (uint8_t)hi2c->XferSize, I2C_AUTOEND_MODE,
 8004048:	2380      	movs	r3, #128	; 0x80
          hi2c->XferSize = hi2c->XferCount;
 800404a:	8d62      	ldrh	r2, [r4, #42]	; 0x2a
          I2C_TransferConfig(hi2c, DevAddress, (uint8_t)hi2c->XferSize, I2C_AUTOEND_MODE,
 800404c:	049b      	lsls	r3, r3, #18
          hi2c->XferSize = hi2c->XferCount;
 800404e:	b292      	uxth	r2, r2
 8004050:	8522      	strh	r2, [r4, #40]	; 0x28
          I2C_TransferConfig(hi2c, DevAddress, (uint8_t)hi2c->XferSize, I2C_AUTOEND_MODE,
 8004052:	b2d2      	uxtb	r2, r2
 8004054:	9000      	str	r0, [sp, #0]
 8004056:	e7d9      	b.n	800400c <HAL_I2C_Mem_Read+0x16c>
 8004058:	80002000 	.word	0x80002000
 800405c:	80002400 	.word	0x80002400
 8004060:	fe00e800 	.word	0xfe00e800

08004064 <HAL_I2CEx_ConfigAnalogFilter>:
  *                the configuration information for the specified I2Cx peripheral.
  * @param  AnalogFilter New state of the Analog filter.
  * @retval HAL status
  */
HAL_StatusTypeDef HAL_I2CEx_ConfigAnalogFilter(I2C_HandleTypeDef *hi2c, uint32_t AnalogFilter)
{
 8004064:	b5f0      	push	{r4, r5, r6, r7, lr}
  /* Check the parameters */
  assert_param(IS_I2C_ALL_INSTANCE(hi2c->Instance));
  assert_param(IS_I2C_ANALOG_FILTER(AnalogFilter));

  if (hi2c->State == HAL_I2C_STATE_READY)
 8004066:	0004      	movs	r4, r0
 8004068:	3441      	adds	r4, #65	; 0x41
 800406a:	7822      	ldrb	r2, [r4, #0]
{
 800406c:	0003      	movs	r3, r0
 800406e:	000f      	movs	r7, r1

    return HAL_OK;
  }
  else
  {
    return HAL_BUSY;
 8004070:	2002      	movs	r0, #2
  if (hi2c->State == HAL_I2C_STATE_READY)
 8004072:	b2d6      	uxtb	r6, r2
 8004074:	2a20      	cmp	r2, #32
 8004076:	d118      	bne.n	80040aa <HAL_I2CEx_ConfigAnalogFilter+0x46>
    __HAL_LOCK(hi2c);
 8004078:	001d      	movs	r5, r3
 800407a:	3540      	adds	r5, #64	; 0x40
 800407c:	782a      	ldrb	r2, [r5, #0]
 800407e:	2a01      	cmp	r2, #1
 8004080:	d013      	beq.n	80040aa <HAL_I2CEx_ConfigAnalogFilter+0x46>
    hi2c->State = HAL_I2C_STATE_BUSY;
 8004082:	2224      	movs	r2, #36	; 0x24
 8004084:	7022      	strb	r2, [r4, #0]
    __HAL_I2C_DISABLE(hi2c);
 8004086:	681b      	ldr	r3, [r3, #0]
 8004088:	3a23      	subs	r2, #35	; 0x23
 800408a:	6819      	ldr	r1, [r3, #0]
    hi2c->Instance->CR1 &= ~(I2C_CR1_ANFOFF);
 800408c:	4807      	ldr	r0, [pc, #28]	; (80040ac <HAL_I2CEx_ConfigAnalogFilter+0x48>)
    __HAL_I2C_DISABLE(hi2c);
 800408e:	4391      	bics	r1, r2
 8004090:	6019      	str	r1, [r3, #0]
    hi2c->Instance->CR1 &= ~(I2C_CR1_ANFOFF);
 8004092:	6819      	ldr	r1, [r3, #0]
 8004094:	4001      	ands	r1, r0
    __HAL_UNLOCK(hi2c);
 8004096:	2000      	movs	r0, #0
    hi2c->Instance->CR1 &= ~(I2C_CR1_ANFOFF);
 8004098:	6019      	str	r1, [r3, #0]
    hi2c->Instance->CR1 |= AnalogFilter;
 800409a:	6819      	ldr	r1, [r3, #0]
 800409c:	4339      	orrs	r1, r7
 800409e:	6019      	str	r1, [r3, #0]
    __HAL_I2C_ENABLE(hi2c);
 80040a0:	6819      	ldr	r1, [r3, #0]
 80040a2:	430a      	orrs	r2, r1
 80040a4:	601a      	str	r2, [r3, #0]
    hi2c->State = HAL_I2C_STATE_READY;
 80040a6:	7026      	strb	r6, [r4, #0]
    __HAL_UNLOCK(hi2c);
 80040a8:	7028      	strb	r0, [r5, #0]
  }
}
 80040aa:	bdf0      	pop	{r4, r5, r6, r7, pc}
 80040ac:	ffffefff 	.word	0xffffefff

080040b0 <HAL_I2CEx_ConfigDigitalFilter>:

  /* Check the parameters */
  assert_param(IS_I2C_ALL_INSTANCE(hi2c->Instance));
  assert_param(IS_I2C_DIGITAL_FILTER(DigitalFilter));

  if (hi2c->State == HAL_I2C_STATE_READY)
 80040b0:	0002      	movs	r2, r0
{
 80040b2:	b5f0      	push	{r4, r5, r6, r7, lr}
  if (hi2c->State == HAL_I2C_STATE_READY)
 80040b4:	3241      	adds	r2, #65	; 0x41
 80040b6:	7814      	ldrb	r4, [r2, #0]
{
 80040b8:	0003      	movs	r3, r0
  if (hi2c->State == HAL_I2C_STATE_READY)
 80040ba:	b2e5      	uxtb	r5, r4

    return HAL_OK;
  }
  else
  {
    return HAL_BUSY;
 80040bc:	2002      	movs	r0, #2
  if (hi2c->State == HAL_I2C_STATE_READY)
 80040be:	2c20      	cmp	r4, #32
 80040c0:	d117      	bne.n	80040f2 <HAL_I2CEx_ConfigDigitalFilter+0x42>
    __HAL_LOCK(hi2c);
 80040c2:	001c      	movs	r4, r3
 80040c4:	3440      	adds	r4, #64	; 0x40
 80040c6:	7826      	ldrb	r6, [r4, #0]
 80040c8:	2e01      	cmp	r6, #1
 80040ca:	d012      	beq.n	80040f2 <HAL_I2CEx_ConfigDigitalFilter+0x42>
    hi2c->State = HAL_I2C_STATE_BUSY;
 80040cc:	3022      	adds	r0, #34	; 0x22
 80040ce:	7010      	strb	r0, [r2, #0]
    __HAL_I2C_DISABLE(hi2c);
 80040d0:	681b      	ldr	r3, [r3, #0]
 80040d2:	3823      	subs	r0, #35	; 0x23
 80040d4:	681e      	ldr	r6, [r3, #0]
    tmpreg &= ~(I2C_CR1_DNF);
 80040d6:	4f07      	ldr	r7, [pc, #28]	; (80040f4 <HAL_I2CEx_ConfigDigitalFilter+0x44>)
    __HAL_I2C_DISABLE(hi2c);
 80040d8:	4386      	bics	r6, r0
 80040da:	601e      	str	r6, [r3, #0]
    tmpreg = hi2c->Instance->CR1;
 80040dc:	681e      	ldr	r6, [r3, #0]
    tmpreg |= DigitalFilter << 8U;
 80040de:	0209      	lsls	r1, r1, #8
    tmpreg &= ~(I2C_CR1_DNF);
 80040e0:	403e      	ands	r6, r7
    tmpreg |= DigitalFilter << 8U;
 80040e2:	4331      	orrs	r1, r6
    hi2c->Instance->CR1 = tmpreg;
 80040e4:	6019      	str	r1, [r3, #0]
    __HAL_I2C_ENABLE(hi2c);
 80040e6:	6819      	ldr	r1, [r3, #0]
 80040e8:	4308      	orrs	r0, r1
 80040ea:	6018      	str	r0, [r3, #0]
    __HAL_UNLOCK(hi2c);
 80040ec:	2000      	movs	r0, #0
    hi2c->State = HAL_I2C_STATE_READY;
 80040ee:	7015      	strb	r5, [r2, #0]
    __HAL_UNLOCK(hi2c);
 80040f0:	7020      	strb	r0, [r4, #0]
  }
}
 80040f2:	bdf0      	pop	{r4, r5, r6, r7, pc}
 80040f4:	fffff0ff 	.word	0xfffff0ff

080040f8 <HAL_RCC_GetSysClockFreq>:
  uint32_t sysclockfreq;

  tmpreg = RCC->CFGR;

  /* Get SYSCLK source -------------------------------------------------------*/
  switch (tmpreg & RCC_CFGR_SWS)
 80040f8:	220c      	movs	r2, #12
  tmpreg = RCC->CFGR;
 80040fa:	4b1d      	ldr	r3, [pc, #116]	; (8004170 <HAL_RCC_GetSysClockFreq+0x78>)
{
 80040fc:	b570      	push	{r4, r5, r6, lr}
  tmpreg = RCC->CFGR;
 80040fe:	68dc      	ldr	r4, [r3, #12]
  switch (tmpreg & RCC_CFGR_SWS)
 8004100:	4022      	ands	r2, r4
 8004102:	2a08      	cmp	r2, #8
 8004104:	d031      	beq.n	800416a <HAL_RCC_GetSysClockFreq+0x72>
 8004106:	2a0c      	cmp	r2, #12
 8004108:	d009      	beq.n	800411e <HAL_RCC_GetSysClockFreq+0x26>
 800410a:	2a04      	cmp	r2, #4
 800410c:	d125      	bne.n	800415a <HAL_RCC_GetSysClockFreq+0x62>
  {
    case RCC_SYSCLKSOURCE_STATUS_HSI:  /* HSI used as system clock source */
    {
      if ((RCC->CR & RCC_CR_HSIDIVF) != 0U)
 800410e:	6818      	ldr	r0, [r3, #0]
      {
        sysclockfreq =  (HSI_VALUE >> 2);
      }
      else
      {
        sysclockfreq =  HSI_VALUE;
 8004110:	4b18      	ldr	r3, [pc, #96]	; (8004174 <HAL_RCC_GetSysClockFreq+0x7c>)
      if ((RCC->CR & RCC_CR_HSIDIVF) != 0U)
 8004112:	06c0      	lsls	r0, r0, #27
        sysclockfreq =  HSI_VALUE;
 8004114:	17c0      	asrs	r0, r0, #31
 8004116:	4018      	ands	r0, r3
 8004118:	4b17      	ldr	r3, [pc, #92]	; (8004178 <HAL_RCC_GetSysClockFreq+0x80>)
 800411a:	18c0      	adds	r0, r0, r3
      sysclockfreq = (32768U * (1UL << (msiclkrange + 1U)));
      break;
    }
  }
  return sysclockfreq;
}
 800411c:	bd70      	pop	{r4, r5, r6, pc}
      pllm = PLLMulTable[(uint32_t)(tmpreg & RCC_CFGR_PLLMUL) >> RCC_CFGR_PLLMUL_Pos];
 800411e:	02a2      	lsls	r2, r4, #10
        pllvco = (uint32_t)(((uint64_t)HSE_VALUE * (uint64_t)pllm) / (uint64_t)plld);
 8004120:	4816      	ldr	r0, [pc, #88]	; (800417c <HAL_RCC_GetSysClockFreq+0x84>)
      pllm = PLLMulTable[(uint32_t)(tmpreg & RCC_CFGR_PLLMUL) >> RCC_CFGR_PLLMUL_Pos];
 8004122:	0f12      	lsrs	r2, r2, #28
        pllvco = (uint32_t)(((uint64_t)HSE_VALUE * (uint64_t)pllm) / (uint64_t)plld);
 8004124:	5c80      	ldrb	r0, [r0, r2]
      if (__HAL_RCC_GET_PLL_OSCSOURCE() != RCC_PLLSOURCE_HSI)
 8004126:	2280      	movs	r2, #128	; 0x80
      plld = ((uint32_t)(tmpreg & RCC_CFGR_PLLDIV) >> RCC_CFGR_PLLDIV_Pos) + 1U;
 8004128:	0224      	lsls	r4, r4, #8
      if (__HAL_RCC_GET_PLL_OSCSOURCE() != RCC_PLLSOURCE_HSI)
 800412a:	68d9      	ldr	r1, [r3, #12]
      plld = ((uint32_t)(tmpreg & RCC_CFGR_PLLDIV) >> RCC_CFGR_PLLDIV_Pos) + 1U;
 800412c:	0fa4      	lsrs	r4, r4, #30
      if (__HAL_RCC_GET_PLL_OSCSOURCE() != RCC_PLLSOURCE_HSI)
 800412e:	0252      	lsls	r2, r2, #9
      plld = ((uint32_t)(tmpreg & RCC_CFGR_PLLDIV) >> RCC_CFGR_PLLDIV_Pos) + 1U;
 8004130:	3401      	adds	r4, #1
      if (__HAL_RCC_GET_PLL_OSCSOURCE() != RCC_PLLSOURCE_HSI)
 8004132:	4211      	tst	r1, r2
 8004134:	d009      	beq.n	800414a <HAL_RCC_GetSysClockFreq+0x52>
        pllvco = (uint32_t)(((uint64_t)HSE_VALUE * (uint64_t)pllm) / (uint64_t)plld);
 8004136:	4a12      	ldr	r2, [pc, #72]	; (8004180 <HAL_RCC_GetSysClockFreq+0x88>)
 8004138:	2300      	movs	r3, #0
 800413a:	2100      	movs	r1, #0
 800413c:	f7fc f996 	bl	800046c <__aeabi_lmul>
 8004140:	0022      	movs	r2, r4
 8004142:	2300      	movs	r3, #0
 8004144:	f7fc f972 	bl	800042c <__aeabi_uldivmod>
 8004148:	e7e8      	b.n	800411c <HAL_RCC_GetSysClockFreq+0x24>
        if ((RCC->CR & RCC_CR_HSIDIVF) != 0U)
 800414a:	681a      	ldr	r2, [r3, #0]
 800414c:	2310      	movs	r3, #16
 800414e:	421a      	tst	r2, r3
 8004150:	d001      	beq.n	8004156 <HAL_RCC_GetSysClockFreq+0x5e>
          pllvco = (uint32_t)((((uint64_t)(HSI_VALUE >> 2)) * (uint64_t)pllm) / (uint64_t)plld);
 8004152:	4a0c      	ldr	r2, [pc, #48]	; (8004184 <HAL_RCC_GetSysClockFreq+0x8c>)
 8004154:	e7f0      	b.n	8004138 <HAL_RCC_GetSysClockFreq+0x40>
         pllvco = (uint32_t)(((uint64_t)HSI_VALUE * (uint64_t)pllm) / (uint64_t)plld);
 8004156:	4a08      	ldr	r2, [pc, #32]	; (8004178 <HAL_RCC_GetSysClockFreq+0x80>)
 8004158:	e7ee      	b.n	8004138 <HAL_RCC_GetSysClockFreq+0x40>
      sysclockfreq = (32768U * (1UL << (msiclkrange + 1U)));
 800415a:	2080      	movs	r0, #128	; 0x80
      msiclkrange = (RCC->ICSCR & RCC_ICSCR_MSIRANGE ) >> RCC_ICSCR_MSIRANGE_Pos;
 800415c:	685b      	ldr	r3, [r3, #4]
      sysclockfreq = (32768U * (1UL << (msiclkrange + 1U)));
 800415e:	0200      	lsls	r0, r0, #8
      msiclkrange = (RCC->ICSCR & RCC_ICSCR_MSIRANGE ) >> RCC_ICSCR_MSIRANGE_Pos;
 8004160:	041b      	lsls	r3, r3, #16
 8004162:	0f5b      	lsrs	r3, r3, #29
      sysclockfreq = (32768U * (1UL << (msiclkrange + 1U)));
 8004164:	3301      	adds	r3, #1
 8004166:	4098      	lsls	r0, r3
      break;
 8004168:	e7d8      	b.n	800411c <HAL_RCC_GetSysClockFreq+0x24>
  switch (tmpreg & RCC_CFGR_SWS)
 800416a:	4805      	ldr	r0, [pc, #20]	; (8004180 <HAL_RCC_GetSysClockFreq+0x88>)
 800416c:	e7d6      	b.n	800411c <HAL_RCC_GetSysClockFreq+0x24>
 800416e:	46c0      	nop			; (mov r8, r8)
 8004170:	40021000 	.word	0x40021000
 8004174:	ff48e500 	.word	0xff48e500
 8004178:	00f42400 	.word	0x00f42400
 800417c:	0800619d 	.word	0x0800619d
 8004180:	007a1200 	.word	0x007a1200
 8004184:	003d0900 	.word	0x003d0900

08004188 <HAL_RCC_OscConfig>:
{
 8004188:	b5f0      	push	{r4, r5, r6, r7, lr}
 800418a:	0005      	movs	r5, r0
 800418c:	b085      	sub	sp, #20
  if(RCC_OscInitStruct == NULL)
 800418e:	2800      	cmp	r0, #0
 8004190:	d05a      	beq.n	8004248 <HAL_RCC_OscConfig+0xc0>
  sysclk_source = __HAL_RCC_GET_SYSCLK_SOURCE();
 8004192:	230c      	movs	r3, #12
 8004194:	4cbe      	ldr	r4, [pc, #760]	; (8004490 <HAL_RCC_OscConfig+0x308>)
  if(((RCC_OscInitStruct->OscillatorType) & RCC_OSCILLATORTYPE_HSE) == RCC_OSCILLATORTYPE_HSE)
 8004196:	6802      	ldr	r2, [r0, #0]
  sysclk_source = __HAL_RCC_GET_SYSCLK_SOURCE();
 8004198:	68e6      	ldr	r6, [r4, #12]
  pll_config = __HAL_RCC_GET_PLL_OSCSOURCE();
 800419a:	68e7      	ldr	r7, [r4, #12]
  sysclk_source = __HAL_RCC_GET_SYSCLK_SOURCE();
 800419c:	401e      	ands	r6, r3
  pll_config = __HAL_RCC_GET_PLL_OSCSOURCE();
 800419e:	2380      	movs	r3, #128	; 0x80
 80041a0:	025b      	lsls	r3, r3, #9
 80041a2:	0019      	movs	r1, r3
 80041a4:	401f      	ands	r7, r3
  if(((RCC_OscInitStruct->OscillatorType) & RCC_OSCILLATORTYPE_HSE) == RCC_OSCILLATORTYPE_HSE)
 80041a6:	07d2      	lsls	r2, r2, #31
 80041a8:	d442      	bmi.n	8004230 <HAL_RCC_OscConfig+0xa8>
  if(((RCC_OscInitStruct->OscillatorType) & RCC_OSCILLATORTYPE_HSI) == RCC_OSCILLATORTYPE_HSI)
 80041aa:	682b      	ldr	r3, [r5, #0]
 80041ac:	079b      	lsls	r3, r3, #30
 80041ae:	d500      	bpl.n	80041b2 <HAL_RCC_OscConfig+0x2a>
 80041b0:	e08b      	b.n	80042ca <HAL_RCC_OscConfig+0x142>
  if(((RCC_OscInitStruct->OscillatorType) & RCC_OSCILLATORTYPE_MSI) == RCC_OSCILLATORTYPE_MSI)
 80041b2:	682b      	ldr	r3, [r5, #0]
 80041b4:	06db      	lsls	r3, r3, #27
 80041b6:	d529      	bpl.n	800420c <HAL_RCC_OscConfig+0x84>
    if(sysclk_source == RCC_CFGR_SWS_MSI)
 80041b8:	2e00      	cmp	r6, #0
 80041ba:	d000      	beq.n	80041be <HAL_RCC_OscConfig+0x36>
 80041bc:	e0dc      	b.n	8004378 <HAL_RCC_OscConfig+0x1f0>
      if((__HAL_RCC_GET_FLAG(RCC_FLAG_MSIRDY) != 0U) && (RCC_OscInitStruct->MSIState == RCC_MSI_OFF))
 80041be:	6823      	ldr	r3, [r4, #0]
 80041c0:	059b      	lsls	r3, r3, #22
 80041c2:	d502      	bpl.n	80041ca <HAL_RCC_OscConfig+0x42>
 80041c4:	69eb      	ldr	r3, [r5, #28]
 80041c6:	2b00      	cmp	r3, #0
 80041c8:	d03e      	beq.n	8004248 <HAL_RCC_OscConfig+0xc0>
        __HAL_RCC_MSI_RANGE_CONFIG(RCC_OscInitStruct->MSIClockRange);
 80041ca:	6862      	ldr	r2, [r4, #4]
 80041cc:	49b1      	ldr	r1, [pc, #708]	; (8004494 <HAL_RCC_OscConfig+0x30c>)
 80041ce:	6a6b      	ldr	r3, [r5, #36]	; 0x24
 80041d0:	400a      	ands	r2, r1
 80041d2:	431a      	orrs	r2, r3
 80041d4:	6062      	str	r2, [r4, #4]
        __HAL_RCC_MSI_CALIBRATIONVALUE_ADJUST(RCC_OscInitStruct->MSICalibrationValue);
 80041d6:	6861      	ldr	r1, [r4, #4]
 80041d8:	6a2a      	ldr	r2, [r5, #32]
 80041da:	0209      	lsls	r1, r1, #8
 80041dc:	0a09      	lsrs	r1, r1, #8
 80041de:	0612      	lsls	r2, r2, #24
 80041e0:	430a      	orrs	r2, r1
 80041e2:	6062      	str	r2, [r4, #4]
        SystemCoreClock =  (32768U * (1UL << ((RCC_OscInitStruct->MSIClockRange >> RCC_ICSCR_MSIRANGE_Pos) + 1U)))
 80041e4:	2280      	movs	r2, #128	; 0x80
 80041e6:	0b5b      	lsrs	r3, r3, #13
 80041e8:	3301      	adds	r3, #1
 80041ea:	0212      	lsls	r2, r2, #8
 80041ec:	409a      	lsls	r2, r3
 80041ee:	0013      	movs	r3, r2
                           >> AHBPrescTable[((RCC->CFGR & RCC_CFGR_HPRE) >> RCC_CFGR_HPRE_Pos)];
 80041f0:	68e1      	ldr	r1, [r4, #12]
 80041f2:	060a      	lsls	r2, r1, #24
 80041f4:	49a8      	ldr	r1, [pc, #672]	; (8004498 <HAL_RCC_OscConfig+0x310>)
 80041f6:	0f12      	lsrs	r2, r2, #28
 80041f8:	5c8a      	ldrb	r2, [r1, r2]
 80041fa:	40d3      	lsrs	r3, r2
        SystemCoreClock =  (32768U * (1UL << ((RCC_OscInitStruct->MSIClockRange >> RCC_ICSCR_MSIRANGE_Pos) + 1U)))
 80041fc:	4aa7      	ldr	r2, [pc, #668]	; (800449c <HAL_RCC_OscConfig+0x314>)
 80041fe:	6013      	str	r3, [r2, #0]
        status = HAL_InitTick (uwTickPrio);
 8004200:	4ba7      	ldr	r3, [pc, #668]	; (80044a0 <HAL_RCC_OscConfig+0x318>)
 8004202:	6818      	ldr	r0, [r3, #0]
 8004204:	f7ff f908 	bl	8003418 <HAL_InitTick>
        if(status != HAL_OK)
 8004208:	2800      	cmp	r0, #0
 800420a:	d134      	bne.n	8004276 <HAL_RCC_OscConfig+0xee>
  if(((RCC_OscInitStruct->OscillatorType) & RCC_OSCILLATORTYPE_LSI) == RCC_OSCILLATORTYPE_LSI)
 800420c:	682b      	ldr	r3, [r5, #0]
 800420e:	071b      	lsls	r3, r3, #28
 8004210:	d500      	bpl.n	8004214 <HAL_RCC_OscConfig+0x8c>
 8004212:	e0e8      	b.n	80043e6 <HAL_RCC_OscConfig+0x25e>
  if(((RCC_OscInitStruct->OscillatorType) & RCC_OSCILLATORTYPE_LSE) == RCC_OSCILLATORTYPE_LSE)
 8004214:	682b      	ldr	r3, [r5, #0]
 8004216:	075b      	lsls	r3, r3, #29
 8004218:	d500      	bpl.n	800421c <HAL_RCC_OscConfig+0x94>
 800421a:	e10a      	b.n	8004432 <HAL_RCC_OscConfig+0x2aa>
  if(((RCC_OscInitStruct->OscillatorType) & RCC_OSCILLATORTYPE_HSI48) == RCC_OSCILLATORTYPE_HSI48)
 800421c:	682b      	ldr	r3, [r5, #0]
 800421e:	069b      	lsls	r3, r3, #26
 8004220:	d500      	bpl.n	8004224 <HAL_RCC_OscConfig+0x9c>
 8004222:	e18e      	b.n	8004542 <HAL_RCC_OscConfig+0x3ba>
  if ((RCC_OscInitStruct->PLL.PLLState) != RCC_PLL_NONE)
 8004224:	6aab      	ldr	r3, [r5, #40]	; 0x28
 8004226:	2b00      	cmp	r3, #0
 8004228:	d000      	beq.n	800422c <HAL_RCC_OscConfig+0xa4>
 800422a:	e1bd      	b.n	80045a8 <HAL_RCC_OscConfig+0x420>
  return HAL_OK;
 800422c:	2000      	movs	r0, #0
 800422e:	e022      	b.n	8004276 <HAL_RCC_OscConfig+0xee>
    if((sysclk_source == RCC_SYSCLKSOURCE_STATUS_HSE)
 8004230:	2e08      	cmp	r6, #8
 8004232:	d003      	beq.n	800423c <HAL_RCC_OscConfig+0xb4>
       || ((sysclk_source == RCC_SYSCLKSOURCE_STATUS_PLLCLK) && (pll_config == RCC_PLLSOURCE_HSE)))
 8004234:	2e0c      	cmp	r6, #12
 8004236:	d109      	bne.n	800424c <HAL_RCC_OscConfig+0xc4>
 8004238:	2f00      	cmp	r7, #0
 800423a:	d007      	beq.n	800424c <HAL_RCC_OscConfig+0xc4>
      if((__HAL_RCC_GET_FLAG(RCC_FLAG_HSERDY) != 0U) && (RCC_OscInitStruct->HSEState == RCC_HSE_OFF))
 800423c:	6823      	ldr	r3, [r4, #0]
 800423e:	039b      	lsls	r3, r3, #14
 8004240:	d5b3      	bpl.n	80041aa <HAL_RCC_OscConfig+0x22>
 8004242:	686b      	ldr	r3, [r5, #4]
 8004244:	2b00      	cmp	r3, #0
 8004246:	d1b0      	bne.n	80041aa <HAL_RCC_OscConfig+0x22>
          return HAL_ERROR;
 8004248:	2001      	movs	r0, #1
 800424a:	e014      	b.n	8004276 <HAL_RCC_OscConfig+0xee>
      __HAL_RCC_HSE_CONFIG(RCC_OscInitStruct->HSEState);
 800424c:	686a      	ldr	r2, [r5, #4]
 800424e:	428a      	cmp	r2, r1
 8004250:	d113      	bne.n	800427a <HAL_RCC_OscConfig+0xf2>
 8004252:	6822      	ldr	r2, [r4, #0]
 8004254:	4313      	orrs	r3, r2
 8004256:	6023      	str	r3, [r4, #0]
        tickstart = HAL_GetTick();
 8004258:	f7ff f922 	bl	80034a0 <HAL_GetTick>
 800425c:	9000      	str	r0, [sp, #0]
        while(__HAL_RCC_GET_FLAG(RCC_FLAG_HSERDY) == 0U)
 800425e:	2280      	movs	r2, #128	; 0x80
 8004260:	6823      	ldr	r3, [r4, #0]
 8004262:	0292      	lsls	r2, r2, #10
 8004264:	4213      	tst	r3, r2
 8004266:	d1a0      	bne.n	80041aa <HAL_RCC_OscConfig+0x22>
          if((HAL_GetTick() - tickstart ) > HSE_TIMEOUT_VALUE)
 8004268:	f7ff f91a 	bl	80034a0 <HAL_GetTick>
 800426c:	9b00      	ldr	r3, [sp, #0]
 800426e:	1ac0      	subs	r0, r0, r3
 8004270:	2864      	cmp	r0, #100	; 0x64
 8004272:	d9f4      	bls.n	800425e <HAL_RCC_OscConfig+0xd6>
            return HAL_TIMEOUT;
 8004274:	2003      	movs	r0, #3
}
 8004276:	b005      	add	sp, #20
 8004278:	bdf0      	pop	{r4, r5, r6, r7, pc}
      __HAL_RCC_HSE_CONFIG(RCC_OscInitStruct->HSEState);
 800427a:	21a0      	movs	r1, #160	; 0xa0
 800427c:	02c9      	lsls	r1, r1, #11
 800427e:	428a      	cmp	r2, r1
 8004280:	d105      	bne.n	800428e <HAL_RCC_OscConfig+0x106>
 8004282:	2280      	movs	r2, #128	; 0x80
 8004284:	6821      	ldr	r1, [r4, #0]
 8004286:	02d2      	lsls	r2, r2, #11
 8004288:	430a      	orrs	r2, r1
 800428a:	6022      	str	r2, [r4, #0]
 800428c:	e7e1      	b.n	8004252 <HAL_RCC_OscConfig+0xca>
 800428e:	6821      	ldr	r1, [r4, #0]
 8004290:	4884      	ldr	r0, [pc, #528]	; (80044a4 <HAL_RCC_OscConfig+0x31c>)
 8004292:	4001      	ands	r1, r0
 8004294:	6021      	str	r1, [r4, #0]
 8004296:	6821      	ldr	r1, [r4, #0]
 8004298:	400b      	ands	r3, r1
 800429a:	9303      	str	r3, [sp, #12]
 800429c:	9b03      	ldr	r3, [sp, #12]
 800429e:	4982      	ldr	r1, [pc, #520]	; (80044a8 <HAL_RCC_OscConfig+0x320>)
 80042a0:	6823      	ldr	r3, [r4, #0]
 80042a2:	400b      	ands	r3, r1
 80042a4:	6023      	str	r3, [r4, #0]
      if(RCC_OscInitStruct->HSEState != RCC_HSE_OFF)
 80042a6:	2a00      	cmp	r2, #0
 80042a8:	d1d6      	bne.n	8004258 <HAL_RCC_OscConfig+0xd0>
        tickstart = HAL_GetTick();
 80042aa:	f7ff f8f9 	bl	80034a0 <HAL_GetTick>
 80042ae:	9000      	str	r0, [sp, #0]
        while(__HAL_RCC_GET_FLAG(RCC_FLAG_HSERDY) != 0U)
 80042b0:	2280      	movs	r2, #128	; 0x80
 80042b2:	6823      	ldr	r3, [r4, #0]
 80042b4:	0292      	lsls	r2, r2, #10
 80042b6:	4213      	tst	r3, r2
 80042b8:	d100      	bne.n	80042bc <HAL_RCC_OscConfig+0x134>
 80042ba:	e776      	b.n	80041aa <HAL_RCC_OscConfig+0x22>
           if((HAL_GetTick() - tickstart ) > HSE_TIMEOUT_VALUE)
 80042bc:	f7ff f8f0 	bl	80034a0 <HAL_GetTick>
 80042c0:	9b00      	ldr	r3, [sp, #0]
 80042c2:	1ac0      	subs	r0, r0, r3
 80042c4:	2864      	cmp	r0, #100	; 0x64
 80042c6:	d9f3      	bls.n	80042b0 <HAL_RCC_OscConfig+0x128>
 80042c8:	e7d4      	b.n	8004274 <HAL_RCC_OscConfig+0xec>
    hsi_state = RCC_OscInitStruct->HSIState;
 80042ca:	68ea      	ldr	r2, [r5, #12]
    if((sysclk_source == RCC_SYSCLKSOURCE_STATUS_HSI)
 80042cc:	2e04      	cmp	r6, #4
 80042ce:	d003      	beq.n	80042d8 <HAL_RCC_OscConfig+0x150>
       || ((sysclk_source == RCC_SYSCLKSOURCE_STATUS_PLLCLK) && (pll_config == RCC_PLLSOURCE_HSI)))
 80042d0:	2e0c      	cmp	r6, #12
 80042d2:	d124      	bne.n	800431e <HAL_RCC_OscConfig+0x196>
 80042d4:	2f00      	cmp	r7, #0
 80042d6:	d122      	bne.n	800431e <HAL_RCC_OscConfig+0x196>
      if((__HAL_RCC_GET_FLAG(RCC_FLAG_HSIRDY) != 0U) && (hsi_state == RCC_HSI_OFF))
 80042d8:	6823      	ldr	r3, [r4, #0]
 80042da:	075b      	lsls	r3, r3, #29
 80042dc:	d501      	bpl.n	80042e2 <HAL_RCC_OscConfig+0x15a>
 80042de:	2a00      	cmp	r2, #0
 80042e0:	d0b2      	beq.n	8004248 <HAL_RCC_OscConfig+0xc0>
        __HAL_RCC_HSI_CALIBRATIONVALUE_ADJUST(RCC_OscInitStruct->HSICalibrationValue);
 80042e2:	6861      	ldr	r1, [r4, #4]
 80042e4:	692b      	ldr	r3, [r5, #16]
 80042e6:	4871      	ldr	r0, [pc, #452]	; (80044ac <HAL_RCC_OscConfig+0x324>)
 80042e8:	021b      	lsls	r3, r3, #8
 80042ea:	4001      	ands	r1, r0
 80042ec:	430b      	orrs	r3, r1
        __HAL_RCC_HSI_CONFIG(hsi_state);
 80042ee:	2109      	movs	r1, #9
        __HAL_RCC_HSI_CALIBRATIONVALUE_ADJUST(RCC_OscInitStruct->HSICalibrationValue);
 80042f0:	6063      	str	r3, [r4, #4]
        __HAL_RCC_HSI_CONFIG(hsi_state);
 80042f2:	6823      	ldr	r3, [r4, #0]
 80042f4:	438b      	bics	r3, r1
 80042f6:	4313      	orrs	r3, r2
 80042f8:	6023      	str	r3, [r4, #0]
      SystemCoreClock = HAL_RCC_GetSysClockFreq() >> AHBPrescTable[(RCC->CFGR & RCC_CFGR_HPRE)>> RCC_CFGR_HPRE_Pos];
 80042fa:	f7ff fefd 	bl	80040f8 <HAL_RCC_GetSysClockFreq>
 80042fe:	68e3      	ldr	r3, [r4, #12]
 8004300:	4a65      	ldr	r2, [pc, #404]	; (8004498 <HAL_RCC_OscConfig+0x310>)
 8004302:	061b      	lsls	r3, r3, #24
 8004304:	0f1b      	lsrs	r3, r3, #28
 8004306:	5cd3      	ldrb	r3, [r2, r3]
 8004308:	40d8      	lsrs	r0, r3
 800430a:	4b64      	ldr	r3, [pc, #400]	; (800449c <HAL_RCC_OscConfig+0x314>)
 800430c:	6018      	str	r0, [r3, #0]
      status = HAL_InitTick (uwTickPrio);
 800430e:	4b64      	ldr	r3, [pc, #400]	; (80044a0 <HAL_RCC_OscConfig+0x318>)
 8004310:	6818      	ldr	r0, [r3, #0]
 8004312:	f7ff f881 	bl	8003418 <HAL_InitTick>
      if(status != HAL_OK)
 8004316:	2800      	cmp	r0, #0
 8004318:	d100      	bne.n	800431c <HAL_RCC_OscConfig+0x194>
 800431a:	e74a      	b.n	80041b2 <HAL_RCC_OscConfig+0x2a>
 800431c:	e7ab      	b.n	8004276 <HAL_RCC_OscConfig+0xee>
        __HAL_RCC_HSI_CONFIG(hsi_state);
 800431e:	6823      	ldr	r3, [r4, #0]
      if(hsi_state != RCC_HSI_OFF)
 8004320:	2a00      	cmp	r2, #0
 8004322:	d018      	beq.n	8004356 <HAL_RCC_OscConfig+0x1ce>
        __HAL_RCC_HSI_CONFIG(hsi_state);
 8004324:	2109      	movs	r1, #9
 8004326:	438b      	bics	r3, r1
 8004328:	4313      	orrs	r3, r2
 800432a:	6023      	str	r3, [r4, #0]
        tickstart = HAL_GetTick();
 800432c:	f7ff f8b8 	bl	80034a0 <HAL_GetTick>
 8004330:	0007      	movs	r7, r0
        while(__HAL_RCC_GET_FLAG(RCC_FLAG_HSIRDY) == 0U)
 8004332:	2204      	movs	r2, #4
 8004334:	6823      	ldr	r3, [r4, #0]
 8004336:	4213      	tst	r3, r2
 8004338:	d007      	beq.n	800434a <HAL_RCC_OscConfig+0x1c2>
        __HAL_RCC_HSI_CALIBRATIONVALUE_ADJUST(RCC_OscInitStruct->HSICalibrationValue);
 800433a:	6862      	ldr	r2, [r4, #4]
 800433c:	692b      	ldr	r3, [r5, #16]
 800433e:	495b      	ldr	r1, [pc, #364]	; (80044ac <HAL_RCC_OscConfig+0x324>)
 8004340:	021b      	lsls	r3, r3, #8
 8004342:	400a      	ands	r2, r1
 8004344:	4313      	orrs	r3, r2
 8004346:	6063      	str	r3, [r4, #4]
 8004348:	e733      	b.n	80041b2 <HAL_RCC_OscConfig+0x2a>
          if((HAL_GetTick() - tickstart ) > HSI_TIMEOUT_VALUE)
 800434a:	f7ff f8a9 	bl	80034a0 <HAL_GetTick>
 800434e:	1bc0      	subs	r0, r0, r7
 8004350:	2802      	cmp	r0, #2
 8004352:	d9ee      	bls.n	8004332 <HAL_RCC_OscConfig+0x1aa>
 8004354:	e78e      	b.n	8004274 <HAL_RCC_OscConfig+0xec>
        __HAL_RCC_HSI_DISABLE();
 8004356:	2201      	movs	r2, #1
 8004358:	4393      	bics	r3, r2
 800435a:	6023      	str	r3, [r4, #0]
        tickstart = HAL_GetTick();
 800435c:	f7ff f8a0 	bl	80034a0 <HAL_GetTick>
 8004360:	0007      	movs	r7, r0
        while(__HAL_RCC_GET_FLAG(RCC_FLAG_HSIRDY) != 0U)
 8004362:	2204      	movs	r2, #4
 8004364:	6823      	ldr	r3, [r4, #0]
 8004366:	4213      	tst	r3, r2
 8004368:	d100      	bne.n	800436c <HAL_RCC_OscConfig+0x1e4>
 800436a:	e722      	b.n	80041b2 <HAL_RCC_OscConfig+0x2a>
          if((HAL_GetTick() - tickstart ) > HSI_TIMEOUT_VALUE)
 800436c:	f7ff f898 	bl	80034a0 <HAL_GetTick>
 8004370:	1bc0      	subs	r0, r0, r7
 8004372:	2802      	cmp	r0, #2
 8004374:	d9f5      	bls.n	8004362 <HAL_RCC_OscConfig+0x1da>
 8004376:	e77d      	b.n	8004274 <HAL_RCC_OscConfig+0xec>
      if(RCC_OscInitStruct->MSIState != RCC_MSI_OFF)
 8004378:	69eb      	ldr	r3, [r5, #28]
 800437a:	2b00      	cmp	r3, #0
 800437c:	d020      	beq.n	80043c0 <HAL_RCC_OscConfig+0x238>
        __HAL_RCC_MSI_ENABLE();
 800437e:	2380      	movs	r3, #128	; 0x80
 8004380:	6822      	ldr	r2, [r4, #0]
 8004382:	005b      	lsls	r3, r3, #1
 8004384:	4313      	orrs	r3, r2
 8004386:	6023      	str	r3, [r4, #0]
        tickstart = HAL_GetTick();
 8004388:	f7ff f88a 	bl	80034a0 <HAL_GetTick>
 800438c:	0007      	movs	r7, r0
        while(__HAL_RCC_GET_FLAG(RCC_FLAG_MSIRDY) == 0U)
 800438e:	2280      	movs	r2, #128	; 0x80
 8004390:	6823      	ldr	r3, [r4, #0]
 8004392:	0092      	lsls	r2, r2, #2
 8004394:	4213      	tst	r3, r2
 8004396:	d00d      	beq.n	80043b4 <HAL_RCC_OscConfig+0x22c>
        __HAL_RCC_MSI_RANGE_CONFIG(RCC_OscInitStruct->MSIClockRange);
 8004398:	6863      	ldr	r3, [r4, #4]
 800439a:	4a3e      	ldr	r2, [pc, #248]	; (8004494 <HAL_RCC_OscConfig+0x30c>)
 800439c:	4013      	ands	r3, r2
 800439e:	6a6a      	ldr	r2, [r5, #36]	; 0x24
 80043a0:	4313      	orrs	r3, r2
 80043a2:	6063      	str	r3, [r4, #4]
        __HAL_RCC_MSI_CALIBRATIONVALUE_ADJUST(RCC_OscInitStruct->MSICalibrationValue);
 80043a4:	6862      	ldr	r2, [r4, #4]
 80043a6:	6a2b      	ldr	r3, [r5, #32]
 80043a8:	0212      	lsls	r2, r2, #8
 80043aa:	061b      	lsls	r3, r3, #24
 80043ac:	0a12      	lsrs	r2, r2, #8
 80043ae:	4313      	orrs	r3, r2
 80043b0:	6063      	str	r3, [r4, #4]
 80043b2:	e72b      	b.n	800420c <HAL_RCC_OscConfig+0x84>
          if((HAL_GetTick() - tickstart) > MSI_TIMEOUT_VALUE)
 80043b4:	f7ff f874 	bl	80034a0 <HAL_GetTick>
 80043b8:	1bc0      	subs	r0, r0, r7
 80043ba:	2802      	cmp	r0, #2
 80043bc:	d9e7      	bls.n	800438e <HAL_RCC_OscConfig+0x206>
 80043be:	e759      	b.n	8004274 <HAL_RCC_OscConfig+0xec>
        __HAL_RCC_MSI_DISABLE();
 80043c0:	6823      	ldr	r3, [r4, #0]
 80043c2:	4a3b      	ldr	r2, [pc, #236]	; (80044b0 <HAL_RCC_OscConfig+0x328>)
 80043c4:	4013      	ands	r3, r2
 80043c6:	6023      	str	r3, [r4, #0]
        tickstart = HAL_GetTick();
 80043c8:	f7ff f86a 	bl	80034a0 <HAL_GetTick>
 80043cc:	0007      	movs	r7, r0
        while(__HAL_RCC_GET_FLAG(RCC_FLAG_MSIRDY) != 0U)
 80043ce:	2280      	movs	r2, #128	; 0x80
 80043d0:	6823      	ldr	r3, [r4, #0]
 80043d2:	0092      	lsls	r2, r2, #2
 80043d4:	4213      	tst	r3, r2
 80043d6:	d100      	bne.n	80043da <HAL_RCC_OscConfig+0x252>
 80043d8:	e718      	b.n	800420c <HAL_RCC_OscConfig+0x84>
          if((HAL_GetTick() - tickstart) > MSI_TIMEOUT_VALUE)
 80043da:	f7ff f861 	bl	80034a0 <HAL_GetTick>
 80043de:	1bc0      	subs	r0, r0, r7
 80043e0:	2802      	cmp	r0, #2
 80043e2:	d9f4      	bls.n	80043ce <HAL_RCC_OscConfig+0x246>
 80043e4:	e746      	b.n	8004274 <HAL_RCC_OscConfig+0xec>
    if(RCC_OscInitStruct->LSIState != RCC_LSI_OFF)
 80043e6:	696a      	ldr	r2, [r5, #20]
 80043e8:	2301      	movs	r3, #1
 80043ea:	2a00      	cmp	r2, #0
 80043ec:	d010      	beq.n	8004410 <HAL_RCC_OscConfig+0x288>
      __HAL_RCC_LSI_ENABLE();
 80043ee:	6d22      	ldr	r2, [r4, #80]	; 0x50
 80043f0:	4313      	orrs	r3, r2
 80043f2:	6523      	str	r3, [r4, #80]	; 0x50
      tickstart = HAL_GetTick();
 80043f4:	f7ff f854 	bl	80034a0 <HAL_GetTick>
 80043f8:	0007      	movs	r7, r0
      while(__HAL_RCC_GET_FLAG(RCC_FLAG_LSIRDY) == 0U)
 80043fa:	2202      	movs	r2, #2
 80043fc:	6d23      	ldr	r3, [r4, #80]	; 0x50
 80043fe:	4213      	tst	r3, r2
 8004400:	d000      	beq.n	8004404 <HAL_RCC_OscConfig+0x27c>
 8004402:	e707      	b.n	8004214 <HAL_RCC_OscConfig+0x8c>
        if((HAL_GetTick() - tickstart ) > LSI_TIMEOUT_VALUE)
 8004404:	f7ff f84c 	bl	80034a0 <HAL_GetTick>
 8004408:	1bc0      	subs	r0, r0, r7
 800440a:	2802      	cmp	r0, #2
 800440c:	d9f5      	bls.n	80043fa <HAL_RCC_OscConfig+0x272>
 800440e:	e731      	b.n	8004274 <HAL_RCC_OscConfig+0xec>
      __HAL_RCC_LSI_DISABLE();
 8004410:	6d22      	ldr	r2, [r4, #80]	; 0x50
 8004412:	439a      	bics	r2, r3
 8004414:	6522      	str	r2, [r4, #80]	; 0x50
      tickstart = HAL_GetTick();
 8004416:	f7ff f843 	bl	80034a0 <HAL_GetTick>
 800441a:	0007      	movs	r7, r0
      while(__HAL_RCC_GET_FLAG(RCC_FLAG_LSIRDY) != 0U)
 800441c:	2202      	movs	r2, #2
 800441e:	6d23      	ldr	r3, [r4, #80]	; 0x50
 8004420:	4213      	tst	r3, r2
 8004422:	d100      	bne.n	8004426 <HAL_RCC_OscConfig+0x29e>
 8004424:	e6f6      	b.n	8004214 <HAL_RCC_OscConfig+0x8c>
        if((HAL_GetTick() - tickstart ) > LSI_TIMEOUT_VALUE)
 8004426:	f7ff f83b 	bl	80034a0 <HAL_GetTick>
 800442a:	1bc0      	subs	r0, r0, r7
 800442c:	2802      	cmp	r0, #2
 800442e:	d9f5      	bls.n	800441c <HAL_RCC_OscConfig+0x294>
 8004430:	e720      	b.n	8004274 <HAL_RCC_OscConfig+0xec>
    if(__HAL_RCC_PWR_IS_CLK_DISABLED())
 8004432:	2380      	movs	r3, #128	; 0x80
    FlagStatus       pwrclkchanged = RESET;
 8004434:	2100      	movs	r1, #0
    if(__HAL_RCC_PWR_IS_CLK_DISABLED())
 8004436:	6ba2      	ldr	r2, [r4, #56]	; 0x38
 8004438:	055b      	lsls	r3, r3, #21
    FlagStatus       pwrclkchanged = RESET;
 800443a:	9100      	str	r1, [sp, #0]
    if(__HAL_RCC_PWR_IS_CLK_DISABLED())
 800443c:	421a      	tst	r2, r3
 800443e:	d104      	bne.n	800444a <HAL_RCC_OscConfig+0x2c2>
      __HAL_RCC_PWR_CLK_ENABLE();
 8004440:	6ba2      	ldr	r2, [r4, #56]	; 0x38
 8004442:	4313      	orrs	r3, r2
 8004444:	63a3      	str	r3, [r4, #56]	; 0x38
      pwrclkchanged = SET;
 8004446:	2301      	movs	r3, #1
 8004448:	9300      	str	r3, [sp, #0]
    if(HAL_IS_BIT_CLR(PWR->CR, PWR_CR_DBP))
 800444a:	2280      	movs	r2, #128	; 0x80
 800444c:	4f19      	ldr	r7, [pc, #100]	; (80044b4 <HAL_RCC_OscConfig+0x32c>)
 800444e:	0052      	lsls	r2, r2, #1
 8004450:	683b      	ldr	r3, [r7, #0]
 8004452:	4213      	tst	r3, r2
 8004454:	d008      	beq.n	8004468 <HAL_RCC_OscConfig+0x2e0>
    __HAL_RCC_LSE_CONFIG(RCC_OscInitStruct->LSEState);
 8004456:	2280      	movs	r2, #128	; 0x80
 8004458:	68ab      	ldr	r3, [r5, #8]
 800445a:	0052      	lsls	r2, r2, #1
 800445c:	4293      	cmp	r3, r2
 800445e:	d12b      	bne.n	80044b8 <HAL_RCC_OscConfig+0x330>
 8004460:	6d22      	ldr	r2, [r4, #80]	; 0x50
 8004462:	4313      	orrs	r3, r2
 8004464:	6523      	str	r3, [r4, #80]	; 0x50
 8004466:	e04c      	b.n	8004502 <HAL_RCC_OscConfig+0x37a>
      SET_BIT(PWR->CR, PWR_CR_DBP);
 8004468:	2280      	movs	r2, #128	; 0x80
 800446a:	683b      	ldr	r3, [r7, #0]
 800446c:	0052      	lsls	r2, r2, #1
 800446e:	4313      	orrs	r3, r2
 8004470:	603b      	str	r3, [r7, #0]
      tickstart = HAL_GetTick();
 8004472:	f7ff f815 	bl	80034a0 <HAL_GetTick>
 8004476:	9001      	str	r0, [sp, #4]
      while(HAL_IS_BIT_CLR(PWR->CR, PWR_CR_DBP))
 8004478:	2280      	movs	r2, #128	; 0x80
 800447a:	683b      	ldr	r3, [r7, #0]
 800447c:	0052      	lsls	r2, r2, #1
 800447e:	4213      	tst	r3, r2
 8004480:	d1e9      	bne.n	8004456 <HAL_RCC_OscConfig+0x2ce>
        if((HAL_GetTick() - tickstart) > RCC_DBP_TIMEOUT_VALUE)
 8004482:	f7ff f80d 	bl	80034a0 <HAL_GetTick>
 8004486:	9b01      	ldr	r3, [sp, #4]
 8004488:	1ac0      	subs	r0, r0, r3
 800448a:	2864      	cmp	r0, #100	; 0x64
 800448c:	d9f4      	bls.n	8004478 <HAL_RCC_OscConfig+0x2f0>
 800448e:	e6f1      	b.n	8004274 <HAL_RCC_OscConfig+0xec>
 8004490:	40021000 	.word	0x40021000
 8004494:	ffff1fff 	.word	0xffff1fff
 8004498:	08006185 	.word	0x08006185
 800449c:	2000000c 	.word	0x2000000c
 80044a0:	20000014 	.word	0x20000014
 80044a4:	fffeffff 	.word	0xfffeffff
 80044a8:	fffbffff 	.word	0xfffbffff
 80044ac:	ffffe0ff 	.word	0xffffe0ff
 80044b0:	fffffeff 	.word	0xfffffeff
 80044b4:	40007000 	.word	0x40007000
    __HAL_RCC_LSE_CONFIG(RCC_OscInitStruct->LSEState);
 80044b8:	2b00      	cmp	r3, #0
 80044ba:	d116      	bne.n	80044ea <HAL_RCC_OscConfig+0x362>
 80044bc:	6d23      	ldr	r3, [r4, #80]	; 0x50
 80044be:	4a6b      	ldr	r2, [pc, #428]	; (800466c <HAL_RCC_OscConfig+0x4e4>)
 80044c0:	4013      	ands	r3, r2
 80044c2:	6523      	str	r3, [r4, #80]	; 0x50
 80044c4:	6d23      	ldr	r3, [r4, #80]	; 0x50
 80044c6:	4a6a      	ldr	r2, [pc, #424]	; (8004670 <HAL_RCC_OscConfig+0x4e8>)
 80044c8:	4013      	ands	r3, r2
 80044ca:	6523      	str	r3, [r4, #80]	; 0x50
      tickstart = HAL_GetTick();
 80044cc:	f7fe ffe8 	bl	80034a0 <HAL_GetTick>
 80044d0:	0007      	movs	r7, r0
      while(__HAL_RCC_GET_FLAG(RCC_FLAG_LSERDY) != 0U)
 80044d2:	2280      	movs	r2, #128	; 0x80
 80044d4:	6d23      	ldr	r3, [r4, #80]	; 0x50
 80044d6:	0092      	lsls	r2, r2, #2
 80044d8:	4213      	tst	r3, r2
 80044da:	d01a      	beq.n	8004512 <HAL_RCC_OscConfig+0x38a>
        if((HAL_GetTick() - tickstart ) > RCC_LSE_TIMEOUT_VALUE)
 80044dc:	f7fe ffe0 	bl	80034a0 <HAL_GetTick>
 80044e0:	4b64      	ldr	r3, [pc, #400]	; (8004674 <HAL_RCC_OscConfig+0x4ec>)
 80044e2:	1bc0      	subs	r0, r0, r7
 80044e4:	4298      	cmp	r0, r3
 80044e6:	d9f4      	bls.n	80044d2 <HAL_RCC_OscConfig+0x34a>
 80044e8:	e6c4      	b.n	8004274 <HAL_RCC_OscConfig+0xec>
    __HAL_RCC_LSE_CONFIG(RCC_OscInitStruct->LSEState);
 80044ea:	21a0      	movs	r1, #160	; 0xa0
 80044ec:	00c9      	lsls	r1, r1, #3
 80044ee:	428b      	cmp	r3, r1
 80044f0:	d118      	bne.n	8004524 <HAL_RCC_OscConfig+0x39c>
 80044f2:	2380      	movs	r3, #128	; 0x80
 80044f4:	6d21      	ldr	r1, [r4, #80]	; 0x50
 80044f6:	00db      	lsls	r3, r3, #3
 80044f8:	430b      	orrs	r3, r1
 80044fa:	6523      	str	r3, [r4, #80]	; 0x50
 80044fc:	6d23      	ldr	r3, [r4, #80]	; 0x50
 80044fe:	431a      	orrs	r2, r3
 8004500:	6522      	str	r2, [r4, #80]	; 0x50
      tickstart = HAL_GetTick();
 8004502:	f7fe ffcd 	bl	80034a0 <HAL_GetTick>
 8004506:	0007      	movs	r7, r0
      while(__HAL_RCC_GET_FLAG(RCC_FLAG_LSERDY) == 0U)
 8004508:	2280      	movs	r2, #128	; 0x80
 800450a:	6d23      	ldr	r3, [r4, #80]	; 0x50
 800450c:	0092      	lsls	r2, r2, #2
 800450e:	4213      	tst	r3, r2
 8004510:	d010      	beq.n	8004534 <HAL_RCC_OscConfig+0x3ac>
    if(pwrclkchanged == SET)
 8004512:	9b00      	ldr	r3, [sp, #0]
 8004514:	2b01      	cmp	r3, #1
 8004516:	d000      	beq.n	800451a <HAL_RCC_OscConfig+0x392>
 8004518:	e680      	b.n	800421c <HAL_RCC_OscConfig+0x94>
      __HAL_RCC_PWR_CLK_DISABLE();
 800451a:	6ba3      	ldr	r3, [r4, #56]	; 0x38
 800451c:	4a56      	ldr	r2, [pc, #344]	; (8004678 <HAL_RCC_OscConfig+0x4f0>)
 800451e:	4013      	ands	r3, r2
 8004520:	63a3      	str	r3, [r4, #56]	; 0x38
 8004522:	e67b      	b.n	800421c <HAL_RCC_OscConfig+0x94>
    __HAL_RCC_LSE_CONFIG(RCC_OscInitStruct->LSEState);
 8004524:	6d23      	ldr	r3, [r4, #80]	; 0x50
 8004526:	4a51      	ldr	r2, [pc, #324]	; (800466c <HAL_RCC_OscConfig+0x4e4>)
 8004528:	4013      	ands	r3, r2
 800452a:	6523      	str	r3, [r4, #80]	; 0x50
 800452c:	6d23      	ldr	r3, [r4, #80]	; 0x50
 800452e:	4a50      	ldr	r2, [pc, #320]	; (8004670 <HAL_RCC_OscConfig+0x4e8>)
 8004530:	4013      	ands	r3, r2
 8004532:	e797      	b.n	8004464 <HAL_RCC_OscConfig+0x2dc>
        if((HAL_GetTick() - tickstart ) > RCC_LSE_TIMEOUT_VALUE)
 8004534:	f7fe ffb4 	bl	80034a0 <HAL_GetTick>
 8004538:	4b4e      	ldr	r3, [pc, #312]	; (8004674 <HAL_RCC_OscConfig+0x4ec>)
 800453a:	1bc0      	subs	r0, r0, r7
 800453c:	4298      	cmp	r0, r3
 800453e:	d9e3      	bls.n	8004508 <HAL_RCC_OscConfig+0x380>
 8004540:	e698      	b.n	8004274 <HAL_RCC_OscConfig+0xec>
      if(RCC_OscInitStruct->HSI48State != RCC_HSI48_OFF)
 8004542:	69a9      	ldr	r1, [r5, #24]
 8004544:	2301      	movs	r3, #1
 8004546:	4a4d      	ldr	r2, [pc, #308]	; (800467c <HAL_RCC_OscConfig+0x4f4>)
 8004548:	2900      	cmp	r1, #0
 800454a:	d018      	beq.n	800457e <HAL_RCC_OscConfig+0x3f6>
        __HAL_RCC_HSI48_ENABLE();
 800454c:	68a1      	ldr	r1, [r4, #8]
 800454e:	4319      	orrs	r1, r3
 8004550:	60a1      	str	r1, [r4, #8]
 8004552:	6b61      	ldr	r1, [r4, #52]	; 0x34
 8004554:	430b      	orrs	r3, r1
 8004556:	6363      	str	r3, [r4, #52]	; 0x34
 8004558:	2380      	movs	r3, #128	; 0x80
 800455a:	6a11      	ldr	r1, [r2, #32]
 800455c:	019b      	lsls	r3, r3, #6
 800455e:	430b      	orrs	r3, r1
 8004560:	6213      	str	r3, [r2, #32]
        tickstart = HAL_GetTick();
 8004562:	f7fe ff9d 	bl	80034a0 <HAL_GetTick>
 8004566:	0007      	movs	r7, r0
        while(__HAL_RCC_GET_FLAG(RCC_FLAG_HSI48RDY) == 0U)
 8004568:	2202      	movs	r2, #2
 800456a:	68a3      	ldr	r3, [r4, #8]
 800456c:	4213      	tst	r3, r2
 800456e:	d000      	beq.n	8004572 <HAL_RCC_OscConfig+0x3ea>
 8004570:	e658      	b.n	8004224 <HAL_RCC_OscConfig+0x9c>
          if((HAL_GetTick() - tickstart) > HSI48_TIMEOUT_VALUE)
 8004572:	f7fe ff95 	bl	80034a0 <HAL_GetTick>
 8004576:	1bc0      	subs	r0, r0, r7
 8004578:	2802      	cmp	r0, #2
 800457a:	d9f5      	bls.n	8004568 <HAL_RCC_OscConfig+0x3e0>
 800457c:	e67a      	b.n	8004274 <HAL_RCC_OscConfig+0xec>
        __HAL_RCC_HSI48_DISABLE();
 800457e:	68a1      	ldr	r1, [r4, #8]
 8004580:	4399      	bics	r1, r3
 8004582:	60a1      	str	r1, [r4, #8]
 8004584:	6a13      	ldr	r3, [r2, #32]
 8004586:	493e      	ldr	r1, [pc, #248]	; (8004680 <HAL_RCC_OscConfig+0x4f8>)
 8004588:	400b      	ands	r3, r1
 800458a:	6213      	str	r3, [r2, #32]
        tickstart = HAL_GetTick();
 800458c:	f7fe ff88 	bl	80034a0 <HAL_GetTick>
 8004590:	0007      	movs	r7, r0
        while(__HAL_RCC_GET_FLAG(RCC_FLAG_HSI48RDY) != 0U)
 8004592:	2202      	movs	r2, #2
 8004594:	68a3      	ldr	r3, [r4, #8]
 8004596:	4213      	tst	r3, r2
 8004598:	d100      	bne.n	800459c <HAL_RCC_OscConfig+0x414>
 800459a:	e643      	b.n	8004224 <HAL_RCC_OscConfig+0x9c>
          if((HAL_GetTick() - tickstart) > HSI48_TIMEOUT_VALUE)
 800459c:	f7fe ff80 	bl	80034a0 <HAL_GetTick>
 80045a0:	1bc0      	subs	r0, r0, r7
 80045a2:	2802      	cmp	r0, #2
 80045a4:	d9f5      	bls.n	8004592 <HAL_RCC_OscConfig+0x40a>
 80045a6:	e665      	b.n	8004274 <HAL_RCC_OscConfig+0xec>
    if(sysclk_source != RCC_SYSCLKSOURCE_STATUS_PLLCLK)
 80045a8:	2e0c      	cmp	r6, #12
 80045aa:	d043      	beq.n	8004634 <HAL_RCC_OscConfig+0x4ac>
      if((RCC_OscInitStruct->PLL.PLLState) == RCC_PLL_ON)
 80045ac:	4a35      	ldr	r2, [pc, #212]	; (8004684 <HAL_RCC_OscConfig+0x4fc>)
 80045ae:	2b02      	cmp	r3, #2
 80045b0:	d12e      	bne.n	8004610 <HAL_RCC_OscConfig+0x488>
        __HAL_RCC_PLL_DISABLE();
 80045b2:	6823      	ldr	r3, [r4, #0]
        while(__HAL_RCC_GET_FLAG(RCC_FLAG_PLLRDY)  != 0U)
 80045b4:	2780      	movs	r7, #128	; 0x80
        __HAL_RCC_PLL_DISABLE();
 80045b6:	4013      	ands	r3, r2
 80045b8:	6023      	str	r3, [r4, #0]
        tickstart = HAL_GetTick();
 80045ba:	f7fe ff71 	bl	80034a0 <HAL_GetTick>
 80045be:	0006      	movs	r6, r0
        while(__HAL_RCC_GET_FLAG(RCC_FLAG_PLLRDY)  != 0U)
 80045c0:	04bf      	lsls	r7, r7, #18
 80045c2:	6823      	ldr	r3, [r4, #0]
 80045c4:	423b      	tst	r3, r7
 80045c6:	d11d      	bne.n	8004604 <HAL_RCC_OscConfig+0x47c>
        __HAL_RCC_PLL_CONFIG(RCC_OscInitStruct->PLL.PLLSource,
 80045c8:	6b29      	ldr	r1, [r5, #48]	; 0x30
 80045ca:	6aeb      	ldr	r3, [r5, #44]	; 0x2c
 80045cc:	68e2      	ldr	r2, [r4, #12]
 80045ce:	430b      	orrs	r3, r1
 80045d0:	492d      	ldr	r1, [pc, #180]	; (8004688 <HAL_RCC_OscConfig+0x500>)
        while(__HAL_RCC_GET_FLAG(RCC_FLAG_PLLRDY)  == 0U)
 80045d2:	2680      	movs	r6, #128	; 0x80
        __HAL_RCC_PLL_CONFIG(RCC_OscInitStruct->PLL.PLLSource,
 80045d4:	400a      	ands	r2, r1
 80045d6:	4313      	orrs	r3, r2
 80045d8:	6b6a      	ldr	r2, [r5, #52]	; 0x34
        while(__HAL_RCC_GET_FLAG(RCC_FLAG_PLLRDY)  == 0U)
 80045da:	04b6      	lsls	r6, r6, #18
        __HAL_RCC_PLL_CONFIG(RCC_OscInitStruct->PLL.PLLSource,
 80045dc:	4313      	orrs	r3, r2
 80045de:	60e3      	str	r3, [r4, #12]
        __HAL_RCC_PLL_ENABLE();
 80045e0:	2380      	movs	r3, #128	; 0x80
 80045e2:	6822      	ldr	r2, [r4, #0]
 80045e4:	045b      	lsls	r3, r3, #17
 80045e6:	4313      	orrs	r3, r2
 80045e8:	6023      	str	r3, [r4, #0]
        tickstart = HAL_GetTick();
 80045ea:	f7fe ff59 	bl	80034a0 <HAL_GetTick>
 80045ee:	0005      	movs	r5, r0
        while(__HAL_RCC_GET_FLAG(RCC_FLAG_PLLRDY)  == 0U)
 80045f0:	6823      	ldr	r3, [r4, #0]
 80045f2:	4233      	tst	r3, r6
 80045f4:	d000      	beq.n	80045f8 <HAL_RCC_OscConfig+0x470>
 80045f6:	e619      	b.n	800422c <HAL_RCC_OscConfig+0xa4>
          if((HAL_GetTick() - tickstart ) > PLL_TIMEOUT_VALUE)
 80045f8:	f7fe ff52 	bl	80034a0 <HAL_GetTick>
 80045fc:	1b40      	subs	r0, r0, r5
 80045fe:	2802      	cmp	r0, #2
 8004600:	d9f6      	bls.n	80045f0 <HAL_RCC_OscConfig+0x468>
 8004602:	e637      	b.n	8004274 <HAL_RCC_OscConfig+0xec>
          if((HAL_GetTick() - tickstart ) > PLL_TIMEOUT_VALUE)
 8004604:	f7fe ff4c 	bl	80034a0 <HAL_GetTick>
 8004608:	1b80      	subs	r0, r0, r6
 800460a:	2802      	cmp	r0, #2
 800460c:	d9d9      	bls.n	80045c2 <HAL_RCC_OscConfig+0x43a>
 800460e:	e631      	b.n	8004274 <HAL_RCC_OscConfig+0xec>
        __HAL_RCC_PLL_DISABLE();
 8004610:	6823      	ldr	r3, [r4, #0]
        while(__HAL_RCC_GET_FLAG(RCC_FLAG_PLLRDY)  != 0U)
 8004612:	2680      	movs	r6, #128	; 0x80
        __HAL_RCC_PLL_DISABLE();
 8004614:	4013      	ands	r3, r2
 8004616:	6023      	str	r3, [r4, #0]
        tickstart = HAL_GetTick();
 8004618:	f7fe ff42 	bl	80034a0 <HAL_GetTick>
 800461c:	0005      	movs	r5, r0
        while(__HAL_RCC_GET_FLAG(RCC_FLAG_PLLRDY)  != 0U)
 800461e:	04b6      	lsls	r6, r6, #18
 8004620:	6823      	ldr	r3, [r4, #0]
 8004622:	4233      	tst	r3, r6
 8004624:	d100      	bne.n	8004628 <HAL_RCC_OscConfig+0x4a0>
 8004626:	e601      	b.n	800422c <HAL_RCC_OscConfig+0xa4>
          if((HAL_GetTick() - tickstart ) > PLL_TIMEOUT_VALUE)
 8004628:	f7fe ff3a 	bl	80034a0 <HAL_GetTick>
 800462c:	1b40      	subs	r0, r0, r5
 800462e:	2802      	cmp	r0, #2
 8004630:	d9f6      	bls.n	8004620 <HAL_RCC_OscConfig+0x498>
 8004632:	e61f      	b.n	8004274 <HAL_RCC_OscConfig+0xec>
        return HAL_ERROR;
 8004634:	0018      	movs	r0, r3
      if((RCC_OscInitStruct->PLL.PLLState) == RCC_PLL_OFF)
 8004636:	2b01      	cmp	r3, #1
 8004638:	d100      	bne.n	800463c <HAL_RCC_OscConfig+0x4b4>
 800463a:	e61c      	b.n	8004276 <HAL_RCC_OscConfig+0xee>
        if((READ_BIT(pll_config, RCC_CFGR_PLLSRC) != RCC_OscInitStruct->PLL.PLLSource) ||
 800463c:	2280      	movs	r2, #128	; 0x80
        pll_config = RCC->CFGR;
 800463e:	68e3      	ldr	r3, [r4, #12]
        if((READ_BIT(pll_config, RCC_CFGR_PLLSRC) != RCC_OscInitStruct->PLL.PLLSource) ||
 8004640:	6ae9      	ldr	r1, [r5, #44]	; 0x2c
 8004642:	0252      	lsls	r2, r2, #9
 8004644:	401a      	ands	r2, r3
 8004646:	428a      	cmp	r2, r1
 8004648:	d000      	beq.n	800464c <HAL_RCC_OscConfig+0x4c4>
 800464a:	e5fd      	b.n	8004248 <HAL_RCC_OscConfig+0xc0>
           (READ_BIT(pll_config, RCC_CFGR_PLLMUL) != RCC_OscInitStruct->PLL.PLLMUL) ||
 800464c:	22f0      	movs	r2, #240	; 0xf0
        if((READ_BIT(pll_config, RCC_CFGR_PLLSRC) != RCC_OscInitStruct->PLL.PLLSource) ||
 800464e:	6b29      	ldr	r1, [r5, #48]	; 0x30
           (READ_BIT(pll_config, RCC_CFGR_PLLMUL) != RCC_OscInitStruct->PLL.PLLMUL) ||
 8004650:	0392      	lsls	r2, r2, #14
 8004652:	401a      	ands	r2, r3
        if((READ_BIT(pll_config, RCC_CFGR_PLLSRC) != RCC_OscInitStruct->PLL.PLLSource) ||
 8004654:	428a      	cmp	r2, r1
 8004656:	d000      	beq.n	800465a <HAL_RCC_OscConfig+0x4d2>
 8004658:	e5f6      	b.n	8004248 <HAL_RCC_OscConfig+0xc0>
           (READ_BIT(pll_config, RCC_CFGR_PLLDIV) != RCC_OscInitStruct->PLL.PLLDIV))
 800465a:	22c0      	movs	r2, #192	; 0xc0
 800465c:	0412      	lsls	r2, r2, #16
 800465e:	4013      	ands	r3, r2
           (READ_BIT(pll_config, RCC_CFGR_PLLMUL) != RCC_OscInitStruct->PLL.PLLMUL) ||
 8004660:	6b6a      	ldr	r2, [r5, #52]	; 0x34
 8004662:	4293      	cmp	r3, r2
 8004664:	d100      	bne.n	8004668 <HAL_RCC_OscConfig+0x4e0>
 8004666:	e5e1      	b.n	800422c <HAL_RCC_OscConfig+0xa4>
 8004668:	e5ee      	b.n	8004248 <HAL_RCC_OscConfig+0xc0>
 800466a:	46c0      	nop			; (mov r8, r8)
 800466c:	fffffeff 	.word	0xfffffeff
 8004670:	fffffbff 	.word	0xfffffbff
 8004674:	00001388 	.word	0x00001388
 8004678:	efffffff 	.word	0xefffffff
 800467c:	40010000 	.word	0x40010000
 8004680:	ffffdfff 	.word	0xffffdfff
 8004684:	feffffff 	.word	0xfeffffff
 8004688:	ff02ffff 	.word	0xff02ffff

0800468c <HAL_RCC_ClockConfig>:
{
 800468c:	b5f7      	push	{r0, r1, r2, r4, r5, r6, r7, lr}
 800468e:	1e04      	subs	r4, r0, #0
 8004690:	9101      	str	r1, [sp, #4]
  if(RCC_ClkInitStruct == NULL)
 8004692:	d101      	bne.n	8004698 <HAL_RCC_ClockConfig+0xc>
    return HAL_ERROR;
 8004694:	2001      	movs	r0, #1
}
 8004696:	bdfe      	pop	{r1, r2, r3, r4, r5, r6, r7, pc}
  if(FLatency > __HAL_FLASH_GET_LATENCY())
 8004698:	2501      	movs	r5, #1
 800469a:	4e5b      	ldr	r6, [pc, #364]	; (8004808 <HAL_RCC_ClockConfig+0x17c>)
 800469c:	9a01      	ldr	r2, [sp, #4]
 800469e:	6833      	ldr	r3, [r6, #0]
 80046a0:	402b      	ands	r3, r5
 80046a2:	4293      	cmp	r3, r2
 80046a4:	d331      	bcc.n	800470a <HAL_RCC_ClockConfig+0x7e>
  if(((RCC_ClkInitStruct->ClockType) & RCC_CLOCKTYPE_HCLK) == RCC_CLOCKTYPE_HCLK)
 80046a6:	6822      	ldr	r2, [r4, #0]
 80046a8:	0793      	lsls	r3, r2, #30
 80046aa:	d443      	bmi.n	8004734 <HAL_RCC_ClockConfig+0xa8>
  if(((RCC_ClkInitStruct->ClockType) & RCC_CLOCKTYPE_SYSCLK) == RCC_CLOCKTYPE_SYSCLK)
 80046ac:	07d3      	lsls	r3, r2, #31
 80046ae:	d449      	bmi.n	8004744 <HAL_RCC_ClockConfig+0xb8>
  if(FLatency < __HAL_FLASH_GET_LATENCY())
 80046b0:	2501      	movs	r5, #1
 80046b2:	6833      	ldr	r3, [r6, #0]
 80046b4:	9a01      	ldr	r2, [sp, #4]
 80046b6:	402b      	ands	r3, r5
 80046b8:	4293      	cmp	r3, r2
 80046ba:	d909      	bls.n	80046d0 <HAL_RCC_ClockConfig+0x44>
    __HAL_FLASH_SET_LATENCY(FLatency);
 80046bc:	6833      	ldr	r3, [r6, #0]
 80046be:	43ab      	bics	r3, r5
 80046c0:	6033      	str	r3, [r6, #0]
    tickstart = HAL_GetTick();
 80046c2:	f7fe feed 	bl	80034a0 <HAL_GetTick>
 80046c6:	0007      	movs	r7, r0
    while (__HAL_FLASH_GET_LATENCY() != FLatency)
 80046c8:	6833      	ldr	r3, [r6, #0]
 80046ca:	422b      	tst	r3, r5
 80046cc:	d000      	beq.n	80046d0 <HAL_RCC_ClockConfig+0x44>
 80046ce:	e08c      	b.n	80047ea <HAL_RCC_ClockConfig+0x15e>
  if(((RCC_ClkInitStruct->ClockType) & RCC_CLOCKTYPE_PCLK1) == RCC_CLOCKTYPE_PCLK1)
 80046d0:	6822      	ldr	r2, [r4, #0]
 80046d2:	4d4e      	ldr	r5, [pc, #312]	; (800480c <HAL_RCC_ClockConfig+0x180>)
 80046d4:	0753      	lsls	r3, r2, #29
 80046d6:	d500      	bpl.n	80046da <HAL_RCC_ClockConfig+0x4e>
 80046d8:	e08f      	b.n	80047fa <HAL_RCC_ClockConfig+0x16e>
  if(((RCC_ClkInitStruct->ClockType) & RCC_CLOCKTYPE_PCLK2) == RCC_CLOCKTYPE_PCLK2)
 80046da:	0713      	lsls	r3, r2, #28
 80046dc:	d506      	bpl.n	80046ec <HAL_RCC_ClockConfig+0x60>
    MODIFY_REG(RCC->CFGR, RCC_CFGR_PPRE2, ((RCC_ClkInitStruct->APB2CLKDivider) << 3));
 80046de:	68e9      	ldr	r1, [r5, #12]
 80046e0:	6923      	ldr	r3, [r4, #16]
 80046e2:	4a4b      	ldr	r2, [pc, #300]	; (8004810 <HAL_RCC_ClockConfig+0x184>)
 80046e4:	00db      	lsls	r3, r3, #3
 80046e6:	400a      	ands	r2, r1
 80046e8:	4313      	orrs	r3, r2
 80046ea:	60eb      	str	r3, [r5, #12]
  SystemCoreClock = HAL_RCC_GetSysClockFreq() >> AHBPrescTable[(RCC->CFGR & RCC_CFGR_HPRE)>> RCC_CFGR_HPRE_Pos];
 80046ec:	f7ff fd04 	bl	80040f8 <HAL_RCC_GetSysClockFreq>
 80046f0:	68eb      	ldr	r3, [r5, #12]
 80046f2:	4a48      	ldr	r2, [pc, #288]	; (8004814 <HAL_RCC_ClockConfig+0x188>)
 80046f4:	061b      	lsls	r3, r3, #24
 80046f6:	0f1b      	lsrs	r3, r3, #28
 80046f8:	5cd3      	ldrb	r3, [r2, r3]
 80046fa:	40d8      	lsrs	r0, r3
 80046fc:	4b46      	ldr	r3, [pc, #280]	; (8004818 <HAL_RCC_ClockConfig+0x18c>)
 80046fe:	6018      	str	r0, [r3, #0]
  status = HAL_InitTick(uwTickPrio);
 8004700:	4b46      	ldr	r3, [pc, #280]	; (800481c <HAL_RCC_ClockConfig+0x190>)
 8004702:	6818      	ldr	r0, [r3, #0]
 8004704:	f7fe fe88 	bl	8003418 <HAL_InitTick>
  if(status != HAL_OK)
 8004708:	e7c5      	b.n	8004696 <HAL_RCC_ClockConfig+0xa>
    __HAL_FLASH_SET_LATENCY(FLatency);
 800470a:	6833      	ldr	r3, [r6, #0]
 800470c:	9a01      	ldr	r2, [sp, #4]
 800470e:	43ab      	bics	r3, r5
 8004710:	4313      	orrs	r3, r2
 8004712:	6033      	str	r3, [r6, #0]
    tickstart = HAL_GetTick();
 8004714:	f7fe fec4 	bl	80034a0 <HAL_GetTick>
 8004718:	0007      	movs	r7, r0
    while (__HAL_FLASH_GET_LATENCY() != FLatency)
 800471a:	6833      	ldr	r3, [r6, #0]
 800471c:	9a01      	ldr	r2, [sp, #4]
 800471e:	402b      	ands	r3, r5
 8004720:	4293      	cmp	r3, r2
 8004722:	d0c0      	beq.n	80046a6 <HAL_RCC_ClockConfig+0x1a>
      if ((HAL_GetTick() - tickstart) > CLOCKSWITCH_TIMEOUT_VALUE)
 8004724:	f7fe febc 	bl	80034a0 <HAL_GetTick>
 8004728:	4b3d      	ldr	r3, [pc, #244]	; (8004820 <HAL_RCC_ClockConfig+0x194>)
 800472a:	1bc0      	subs	r0, r0, r7
 800472c:	4298      	cmp	r0, r3
 800472e:	d9f4      	bls.n	800471a <HAL_RCC_ClockConfig+0x8e>
        return HAL_TIMEOUT;
 8004730:	2003      	movs	r0, #3
 8004732:	e7b0      	b.n	8004696 <HAL_RCC_ClockConfig+0xa>
    MODIFY_REG(RCC->CFGR, RCC_CFGR_HPRE, RCC_ClkInitStruct->AHBCLKDivider);
 8004734:	20f0      	movs	r0, #240	; 0xf0
 8004736:	4935      	ldr	r1, [pc, #212]	; (800480c <HAL_RCC_ClockConfig+0x180>)
 8004738:	68cb      	ldr	r3, [r1, #12]
 800473a:	4383      	bics	r3, r0
 800473c:	68a0      	ldr	r0, [r4, #8]
 800473e:	4303      	orrs	r3, r0
 8004740:	60cb      	str	r3, [r1, #12]
 8004742:	e7b3      	b.n	80046ac <HAL_RCC_ClockConfig+0x20>
    if(RCC_ClkInitStruct->SYSCLKSource == RCC_SYSCLKSOURCE_HSE)
 8004744:	4d31      	ldr	r5, [pc, #196]	; (800480c <HAL_RCC_ClockConfig+0x180>)
 8004746:	6862      	ldr	r2, [r4, #4]
      if(__HAL_RCC_GET_FLAG(RCC_FLAG_HSERDY) == 0U)
 8004748:	682b      	ldr	r3, [r5, #0]
    if(RCC_ClkInitStruct->SYSCLKSource == RCC_SYSCLKSOURCE_HSE)
 800474a:	2a02      	cmp	r2, #2
 800474c:	d118      	bne.n	8004780 <HAL_RCC_ClockConfig+0xf4>
      if(__HAL_RCC_GET_FLAG(RCC_FLAG_HSERDY) == 0U)
 800474e:	039b      	lsls	r3, r3, #14
 8004750:	d5a0      	bpl.n	8004694 <HAL_RCC_ClockConfig+0x8>
    __HAL_RCC_SYSCLK_CONFIG(RCC_ClkInitStruct->SYSCLKSource);
 8004752:	2103      	movs	r1, #3
 8004754:	68eb      	ldr	r3, [r5, #12]
 8004756:	438b      	bics	r3, r1
 8004758:	4313      	orrs	r3, r2
 800475a:	60eb      	str	r3, [r5, #12]
    tickstart = HAL_GetTick();
 800475c:	f7fe fea0 	bl	80034a0 <HAL_GetTick>
    if(RCC_ClkInitStruct->SYSCLKSource == RCC_SYSCLKSOURCE_HSE)
 8004760:	6863      	ldr	r3, [r4, #4]
    tickstart = HAL_GetTick();
 8004762:	0007      	movs	r7, r0
    if(RCC_ClkInitStruct->SYSCLKSource == RCC_SYSCLKSOURCE_HSE)
 8004764:	2b02      	cmp	r3, #2
 8004766:	d118      	bne.n	800479a <HAL_RCC_ClockConfig+0x10e>
      while (__HAL_RCC_GET_SYSCLK_SOURCE() != RCC_SYSCLKSOURCE_STATUS_HSE)
 8004768:	220c      	movs	r2, #12
 800476a:	68eb      	ldr	r3, [r5, #12]
 800476c:	4013      	ands	r3, r2
 800476e:	2b08      	cmp	r3, #8
 8004770:	d09e      	beq.n	80046b0 <HAL_RCC_ClockConfig+0x24>
        if((HAL_GetTick() - tickstart ) > CLOCKSWITCH_TIMEOUT_VALUE)
 8004772:	f7fe fe95 	bl	80034a0 <HAL_GetTick>
 8004776:	4b2a      	ldr	r3, [pc, #168]	; (8004820 <HAL_RCC_ClockConfig+0x194>)
 8004778:	1bc0      	subs	r0, r0, r7
 800477a:	4298      	cmp	r0, r3
 800477c:	d9f4      	bls.n	8004768 <HAL_RCC_ClockConfig+0xdc>
 800477e:	e7d7      	b.n	8004730 <HAL_RCC_ClockConfig+0xa4>
    else if(RCC_ClkInitStruct->SYSCLKSource == RCC_SYSCLKSOURCE_PLLCLK)
 8004780:	2a03      	cmp	r2, #3
 8004782:	d102      	bne.n	800478a <HAL_RCC_ClockConfig+0xfe>
      if(__HAL_RCC_GET_FLAG(RCC_FLAG_PLLRDY) == 0U)
 8004784:	019b      	lsls	r3, r3, #6
 8004786:	d4e4      	bmi.n	8004752 <HAL_RCC_ClockConfig+0xc6>
 8004788:	e784      	b.n	8004694 <HAL_RCC_ClockConfig+0x8>
    else if(RCC_ClkInitStruct->SYSCLKSource == RCC_SYSCLKSOURCE_HSI)
 800478a:	2a01      	cmp	r2, #1
 800478c:	d102      	bne.n	8004794 <HAL_RCC_ClockConfig+0x108>
      if(__HAL_RCC_GET_FLAG(RCC_FLAG_HSIRDY) == 0U)
 800478e:	075b      	lsls	r3, r3, #29
 8004790:	d4df      	bmi.n	8004752 <HAL_RCC_ClockConfig+0xc6>
 8004792:	e77f      	b.n	8004694 <HAL_RCC_ClockConfig+0x8>
      if(__HAL_RCC_GET_FLAG(RCC_FLAG_MSIRDY) == 0U)
 8004794:	059b      	lsls	r3, r3, #22
 8004796:	d4dc      	bmi.n	8004752 <HAL_RCC_ClockConfig+0xc6>
 8004798:	e77c      	b.n	8004694 <HAL_RCC_ClockConfig+0x8>
    else if(RCC_ClkInitStruct->SYSCLKSource == RCC_SYSCLKSOURCE_PLLCLK)
 800479a:	2b03      	cmp	r3, #3
 800479c:	d10b      	bne.n	80047b6 <HAL_RCC_ClockConfig+0x12a>
      while (__HAL_RCC_GET_SYSCLK_SOURCE() != RCC_SYSCLKSOURCE_STATUS_PLLCLK)
 800479e:	220c      	movs	r2, #12
 80047a0:	68eb      	ldr	r3, [r5, #12]
 80047a2:	4013      	ands	r3, r2
 80047a4:	4293      	cmp	r3, r2
 80047a6:	d083      	beq.n	80046b0 <HAL_RCC_ClockConfig+0x24>
        if((HAL_GetTick() - tickstart ) > CLOCKSWITCH_TIMEOUT_VALUE)
 80047a8:	f7fe fe7a 	bl	80034a0 <HAL_GetTick>
 80047ac:	4b1c      	ldr	r3, [pc, #112]	; (8004820 <HAL_RCC_ClockConfig+0x194>)
 80047ae:	1bc0      	subs	r0, r0, r7
 80047b0:	4298      	cmp	r0, r3
 80047b2:	d9f4      	bls.n	800479e <HAL_RCC_ClockConfig+0x112>
 80047b4:	e7bc      	b.n	8004730 <HAL_RCC_ClockConfig+0xa4>
    else if(RCC_ClkInitStruct->SYSCLKSource == RCC_SYSCLKSOURCE_HSI)
 80047b6:	2b01      	cmp	r3, #1
 80047b8:	d011      	beq.n	80047de <HAL_RCC_ClockConfig+0x152>
      while(__HAL_RCC_GET_SYSCLK_SOURCE() != RCC_SYSCLKSOURCE_STATUS_MSI)
 80047ba:	220c      	movs	r2, #12
 80047bc:	68eb      	ldr	r3, [r5, #12]
 80047be:	4213      	tst	r3, r2
 80047c0:	d100      	bne.n	80047c4 <HAL_RCC_ClockConfig+0x138>
 80047c2:	e775      	b.n	80046b0 <HAL_RCC_ClockConfig+0x24>
        if((HAL_GetTick() - tickstart ) > CLOCKSWITCH_TIMEOUT_VALUE)
 80047c4:	f7fe fe6c 	bl	80034a0 <HAL_GetTick>
 80047c8:	4b15      	ldr	r3, [pc, #84]	; (8004820 <HAL_RCC_ClockConfig+0x194>)
 80047ca:	1bc0      	subs	r0, r0, r7
 80047cc:	4298      	cmp	r0, r3
 80047ce:	d9f4      	bls.n	80047ba <HAL_RCC_ClockConfig+0x12e>
 80047d0:	e7ae      	b.n	8004730 <HAL_RCC_ClockConfig+0xa4>
        if((HAL_GetTick() - tickstart ) > CLOCKSWITCH_TIMEOUT_VALUE)
 80047d2:	f7fe fe65 	bl	80034a0 <HAL_GetTick>
 80047d6:	4b12      	ldr	r3, [pc, #72]	; (8004820 <HAL_RCC_ClockConfig+0x194>)
 80047d8:	1bc0      	subs	r0, r0, r7
 80047da:	4298      	cmp	r0, r3
 80047dc:	d8a8      	bhi.n	8004730 <HAL_RCC_ClockConfig+0xa4>
      while (__HAL_RCC_GET_SYSCLK_SOURCE() != RCC_SYSCLKSOURCE_STATUS_HSI)
 80047de:	220c      	movs	r2, #12
 80047e0:	68eb      	ldr	r3, [r5, #12]
 80047e2:	4013      	ands	r3, r2
 80047e4:	2b04      	cmp	r3, #4
 80047e6:	d1f4      	bne.n	80047d2 <HAL_RCC_ClockConfig+0x146>
 80047e8:	e762      	b.n	80046b0 <HAL_RCC_ClockConfig+0x24>
      if ((HAL_GetTick() - tickstart) > CLOCKSWITCH_TIMEOUT_VALUE)
 80047ea:	f7fe fe59 	bl	80034a0 <HAL_GetTick>
 80047ee:	4b0c      	ldr	r3, [pc, #48]	; (8004820 <HAL_RCC_ClockConfig+0x194>)
 80047f0:	1bc0      	subs	r0, r0, r7
 80047f2:	4298      	cmp	r0, r3
 80047f4:	d800      	bhi.n	80047f8 <HAL_RCC_ClockConfig+0x16c>
 80047f6:	e767      	b.n	80046c8 <HAL_RCC_ClockConfig+0x3c>
 80047f8:	e79a      	b.n	8004730 <HAL_RCC_ClockConfig+0xa4>
    MODIFY_REG(RCC->CFGR, RCC_CFGR_PPRE1, RCC_ClkInitStruct->APB1CLKDivider);
 80047fa:	68eb      	ldr	r3, [r5, #12]
 80047fc:	4909      	ldr	r1, [pc, #36]	; (8004824 <HAL_RCC_ClockConfig+0x198>)
 80047fe:	400b      	ands	r3, r1
 8004800:	68e1      	ldr	r1, [r4, #12]
 8004802:	430b      	orrs	r3, r1
 8004804:	60eb      	str	r3, [r5, #12]
 8004806:	e768      	b.n	80046da <HAL_RCC_ClockConfig+0x4e>
 8004808:	40022000 	.word	0x40022000
 800480c:	40021000 	.word	0x40021000
 8004810:	ffffc7ff 	.word	0xffffc7ff
 8004814:	08006185 	.word	0x08006185
 8004818:	2000000c 	.word	0x2000000c
 800481c:	20000014 	.word	0x20000014
 8004820:	00001388 	.word	0x00001388
 8004824:	fffff8ff 	.word	0xfffff8ff

08004828 <HAL_RCC_GetPCLK1Freq>:
  * @retval PCLK1 frequency
  */
uint32_t HAL_RCC_GetPCLK1Freq(void)
{
  /* Get HCLK source and Compute PCLK1 frequency ---------------------------*/
  return (HAL_RCC_GetHCLKFreq() >> APBPrescTable[(RCC->CFGR & RCC_CFGR_PPRE1) >> RCC_CFGR_PPRE1_Pos]);
 8004828:	4b04      	ldr	r3, [pc, #16]	; (800483c <HAL_RCC_GetPCLK1Freq+0x14>)
 800482a:	4a05      	ldr	r2, [pc, #20]	; (8004840 <HAL_RCC_GetPCLK1Freq+0x18>)
 800482c:	68db      	ldr	r3, [r3, #12]
 800482e:	055b      	lsls	r3, r3, #21
 8004830:	0f5b      	lsrs	r3, r3, #29
 8004832:	5cd3      	ldrb	r3, [r2, r3]
 8004834:	4a03      	ldr	r2, [pc, #12]	; (8004844 <HAL_RCC_GetPCLK1Freq+0x1c>)
 8004836:	6810      	ldr	r0, [r2, #0]
 8004838:	40d8      	lsrs	r0, r3
}
 800483a:	4770      	bx	lr
 800483c:	40021000 	.word	0x40021000
 8004840:	08006195 	.word	0x08006195
 8004844:	2000000c 	.word	0x2000000c

08004848 <HAL_RCC_GetPCLK2Freq>:
  * @retval PCLK2 frequency
  */
uint32_t HAL_RCC_GetPCLK2Freq(void)
{
  /* Get HCLK source and Compute PCLK2 frequency ---------------------------*/
  return (HAL_RCC_GetHCLKFreq()>> APBPrescTable[(RCC->CFGR & RCC_CFGR_PPRE2) >> RCC_CFGR_PPRE2_Pos]);
 8004848:	4b04      	ldr	r3, [pc, #16]	; (800485c <HAL_RCC_GetPCLK2Freq+0x14>)
 800484a:	4a05      	ldr	r2, [pc, #20]	; (8004860 <HAL_RCC_GetPCLK2Freq+0x18>)
 800484c:	68db      	ldr	r3, [r3, #12]
 800484e:	049b      	lsls	r3, r3, #18
 8004850:	0f5b      	lsrs	r3, r3, #29
 8004852:	5cd3      	ldrb	r3, [r2, r3]
 8004854:	4a03      	ldr	r2, [pc, #12]	; (8004864 <HAL_RCC_GetPCLK2Freq+0x1c>)
 8004856:	6810      	ldr	r0, [r2, #0]
 8004858:	40d8      	lsrs	r0, r3
}
 800485a:	4770      	bx	lr
 800485c:	40021000 	.word	0x40021000
 8004860:	08006195 	.word	0x08006195
 8004864:	2000000c 	.word	0x2000000c

08004868 <HAL_RCCEx_PeriphCLKConfig>:

  /* Check the parameters */
  assert_param(IS_RCC_PERIPHCLOCK(PeriphClkInit->PeriphClockSelection));

  /*------------------------------- RTC/LCD Configuration ------------------------*/
  if ((((PeriphClkInit->PeriphClockSelection) & RCC_PERIPHCLK_RTC) == RCC_PERIPHCLK_RTC)
 8004868:	6803      	ldr	r3, [r0, #0]
{
 800486a:	b5f7      	push	{r0, r1, r2, r4, r5, r6, r7, lr}
 800486c:	0005      	movs	r5, r0
  if ((((PeriphClkInit->PeriphClockSelection) & RCC_PERIPHCLK_RTC) == RCC_PERIPHCLK_RTC)
 800486e:	069b      	lsls	r3, r3, #26
 8004870:	d52d      	bpl.n	80048ce <HAL_RCCEx_PeriphCLKConfig+0x66>
#endif /* LCD */

    /* As soon as function is called to change RTC clock source, activation of the
       power domain is done. */
    /* Requires to enable write access to Backup Domain of necessary */
    if(__HAL_RCC_PWR_IS_CLK_DISABLED())
 8004872:	2380      	movs	r3, #128	; 0x80
  FlagStatus       pwrclkchanged = RESET;
 8004874:	2100      	movs	r1, #0
    if(__HAL_RCC_PWR_IS_CLK_DISABLED())
 8004876:	4c5c      	ldr	r4, [pc, #368]	; (80049e8 <HAL_RCCEx_PeriphCLKConfig+0x180>)
 8004878:	055b      	lsls	r3, r3, #21
 800487a:	6ba2      	ldr	r2, [r4, #56]	; 0x38
  FlagStatus       pwrclkchanged = RESET;
 800487c:	9100      	str	r1, [sp, #0]
    if(__HAL_RCC_PWR_IS_CLK_DISABLED())
 800487e:	421a      	tst	r2, r3
 8004880:	d104      	bne.n	800488c <HAL_RCCEx_PeriphCLKConfig+0x24>
    {
      __HAL_RCC_PWR_CLK_ENABLE();
 8004882:	6ba2      	ldr	r2, [r4, #56]	; 0x38
 8004884:	4313      	orrs	r3, r2
 8004886:	63a3      	str	r3, [r4, #56]	; 0x38
      pwrclkchanged = SET;
 8004888:	2301      	movs	r3, #1
 800488a:	9300      	str	r3, [sp, #0]
    }

    if(HAL_IS_BIT_CLR(PWR->CR, PWR_CR_DBP))
 800488c:	2780      	movs	r7, #128	; 0x80
 800488e:	4e57      	ldr	r6, [pc, #348]	; (80049ec <HAL_RCCEx_PeriphCLKConfig+0x184>)
 8004890:	007f      	lsls	r7, r7, #1
 8004892:	6833      	ldr	r3, [r6, #0]
 8004894:	423b      	tst	r3, r7
 8004896:	d053      	beq.n	8004940 <HAL_RCCEx_PeriphCLKConfig+0xd8>
      }
    }

    /* Check if user wants to change HSE RTC prescaler whereas HSE is enabled */
    temp_reg = (RCC->CR & RCC_CR_RTCPRE);
    if ((temp_reg != (PeriphClkInit->RTCClockSelection & RCC_CR_RTCPRE))
 8004898:	686b      	ldr	r3, [r5, #4]
 800489a:	21c0      	movs	r1, #192	; 0xc0
 800489c:	0018      	movs	r0, r3
    temp_reg = (RCC->CR & RCC_CR_RTCPRE);
 800489e:	6822      	ldr	r2, [r4, #0]
    if ((temp_reg != (PeriphClkInit->RTCClockSelection & RCC_CR_RTCPRE))
 80048a0:	0389      	lsls	r1, r1, #14
 80048a2:	4008      	ands	r0, r1
    temp_reg = (RCC->CR & RCC_CR_RTCPRE);
 80048a4:	400a      	ands	r2, r1
    if ((temp_reg != (PeriphClkInit->RTCClockSelection & RCC_CR_RTCPRE))
 80048a6:	4290      	cmp	r0, r2
 80048a8:	d15b      	bne.n	8004962 <HAL_RCCEx_PeriphCLKConfig+0xfa>
        }
      }
    }

    /* Reset the Backup domain only if the RTC Clock source selection is modified from reset value */
    temp_reg = (RCC->CSR & RCC_CSR_RTCSEL);
 80048aa:	6d21      	ldr	r1, [r4, #80]	; 0x50
 80048ac:	22c0      	movs	r2, #192	; 0xc0
 80048ae:	0008      	movs	r0, r1
 80048b0:	0292      	lsls	r2, r2, #10
 80048b2:	4010      	ands	r0, r2

    if((temp_reg != 0x00000000U) && (((temp_reg != (PeriphClkInit->RTCClockSelection & RCC_CSR_RTCSEL)) \
 80048b4:	4211      	tst	r1, r2
 80048b6:	d15f      	bne.n	8004978 <HAL_RCCEx_PeriphCLKConfig+0x110>
    {
      __HAL_RCC_LCD_CONFIG(PeriphClkInit->LCDClockSelection);
    } 
#endif /* LCD */

    if(((PeriphClkInit->PeriphClockSelection) & RCC_PERIPHCLK_RTC) == RCC_PERIPHCLK_RTC)
 80048b8:	682b      	ldr	r3, [r5, #0]
 80048ba:	069b      	lsls	r3, r3, #26
 80048bc:	d500      	bpl.n	80048c0 <HAL_RCCEx_PeriphCLKConfig+0x58>
 80048be:	e070      	b.n	80049a2 <HAL_RCCEx_PeriphCLKConfig+0x13a>
    {
      __HAL_RCC_RTC_CONFIG(PeriphClkInit->RTCClockSelection);
    }

    /* Require to disable power clock if necessary */
    if(pwrclkchanged == SET)
 80048c0:	9b00      	ldr	r3, [sp, #0]
 80048c2:	2b01      	cmp	r3, #1
 80048c4:	d103      	bne.n	80048ce <HAL_RCCEx_PeriphCLKConfig+0x66>
    {
      __HAL_RCC_PWR_CLK_DISABLE();
 80048c6:	6ba3      	ldr	r3, [r4, #56]	; 0x38
 80048c8:	4a49      	ldr	r2, [pc, #292]	; (80049f0 <HAL_RCCEx_PeriphCLKConfig+0x188>)
 80048ca:	4013      	ands	r3, r2
 80048cc:	63a3      	str	r3, [r4, #56]	; 0x38
    }
  }

#if defined (RCC_CCIPR_USART1SEL)
  /*------------------------------- USART1 Configuration ------------------------*/
  if(((PeriphClkInit->PeriphClockSelection) & RCC_PERIPHCLK_USART1) == RCC_PERIPHCLK_USART1)
 80048ce:	682b      	ldr	r3, [r5, #0]
 80048d0:	07da      	lsls	r2, r3, #31
 80048d2:	d506      	bpl.n	80048e2 <HAL_RCCEx_PeriphCLKConfig+0x7a>
  {
    /* Check the parameters */
    assert_param(IS_RCC_USART1CLKSOURCE(PeriphClkInit->Usart1ClockSelection));

    /* Configure the USART1 clock source */
    __HAL_RCC_USART1_CONFIG(PeriphClkInit->Usart1ClockSelection);
 80048d4:	2003      	movs	r0, #3
 80048d6:	4944      	ldr	r1, [pc, #272]	; (80049e8 <HAL_RCCEx_PeriphCLKConfig+0x180>)
 80048d8:	6cca      	ldr	r2, [r1, #76]	; 0x4c
 80048da:	4382      	bics	r2, r0
 80048dc:	68a8      	ldr	r0, [r5, #8]
 80048de:	4302      	orrs	r2, r0
 80048e0:	64ca      	str	r2, [r1, #76]	; 0x4c
  }
#endif /* RCC_CCIPR_USART1SEL */

  /*----------------------------- USART2 Configuration --------------------------*/
  if(((PeriphClkInit->PeriphClockSelection) & RCC_PERIPHCLK_USART2) == RCC_PERIPHCLK_USART2)
 80048e2:	079a      	lsls	r2, r3, #30
 80048e4:	d506      	bpl.n	80048f4 <HAL_RCCEx_PeriphCLKConfig+0x8c>
  {
    /* Check the parameters */
    assert_param(IS_RCC_USART2CLKSOURCE(PeriphClkInit->Usart2ClockSelection));

    /* Configure the USART2 clock source */
    __HAL_RCC_USART2_CONFIG(PeriphClkInit->Usart2ClockSelection);
 80048e6:	200c      	movs	r0, #12
 80048e8:	493f      	ldr	r1, [pc, #252]	; (80049e8 <HAL_RCCEx_PeriphCLKConfig+0x180>)
 80048ea:	6cca      	ldr	r2, [r1, #76]	; 0x4c
 80048ec:	4382      	bics	r2, r0
 80048ee:	68e8      	ldr	r0, [r5, #12]
 80048f0:	4302      	orrs	r2, r0
 80048f2:	64ca      	str	r2, [r1, #76]	; 0x4c
  }

  /*------------------------------ LPUART1 Configuration ------------------------*/
  if(((PeriphClkInit->PeriphClockSelection) & RCC_PERIPHCLK_LPUART1) == RCC_PERIPHCLK_LPUART1)
 80048f4:	075a      	lsls	r2, r3, #29
 80048f6:	d506      	bpl.n	8004906 <HAL_RCCEx_PeriphCLKConfig+0x9e>
  {
    /* Check the parameters */
    assert_param(IS_RCC_LPUART1CLKSOURCE(PeriphClkInit->Lpuart1ClockSelection));

    /* Configure the LPUAR1 clock source */
    __HAL_RCC_LPUART1_CONFIG(PeriphClkInit->Lpuart1ClockSelection);
 80048f8:	493b      	ldr	r1, [pc, #236]	; (80049e8 <HAL_RCCEx_PeriphCLKConfig+0x180>)
 80048fa:	483e      	ldr	r0, [pc, #248]	; (80049f4 <HAL_RCCEx_PeriphCLKConfig+0x18c>)
 80048fc:	6cca      	ldr	r2, [r1, #76]	; 0x4c
 80048fe:	4002      	ands	r2, r0
 8004900:	6928      	ldr	r0, [r5, #16]
 8004902:	4302      	orrs	r2, r0
 8004904:	64ca      	str	r2, [r1, #76]	; 0x4c
  }

  /*------------------------------ I2C1 Configuration ------------------------*/
  if(((PeriphClkInit->PeriphClockSelection) & RCC_PERIPHCLK_I2C1) == RCC_PERIPHCLK_I2C1)
 8004906:	071a      	lsls	r2, r3, #28
 8004908:	d506      	bpl.n	8004918 <HAL_RCCEx_PeriphCLKConfig+0xb0>
  {
    /* Check the parameters */
    assert_param(IS_RCC_I2C1CLKSOURCE(PeriphClkInit->I2c1ClockSelection));

    /* Configure the I2C1 clock source */
    __HAL_RCC_I2C1_CONFIG(PeriphClkInit->I2c1ClockSelection);
 800490a:	4937      	ldr	r1, [pc, #220]	; (80049e8 <HAL_RCCEx_PeriphCLKConfig+0x180>)
 800490c:	483a      	ldr	r0, [pc, #232]	; (80049f8 <HAL_RCCEx_PeriphCLKConfig+0x190>)
 800490e:	6cca      	ldr	r2, [r1, #76]	; 0x4c
 8004910:	4002      	ands	r2, r0
 8004912:	6968      	ldr	r0, [r5, #20]
 8004914:	4302      	orrs	r2, r0
 8004916:	64ca      	str	r2, [r1, #76]	; 0x4c
  }
#endif /* RCC_CCIPR_I2C3SEL */

#if defined(USB)
 /*---------------------------- USB and RNG configuration --------------------*/
  if(((PeriphClkInit->PeriphClockSelection) & RCC_PERIPHCLK_USB) == (RCC_PERIPHCLK_USB))
 8004918:	065a      	lsls	r2, r3, #25
 800491a:	d506      	bpl.n	800492a <HAL_RCCEx_PeriphCLKConfig+0xc2>
  {
    assert_param(IS_RCC_USBCLKSOURCE(PeriphClkInit->UsbClockSelection));
    __HAL_RCC_USB_CONFIG(PeriphClkInit->UsbClockSelection);
 800491c:	4932      	ldr	r1, [pc, #200]	; (80049e8 <HAL_RCCEx_PeriphCLKConfig+0x180>)
 800491e:	4837      	ldr	r0, [pc, #220]	; (80049fc <HAL_RCCEx_PeriphCLKConfig+0x194>)
 8004920:	6cca      	ldr	r2, [r1, #76]	; 0x4c
 8004922:	4002      	ands	r2, r0
 8004924:	69e8      	ldr	r0, [r5, #28]
 8004926:	4302      	orrs	r2, r0
 8004928:	64ca      	str	r2, [r1, #76]	; 0x4c
  {
    assert_param(IS_RCC_LPTIMCLK(PeriphClkInit->LptimClockSelection));
    __HAL_RCC_LPTIM1_CONFIG(PeriphClkInit->LptimClockSelection);
  }

  return HAL_OK;
 800492a:	2000      	movs	r0, #0
  if(((PeriphClkInit->PeriphClockSelection) & RCC_PERIPHCLK_LPTIM1) == (RCC_PERIPHCLK_LPTIM1))
 800492c:	061b      	lsls	r3, r3, #24
 800492e:	d517      	bpl.n	8004960 <HAL_RCCEx_PeriphCLKConfig+0xf8>
    __HAL_RCC_LPTIM1_CONFIG(PeriphClkInit->LptimClockSelection);
 8004930:	4a2d      	ldr	r2, [pc, #180]	; (80049e8 <HAL_RCCEx_PeriphCLKConfig+0x180>)
 8004932:	4933      	ldr	r1, [pc, #204]	; (8004a00 <HAL_RCCEx_PeriphCLKConfig+0x198>)
 8004934:	6cd3      	ldr	r3, [r2, #76]	; 0x4c
 8004936:	400b      	ands	r3, r1
 8004938:	69a9      	ldr	r1, [r5, #24]
 800493a:	430b      	orrs	r3, r1
 800493c:	64d3      	str	r3, [r2, #76]	; 0x4c
 800493e:	e00f      	b.n	8004960 <HAL_RCCEx_PeriphCLKConfig+0xf8>
      SET_BIT(PWR->CR, PWR_CR_DBP);
 8004940:	6833      	ldr	r3, [r6, #0]
 8004942:	433b      	orrs	r3, r7
 8004944:	6033      	str	r3, [r6, #0]
      tickstart = HAL_GetTick();
 8004946:	f7fe fdab 	bl	80034a0 <HAL_GetTick>
 800494a:	9001      	str	r0, [sp, #4]
      while(HAL_IS_BIT_CLR(PWR->CR, PWR_CR_DBP))
 800494c:	6833      	ldr	r3, [r6, #0]
 800494e:	423b      	tst	r3, r7
 8004950:	d1a2      	bne.n	8004898 <HAL_RCCEx_PeriphCLKConfig+0x30>
        if((HAL_GetTick() - tickstart) > RCC_DBP_TIMEOUT_VALUE)
 8004952:	f7fe fda5 	bl	80034a0 <HAL_GetTick>
 8004956:	9b01      	ldr	r3, [sp, #4]
 8004958:	1ac0      	subs	r0, r0, r3
 800495a:	2864      	cmp	r0, #100	; 0x64
 800495c:	d9f6      	bls.n	800494c <HAL_RCCEx_PeriphCLKConfig+0xe4>
          return HAL_TIMEOUT;
 800495e:	2003      	movs	r0, #3
}
 8004960:	bdfe      	pop	{r1, r2, r3, r4, r5, r6, r7, pc}
      if ((PeriphClkInit->RTCClockSelection & RCC_CSR_RTCSEL) == RCC_CSR_RTCSEL_HSE)
 8004962:	22c0      	movs	r2, #192	; 0xc0
 8004964:	0019      	movs	r1, r3
 8004966:	0292      	lsls	r2, r2, #10
 8004968:	4011      	ands	r1, r2
 800496a:	4291      	cmp	r1, r2
 800496c:	d19d      	bne.n	80048aa <HAL_RCCEx_PeriphCLKConfig+0x42>
        if (HAL_IS_BIT_SET(RCC->CR, RCC_CR_HSERDY))
 800496e:	6822      	ldr	r2, [r4, #0]
          return HAL_ERROR;
 8004970:	2001      	movs	r0, #1
        if (HAL_IS_BIT_SET(RCC->CR, RCC_CR_HSERDY))
 8004972:	0392      	lsls	r2, r2, #14
 8004974:	d599      	bpl.n	80048aa <HAL_RCCEx_PeriphCLKConfig+0x42>
 8004976:	e7f3      	b.n	8004960 <HAL_RCCEx_PeriphCLKConfig+0xf8>
    if((temp_reg != 0x00000000U) && (((temp_reg != (PeriphClkInit->RTCClockSelection & RCC_CSR_RTCSEL)) \
 8004978:	4013      	ands	r3, r2
 800497a:	4283      	cmp	r3, r0
 800497c:	d09c      	beq.n	80048b8 <HAL_RCCEx_PeriphCLKConfig+0x50>
      && (((PeriphClkInit->PeriphClockSelection) & RCC_PERIPHCLK_RTC) == RCC_PERIPHCLK_RTC))
 800497e:	682b      	ldr	r3, [r5, #0]
 8004980:	069b      	lsls	r3, r3, #26
 8004982:	d59d      	bpl.n	80048c0 <HAL_RCCEx_PeriphCLKConfig+0x58>
      __HAL_RCC_BACKUPRESET_FORCE();
 8004984:	2280      	movs	r2, #128	; 0x80
      temp_reg = (RCC->CSR & ~(RCC_CSR_RTCSEL));
 8004986:	6d21      	ldr	r1, [r4, #80]	; 0x50
      __HAL_RCC_BACKUPRESET_FORCE();
 8004988:	6d20      	ldr	r0, [r4, #80]	; 0x50
 800498a:	0312      	lsls	r2, r2, #12
 800498c:	4302      	orrs	r2, r0
 800498e:	6522      	str	r2, [r4, #80]	; 0x50
      __HAL_RCC_BACKUPRESET_RELEASE();
 8004990:	6d22      	ldr	r2, [r4, #80]	; 0x50
      temp_reg = (RCC->CSR & ~(RCC_CSR_RTCSEL));
 8004992:	4b1c      	ldr	r3, [pc, #112]	; (8004a04 <HAL_RCCEx_PeriphCLKConfig+0x19c>)
      __HAL_RCC_BACKUPRESET_RELEASE();
 8004994:	481c      	ldr	r0, [pc, #112]	; (8004a08 <HAL_RCCEx_PeriphCLKConfig+0x1a0>)
      temp_reg = (RCC->CSR & ~(RCC_CSR_RTCSEL));
 8004996:	400b      	ands	r3, r1
      __HAL_RCC_BACKUPRESET_RELEASE();
 8004998:	4002      	ands	r2, r0
 800499a:	6522      	str	r2, [r4, #80]	; 0x50
      RCC->CSR = temp_reg;
 800499c:	6523      	str	r3, [r4, #80]	; 0x50
      if (HAL_IS_BIT_SET(temp_reg, RCC_CSR_LSEON))
 800499e:	05cb      	lsls	r3, r1, #23
 80049a0:	d412      	bmi.n	80049c8 <HAL_RCCEx_PeriphCLKConfig+0x160>
      __HAL_RCC_RTC_CONFIG(PeriphClkInit->RTCClockSelection);
 80049a2:	6869      	ldr	r1, [r5, #4]
 80049a4:	23c0      	movs	r3, #192	; 0xc0
 80049a6:	000a      	movs	r2, r1
 80049a8:	029b      	lsls	r3, r3, #10
 80049aa:	401a      	ands	r2, r3
 80049ac:	429a      	cmp	r2, r3
 80049ae:	d107      	bne.n	80049c0 <HAL_RCCEx_PeriphCLKConfig+0x158>
 80049b0:	6823      	ldr	r3, [r4, #0]
 80049b2:	4816      	ldr	r0, [pc, #88]	; (8004a0c <HAL_RCCEx_PeriphCLKConfig+0x1a4>)
 80049b4:	4003      	ands	r3, r0
 80049b6:	20c0      	movs	r0, #192	; 0xc0
 80049b8:	0380      	lsls	r0, r0, #14
 80049ba:	4001      	ands	r1, r0
 80049bc:	430b      	orrs	r3, r1
 80049be:	6023      	str	r3, [r4, #0]
 80049c0:	6d23      	ldr	r3, [r4, #80]	; 0x50
 80049c2:	431a      	orrs	r2, r3
 80049c4:	6522      	str	r2, [r4, #80]	; 0x50
 80049c6:	e77b      	b.n	80048c0 <HAL_RCCEx_PeriphCLKConfig+0x58>
        tickstart = HAL_GetTick();
 80049c8:	f7fe fd6a 	bl	80034a0 <HAL_GetTick>
        while(__HAL_RCC_GET_FLAG(RCC_FLAG_LSERDY) == 0U)
 80049cc:	2780      	movs	r7, #128	; 0x80
        tickstart = HAL_GetTick();
 80049ce:	0006      	movs	r6, r0
        while(__HAL_RCC_GET_FLAG(RCC_FLAG_LSERDY) == 0U)
 80049d0:	00bf      	lsls	r7, r7, #2
 80049d2:	6d23      	ldr	r3, [r4, #80]	; 0x50
 80049d4:	423b      	tst	r3, r7
 80049d6:	d000      	beq.n	80049da <HAL_RCCEx_PeriphCLKConfig+0x172>
 80049d8:	e76e      	b.n	80048b8 <HAL_RCCEx_PeriphCLKConfig+0x50>
          if((HAL_GetTick() - tickstart ) > RCC_LSE_TIMEOUT_VALUE)
 80049da:	f7fe fd61 	bl	80034a0 <HAL_GetTick>
 80049de:	4b0c      	ldr	r3, [pc, #48]	; (8004a10 <HAL_RCCEx_PeriphCLKConfig+0x1a8>)
 80049e0:	1b80      	subs	r0, r0, r6
 80049e2:	4298      	cmp	r0, r3
 80049e4:	d9f5      	bls.n	80049d2 <HAL_RCCEx_PeriphCLKConfig+0x16a>
 80049e6:	e7ba      	b.n	800495e <HAL_RCCEx_PeriphCLKConfig+0xf6>
 80049e8:	40021000 	.word	0x40021000
 80049ec:	40007000 	.word	0x40007000
 80049f0:	efffffff 	.word	0xefffffff
 80049f4:	fffff3ff 	.word	0xfffff3ff
 80049f8:	ffffcfff 	.word	0xffffcfff
 80049fc:	fbffffff 	.word	0xfbffffff
 8004a00:	fff3ffff 	.word	0xfff3ffff
 8004a04:	fffcffff 	.word	0xfffcffff
 8004a08:	fff7ffff 	.word	0xfff7ffff
 8004a0c:	ffcfffff 	.word	0xffcfffff
 8004a10:	00001388 	.word	0x00001388

08004a14 <TIM_Base_SetConfig>:
{
  uint32_t tmpcr1;
  tmpcr1 = TIMx->CR1;

  /* Set TIM Time Base Unit parameters ---------------------------------------*/
  if (IS_TIM_COUNTER_MODE_SELECT_INSTANCE(TIMx))
 8004a14:	2280      	movs	r2, #128	; 0x80
{
 8004a16:	b510      	push	{r4, lr}
  tmpcr1 = TIMx->CR1;
 8004a18:	6803      	ldr	r3, [r0, #0]
  if (IS_TIM_COUNTER_MODE_SELECT_INSTANCE(TIMx))
 8004a1a:	05d2      	lsls	r2, r2, #23
 8004a1c:	4290      	cmp	r0, r2
 8004a1e:	d005      	beq.n	8004a2c <TIM_Base_SetConfig+0x18>
 8004a20:	4c10      	ldr	r4, [pc, #64]	; (8004a64 <TIM_Base_SetConfig+0x50>)
 8004a22:	42a0      	cmp	r0, r4
 8004a24:	d002      	beq.n	8004a2c <TIM_Base_SetConfig+0x18>
 8004a26:	4c10      	ldr	r4, [pc, #64]	; (8004a68 <TIM_Base_SetConfig+0x54>)
 8004a28:	42a0      	cmp	r0, r4
 8004a2a:	d10f      	bne.n	8004a4c <TIM_Base_SetConfig+0x38>
  {
    /* Select the Counter Mode */
    tmpcr1 &= ~(TIM_CR1_DIR | TIM_CR1_CMS);
 8004a2c:	2470      	movs	r4, #112	; 0x70
 8004a2e:	43a3      	bics	r3, r4
    tmpcr1 |= Structure->CounterMode;
 8004a30:	684c      	ldr	r4, [r1, #4]
 8004a32:	4323      	orrs	r3, r4
  }

  if (IS_TIM_CLOCK_DIVISION_INSTANCE(TIMx))
 8004a34:	4290      	cmp	r0, r2
 8004a36:	d005      	beq.n	8004a44 <TIM_Base_SetConfig+0x30>
 8004a38:	4a0a      	ldr	r2, [pc, #40]	; (8004a64 <TIM_Base_SetConfig+0x50>)
 8004a3a:	4290      	cmp	r0, r2
 8004a3c:	d002      	beq.n	8004a44 <TIM_Base_SetConfig+0x30>
 8004a3e:	4a0a      	ldr	r2, [pc, #40]	; (8004a68 <TIM_Base_SetConfig+0x54>)
 8004a40:	4290      	cmp	r0, r2
 8004a42:	d103      	bne.n	8004a4c <TIM_Base_SetConfig+0x38>
  {
    /* Set the clock division */
    tmpcr1 &= ~TIM_CR1_CKD;
 8004a44:	4a09      	ldr	r2, [pc, #36]	; (8004a6c <TIM_Base_SetConfig+0x58>)
 8004a46:	4013      	ands	r3, r2
    tmpcr1 |= (uint32_t)Structure->ClockDivision;
 8004a48:	68ca      	ldr	r2, [r1, #12]
 8004a4a:	4313      	orrs	r3, r2
  }

  /* Set the auto-reload preload */
  MODIFY_REG(tmpcr1, TIM_CR1_ARPE, Structure->AutoReloadPreload);
 8004a4c:	2280      	movs	r2, #128	; 0x80
 8004a4e:	4393      	bics	r3, r2
 8004a50:	690a      	ldr	r2, [r1, #16]
 8004a52:	4313      	orrs	r3, r2

  TIMx->CR1 = tmpcr1;
 8004a54:	6003      	str	r3, [r0, #0]

  /* Set the Autoreload value */
  TIMx->ARR = (uint32_t)Structure->Period ;
 8004a56:	688b      	ldr	r3, [r1, #8]
 8004a58:	62c3      	str	r3, [r0, #44]	; 0x2c

  /* Set the Prescaler value */
  TIMx->PSC = Structure->Prescaler;
 8004a5a:	680b      	ldr	r3, [r1, #0]
 8004a5c:	6283      	str	r3, [r0, #40]	; 0x28

  /* Generate an update event to reload the Prescaler
     and the repetition counter (only for advanced timer) value immediately */
  TIMx->EGR = TIM_EGR_UG;
 8004a5e:	2301      	movs	r3, #1
 8004a60:	6143      	str	r3, [r0, #20]
}
 8004a62:	bd10      	pop	{r4, pc}
 8004a64:	40010800 	.word	0x40010800
 8004a68:	40011400 	.word	0x40011400
 8004a6c:	fffffcff 	.word	0xfffffcff

08004a70 <TIM_OC1_SetConfig>:
  uint32_t tmpccmrx;
  uint32_t tmpccer;
  uint32_t tmpcr2;

  /* Disable the Channel 1: Reset the CC1E Bit */
  TIMx->CCER &= ~TIM_CCER_CC1E;
 8004a70:	2201      	movs	r2, #1
{
 8004a72:	b530      	push	{r4, r5, lr}
  /* Get the TIMx CCMR1 register value */
  tmpccmrx = TIMx->CCMR1;

  /* Reset the Output Compare Mode Bits */
  tmpccmrx &= ~TIM_CCMR1_OC1M;
  tmpccmrx &= ~TIM_CCMR1_CC1S;
 8004a74:	2573      	movs	r5, #115	; 0x73
  TIMx->CCER &= ~TIM_CCER_CC1E;
 8004a76:	6a03      	ldr	r3, [r0, #32]
 8004a78:	4393      	bics	r3, r2
 8004a7a:	6203      	str	r3, [r0, #32]
  tmpccer = TIMx->CCER;
 8004a7c:	6a03      	ldr	r3, [r0, #32]
  tmpcr2 =  TIMx->CR2;
 8004a7e:	6844      	ldr	r4, [r0, #4]
  tmpccmrx = TIMx->CCMR1;
 8004a80:	6982      	ldr	r2, [r0, #24]
  tmpccmrx &= ~TIM_CCMR1_CC1S;
 8004a82:	43aa      	bics	r2, r5
  /* Select the Output Compare Mode */
  tmpccmrx |= OC_Config->OCMode;
 8004a84:	680d      	ldr	r5, [r1, #0]
 8004a86:	432a      	orrs	r2, r5

  /* Reset the Output Polarity level */
  tmpccer &= ~TIM_CCER_CC1P;
 8004a88:	2502      	movs	r5, #2
 8004a8a:	43ab      	bics	r3, r5
  /* Set the Output Compare Polarity */
  tmpccer |= OC_Config->OCPolarity;
 8004a8c:	688d      	ldr	r5, [r1, #8]

  /* Write to TIMx CR2 */
  TIMx->CR2 = tmpcr2;
 8004a8e:	6044      	str	r4, [r0, #4]

  /* Write to TIMx CCMR1 */
  TIMx->CCMR1 = tmpccmrx;
 8004a90:	6182      	str	r2, [r0, #24]

  /* Set the Capture Compare Register value */
  TIMx->CCR1 = OC_Config->Pulse;
 8004a92:	684a      	ldr	r2, [r1, #4]
  tmpccer |= OC_Config->OCPolarity;
 8004a94:	432b      	orrs	r3, r5
  TIMx->CCR1 = OC_Config->Pulse;
 8004a96:	6342      	str	r2, [r0, #52]	; 0x34

  /* Write to TIMx CCER */
  TIMx->CCER = tmpccer;
 8004a98:	6203      	str	r3, [r0, #32]
}
 8004a9a:	bd30      	pop	{r4, r5, pc}

08004a9c <TIM_OC2_SetConfig>:
  uint32_t tmpccmrx;
  uint32_t tmpccer;
  uint32_t tmpcr2;

  /* Disable the Channel 2: Reset the CC2E Bit */
  TIMx->CCER &= ~TIM_CCER_CC2E;
 8004a9c:	2210      	movs	r2, #16
 8004a9e:	6a03      	ldr	r3, [r0, #32]
{
 8004aa0:	b530      	push	{r4, r5, lr}
  TIMx->CCER &= ~TIM_CCER_CC2E;
 8004aa2:	4393      	bics	r3, r2
 8004aa4:	6203      	str	r3, [r0, #32]

  /* Get the TIMx CCER register value */
  tmpccer = TIMx->CCER;
 8004aa6:	6a03      	ldr	r3, [r0, #32]
  /* Get the TIMx CCMR1 register value */
  tmpccmrx = TIMx->CCMR1;

  /* Reset the Output Compare mode and Capture/Compare selection Bits */
  tmpccmrx &= ~TIM_CCMR1_OC2M;
  tmpccmrx &= ~TIM_CCMR1_CC2S;
 8004aa8:	4c09      	ldr	r4, [pc, #36]	; (8004ad0 <TIM_OC2_SetConfig+0x34>)
  tmpcr2 =  TIMx->CR2;
 8004aaa:	6845      	ldr	r5, [r0, #4]
  tmpccmrx = TIMx->CCMR1;
 8004aac:	6982      	ldr	r2, [r0, #24]
  tmpccmrx &= ~TIM_CCMR1_CC2S;
 8004aae:	4014      	ands	r4, r2

  /* Select the Output Compare Mode */
  tmpccmrx |= (OC_Config->OCMode << 8U);
 8004ab0:	680a      	ldr	r2, [r1, #0]
 8004ab2:	0212      	lsls	r2, r2, #8
 8004ab4:	4322      	orrs	r2, r4

  /* Reset the Output Polarity level */
  tmpccer &= ~TIM_CCER_CC2P;
 8004ab6:	2420      	movs	r4, #32
 8004ab8:	43a3      	bics	r3, r4
 8004aba:	001c      	movs	r4, r3
  /* Set the Output Compare Polarity */
  tmpccer |= (OC_Config->OCPolarity << 4U);
 8004abc:	688b      	ldr	r3, [r1, #8]

  /* Write to TIMx CR2 */
  TIMx->CR2 = tmpcr2;
 8004abe:	6045      	str	r5, [r0, #4]
  tmpccer |= (OC_Config->OCPolarity << 4U);
 8004ac0:	011b      	lsls	r3, r3, #4

  /* Write to TIMx CCMR1 */
  TIMx->CCMR1 = tmpccmrx;
 8004ac2:	6182      	str	r2, [r0, #24]

  /* Set the Capture Compare Register value */
  TIMx->CCR2 = OC_Config->Pulse;
 8004ac4:	684a      	ldr	r2, [r1, #4]
  tmpccer |= (OC_Config->OCPolarity << 4U);
 8004ac6:	4323      	orrs	r3, r4
  TIMx->CCR2 = OC_Config->Pulse;
 8004ac8:	6382      	str	r2, [r0, #56]	; 0x38

  /* Write to TIMx CCER */
  TIMx->CCER = tmpccer;
 8004aca:	6203      	str	r3, [r0, #32]
}
 8004acc:	bd30      	pop	{r4, r5, pc}
 8004ace:	46c0      	nop			; (mov r8, r8)
 8004ad0:	ffff8cff 	.word	0xffff8cff

08004ad4 <TIM_CCxChannelCmd>:

  /* Check the parameters */
  assert_param(IS_TIM_CC1_INSTANCE(TIMx));
  assert_param(IS_TIM_CHANNELS(Channel));

  tmp = TIM_CCER_CC1E << (Channel & 0x1FU); /* 0x1FU = 31 bits max shift */
 8004ad4:	231f      	movs	r3, #31
{
 8004ad6:	b510      	push	{r4, lr}
  tmp = TIM_CCER_CC1E << (Channel & 0x1FU); /* 0x1FU = 31 bits max shift */
 8004ad8:	2401      	movs	r4, #1
 8004ada:	4019      	ands	r1, r3
 8004adc:	408c      	lsls	r4, r1

  /* Reset the CCxE Bit */
  TIMx->CCER &= ~tmp;

  /* Set or reset the CCxE Bit */
  TIMx->CCER |= (uint32_t)(ChannelState << (Channel & 0x1FU)); /* 0x1FU = 31 bits max shift */
 8004ade:	408a      	lsls	r2, r1
  TIMx->CCER &= ~tmp;
 8004ae0:	6a03      	ldr	r3, [r0, #32]
 8004ae2:	43a3      	bics	r3, r4
 8004ae4:	6203      	str	r3, [r0, #32]
  TIMx->CCER |= (uint32_t)(ChannelState << (Channel & 0x1FU)); /* 0x1FU = 31 bits max shift */
 8004ae6:	6a03      	ldr	r3, [r0, #32]
 8004ae8:	431a      	orrs	r2, r3
 8004aea:	6202      	str	r2, [r0, #32]
}
 8004aec:	bd10      	pop	{r4, pc}
	...

08004af0 <HAL_TIM_OC_Start>:
{
 8004af0:	b510      	push	{r4, lr}
  if (TIM_CHANNEL_STATE_GET(htim, Channel) != HAL_TIM_CHANNEL_STATE_READY)
 8004af2:	0003      	movs	r3, r0
{
 8004af4:	0004      	movs	r4, r0
  if (TIM_CHANNEL_STATE_GET(htim, Channel) != HAL_TIM_CHANNEL_STATE_READY)
 8004af6:	2900      	cmp	r1, #0
 8004af8:	d105      	bne.n	8004b06 <HAL_TIM_OC_Start+0x16>
 8004afa:	333a      	adds	r3, #58	; 0x3a
    return HAL_ERROR;
 8004afc:	2001      	movs	r0, #1
  if (TIM_CHANNEL_STATE_GET(htim, Channel) != HAL_TIM_CHANNEL_STATE_READY)
 8004afe:	781a      	ldrb	r2, [r3, #0]
 8004b00:	4282      	cmp	r2, r0
 8004b02:	d00a      	beq.n	8004b1a <HAL_TIM_OC_Start+0x2a>
}
 8004b04:	bd10      	pop	{r4, pc}
  if (TIM_CHANNEL_STATE_GET(htim, Channel) != HAL_TIM_CHANNEL_STATE_READY)
 8004b06:	2904      	cmp	r1, #4
 8004b08:	d101      	bne.n	8004b0e <HAL_TIM_OC_Start+0x1e>
 8004b0a:	333b      	adds	r3, #59	; 0x3b
 8004b0c:	e7f6      	b.n	8004afc <HAL_TIM_OC_Start+0xc>
 8004b0e:	2908      	cmp	r1, #8
 8004b10:	d101      	bne.n	8004b16 <HAL_TIM_OC_Start+0x26>
 8004b12:	333c      	adds	r3, #60	; 0x3c
 8004b14:	e7f2      	b.n	8004afc <HAL_TIM_OC_Start+0xc>
 8004b16:	333d      	adds	r3, #61	; 0x3d
 8004b18:	e7f0      	b.n	8004afc <HAL_TIM_OC_Start+0xc>
  TIM_CHANNEL_STATE_SET(htim, Channel, HAL_TIM_CHANNEL_STATE_BUSY);
 8004b1a:	2202      	movs	r2, #2
 8004b1c:	701a      	strb	r2, [r3, #0]
  TIM_CCxChannelCmd(htim->Instance, Channel, TIM_CCx_ENABLE);
 8004b1e:	6820      	ldr	r0, [r4, #0]
 8004b20:	2201      	movs	r2, #1
 8004b22:	f7ff ffd7 	bl	8004ad4 <TIM_CCxChannelCmd>
  if (IS_TIM_SLAVE_INSTANCE(htim->Instance))
 8004b26:	2280      	movs	r2, #128	; 0x80
 8004b28:	6823      	ldr	r3, [r4, #0]
 8004b2a:	05d2      	lsls	r2, r2, #23
 8004b2c:	4293      	cmp	r3, r2
 8004b2e:	d005      	beq.n	8004b3c <HAL_TIM_OC_Start+0x4c>
 8004b30:	4a0b      	ldr	r2, [pc, #44]	; (8004b60 <HAL_TIM_OC_Start+0x70>)
 8004b32:	4293      	cmp	r3, r2
 8004b34:	d002      	beq.n	8004b3c <HAL_TIM_OC_Start+0x4c>
 8004b36:	4a0b      	ldr	r2, [pc, #44]	; (8004b64 <HAL_TIM_OC_Start+0x74>)
 8004b38:	4293      	cmp	r3, r2
 8004b3a:	d10a      	bne.n	8004b52 <HAL_TIM_OC_Start+0x62>
    tmpsmcr = htim->Instance->SMCR & TIM_SMCR_SMS;
 8004b3c:	2107      	movs	r1, #7
 8004b3e:	689a      	ldr	r2, [r3, #8]
  return HAL_OK;
 8004b40:	2000      	movs	r0, #0
    tmpsmcr = htim->Instance->SMCR & TIM_SMCR_SMS;
 8004b42:	400a      	ands	r2, r1
    if (!IS_TIM_SLAVEMODE_TRIGGER_ENABLED(tmpsmcr))
 8004b44:	2a06      	cmp	r2, #6
 8004b46:	d0dd      	beq.n	8004b04 <HAL_TIM_OC_Start+0x14>
      __HAL_TIM_ENABLE(htim);
 8004b48:	2201      	movs	r2, #1
 8004b4a:	6819      	ldr	r1, [r3, #0]
 8004b4c:	430a      	orrs	r2, r1
 8004b4e:	601a      	str	r2, [r3, #0]
 8004b50:	e7d8      	b.n	8004b04 <HAL_TIM_OC_Start+0x14>
    __HAL_TIM_ENABLE(htim);
 8004b52:	2201      	movs	r2, #1
 8004b54:	6819      	ldr	r1, [r3, #0]
  return HAL_OK;
 8004b56:	2000      	movs	r0, #0
    __HAL_TIM_ENABLE(htim);
 8004b58:	430a      	orrs	r2, r1
 8004b5a:	601a      	str	r2, [r3, #0]
 8004b5c:	e7d2      	b.n	8004b04 <HAL_TIM_OC_Start+0x14>
 8004b5e:	46c0      	nop			; (mov r8, r8)
 8004b60:	40010800 	.word	0x40010800
 8004b64:	40011400 	.word	0x40011400

08004b68 <HAL_TIM_OC_Stop>:
{
 8004b68:	b570      	push	{r4, r5, r6, lr}
 8004b6a:	0004      	movs	r4, r0
  TIM_CCxChannelCmd(htim->Instance, Channel, TIM_CCx_DISABLE);
 8004b6c:	2200      	movs	r2, #0
 8004b6e:	6800      	ldr	r0, [r0, #0]
{
 8004b70:	000d      	movs	r5, r1
  TIM_CCxChannelCmd(htim->Instance, Channel, TIM_CCx_DISABLE);
 8004b72:	f7ff ffaf 	bl	8004ad4 <TIM_CCxChannelCmd>
  __HAL_TIM_DISABLE(htim);
 8004b76:	6823      	ldr	r3, [r4, #0]
 8004b78:	4a0c      	ldr	r2, [pc, #48]	; (8004bac <HAL_TIM_OC_Stop+0x44>)
 8004b7a:	6a19      	ldr	r1, [r3, #32]
 8004b7c:	4211      	tst	r1, r2
 8004b7e:	d103      	bne.n	8004b88 <HAL_TIM_OC_Stop+0x20>
 8004b80:	2101      	movs	r1, #1
 8004b82:	681a      	ldr	r2, [r3, #0]
 8004b84:	438a      	bics	r2, r1
 8004b86:	601a      	str	r2, [r3, #0]
  TIM_CHANNEL_STATE_SET(htim, Channel, HAL_TIM_CHANNEL_STATE_READY);
 8004b88:	2301      	movs	r3, #1
 8004b8a:	2d00      	cmp	r5, #0
 8004b8c:	d103      	bne.n	8004b96 <HAL_TIM_OC_Stop+0x2e>
 8004b8e:	343a      	adds	r4, #58	; 0x3a
}
 8004b90:	2000      	movs	r0, #0
  TIM_CHANNEL_STATE_SET(htim, Channel, HAL_TIM_CHANNEL_STATE_READY);
 8004b92:	7023      	strb	r3, [r4, #0]
}
 8004b94:	bd70      	pop	{r4, r5, r6, pc}
  TIM_CHANNEL_STATE_SET(htim, Channel, HAL_TIM_CHANNEL_STATE_READY);
 8004b96:	2d04      	cmp	r5, #4
 8004b98:	d101      	bne.n	8004b9e <HAL_TIM_OC_Stop+0x36>
 8004b9a:	343b      	adds	r4, #59	; 0x3b
 8004b9c:	e7f8      	b.n	8004b90 <HAL_TIM_OC_Stop+0x28>
 8004b9e:	2d08      	cmp	r5, #8
 8004ba0:	d101      	bne.n	8004ba6 <HAL_TIM_OC_Stop+0x3e>
 8004ba2:	343c      	adds	r4, #60	; 0x3c
 8004ba4:	e7f4      	b.n	8004b90 <HAL_TIM_OC_Stop+0x28>
 8004ba6:	343d      	adds	r4, #61	; 0x3d
 8004ba8:	e7f2      	b.n	8004b90 <HAL_TIM_OC_Stop+0x28>
 8004baa:	46c0      	nop			; (mov r8, r8)
 8004bac:	00001111 	.word	0x00001111

08004bb0 <HAL_TIM_PWM_Init>:
{
 8004bb0:	b570      	push	{r4, r5, r6, lr}
 8004bb2:	0004      	movs	r4, r0
    return HAL_ERROR;
 8004bb4:	2001      	movs	r0, #1
  if (htim == NULL)
 8004bb6:	2c00      	cmp	r4, #0
 8004bb8:	d01d      	beq.n	8004bf6 <HAL_TIM_PWM_Init+0x46>
  if (htim->State == HAL_TIM_STATE_RESET)
 8004bba:	0025      	movs	r5, r4
 8004bbc:	3539      	adds	r5, #57	; 0x39
 8004bbe:	782b      	ldrb	r3, [r5, #0]
 8004bc0:	b2da      	uxtb	r2, r3
 8004bc2:	2b00      	cmp	r3, #0
 8004bc4:	d105      	bne.n	8004bd2 <HAL_TIM_PWM_Init+0x22>
    htim->Lock = HAL_UNLOCKED;
 8004bc6:	0023      	movs	r3, r4
 8004bc8:	3338      	adds	r3, #56	; 0x38
    HAL_TIM_PWM_MspInit(htim);
 8004bca:	0020      	movs	r0, r4
    htim->Lock = HAL_UNLOCKED;
 8004bcc:	701a      	strb	r2, [r3, #0]
    HAL_TIM_PWM_MspInit(htim);
 8004bce:	f7fe fb6b 	bl	80032a8 <HAL_TIM_PWM_MspInit>
  htim->State = HAL_TIM_STATE_BUSY;
 8004bd2:	2302      	movs	r3, #2
 8004bd4:	702b      	strb	r3, [r5, #0]
  TIM_Base_SetConfig(htim->Instance, &htim->Init);
 8004bd6:	6820      	ldr	r0, [r4, #0]
 8004bd8:	1d21      	adds	r1, r4, #4
 8004bda:	f7ff ff1b 	bl	8004a14 <TIM_Base_SetConfig>
  htim->DMABurstState = HAL_DMA_BURST_STATE_READY;
 8004bde:	0022      	movs	r2, r4
 8004be0:	2301      	movs	r3, #1
  return HAL_OK;
 8004be2:	2000      	movs	r0, #0
  htim->DMABurstState = HAL_DMA_BURST_STATE_READY;
 8004be4:	323e      	adds	r2, #62	; 0x3e
 8004be6:	7013      	strb	r3, [r2, #0]
  TIM_CHANNEL_STATE_SET_ALL(htim, HAL_TIM_CHANNEL_STATE_READY);
 8004be8:	343d      	adds	r4, #61	; 0x3d
 8004bea:	3a04      	subs	r2, #4
 8004bec:	7013      	strb	r3, [r2, #0]
 8004bee:	7053      	strb	r3, [r2, #1]
 8004bf0:	7093      	strb	r3, [r2, #2]
 8004bf2:	7023      	strb	r3, [r4, #0]
  htim->State = HAL_TIM_STATE_READY;
 8004bf4:	702b      	strb	r3, [r5, #0]
}
 8004bf6:	bd70      	pop	{r4, r5, r6, pc}

08004bf8 <HAL_TIM_PWM_Start>:
 8004bf8:	b510      	push	{r4, lr}
 8004bfa:	f7ff ff79 	bl	8004af0 <HAL_TIM_OC_Start>
 8004bfe:	bd10      	pop	{r4, pc}

08004c00 <HAL_TIM_PWM_Stop>:
 8004c00:	b510      	push	{r4, lr}
 8004c02:	f7ff ffb1 	bl	8004b68 <HAL_TIM_OC_Stop>
 8004c06:	bd10      	pop	{r4, pc}

08004c08 <HAL_TIM_PWM_ConfigChannel>:
{
 8004c08:	b5f8      	push	{r3, r4, r5, r6, r7, lr}
  __HAL_LOCK(htim);
 8004c0a:	0005      	movs	r5, r0
 8004c0c:	3538      	adds	r5, #56	; 0x38
 8004c0e:	782b      	ldrb	r3, [r5, #0]
{
 8004c10:	0007      	movs	r7, r0
 8004c12:	000c      	movs	r4, r1
 8004c14:	0016      	movs	r6, r2
  __HAL_LOCK(htim);
 8004c16:	2002      	movs	r0, #2
 8004c18:	2b01      	cmp	r3, #1
 8004c1a:	d00a      	beq.n	8004c32 <HAL_TIM_PWM_ConfigChannel+0x2a>
 8004c1c:	3801      	subs	r0, #1
 8004c1e:	7028      	strb	r0, [r5, #0]
  switch (Channel)
 8004c20:	2a08      	cmp	r2, #8
 8004c22:	d050      	beq.n	8004cc6 <HAL_TIM_PWM_ConfigChannel+0xbe>
 8004c24:	d806      	bhi.n	8004c34 <HAL_TIM_PWM_ConfigChannel+0x2c>
 8004c26:	2a00      	cmp	r2, #0
 8004c28:	d02a      	beq.n	8004c80 <HAL_TIM_PWM_ConfigChannel+0x78>
 8004c2a:	2a04      	cmp	r2, #4
 8004c2c:	d03a      	beq.n	8004ca4 <HAL_TIM_PWM_ConfigChannel+0x9c>
  __HAL_UNLOCK(htim);
 8004c2e:	2300      	movs	r3, #0
 8004c30:	702b      	strb	r3, [r5, #0]
}
 8004c32:	bdf8      	pop	{r3, r4, r5, r6, r7, pc}
  switch (Channel)
 8004c34:	2a0c      	cmp	r2, #12
 8004c36:	d1fa      	bne.n	8004c2e <HAL_TIM_PWM_ConfigChannel+0x26>
      TIM_OC4_SetConfig(htim->Instance, sConfig);
 8004c38:	683b      	ldr	r3, [r7, #0]
  TIMx->CCER &= ~TIM_CCER_CC4E;
 8004c3a:	4934      	ldr	r1, [pc, #208]	; (8004d0c <HAL_TIM_PWM_ConfigChannel+0x104>)
 8004c3c:	6a1a      	ldr	r2, [r3, #32]
  tmpccmrx &= ~TIM_CCMR2_CC4S;
 8004c3e:	4834      	ldr	r0, [pc, #208]	; (8004d10 <HAL_TIM_PWM_ConfigChannel+0x108>)
  TIMx->CCER &= ~TIM_CCER_CC4E;
 8004c40:	400a      	ands	r2, r1
 8004c42:	621a      	str	r2, [r3, #32]
  tmpccer = TIMx->CCER;
 8004c44:	6a1a      	ldr	r2, [r3, #32]
  tmpcr2 =  TIMx->CR2;
 8004c46:	685e      	ldr	r6, [r3, #4]
  tmpccmrx = TIMx->CCMR2;
 8004c48:	69d9      	ldr	r1, [r3, #28]
  tmpccmrx &= ~TIM_CCMR2_CC4S;
 8004c4a:	4001      	ands	r1, r0
  tmpccmrx |= (OC_Config->OCMode << 8U);
 8004c4c:	6820      	ldr	r0, [r4, #0]
 8004c4e:	0207      	lsls	r7, r0, #8
  tmpccer &= ~TIM_CCER_CC4P;
 8004c50:	4830      	ldr	r0, [pc, #192]	; (8004d14 <HAL_TIM_PWM_ConfigChannel+0x10c>)
  tmpccmrx |= (OC_Config->OCMode << 8U);
 8004c52:	4339      	orrs	r1, r7
  tmpccer &= ~TIM_CCER_CC4P;
 8004c54:	4010      	ands	r0, r2
  tmpccer |= (OC_Config->OCPolarity << 12U);
 8004c56:	68a2      	ldr	r2, [r4, #8]
  TIMx->CR2 = tmpcr2;
 8004c58:	605e      	str	r6, [r3, #4]
  tmpccer |= (OC_Config->OCPolarity << 12U);
 8004c5a:	0312      	lsls	r2, r2, #12
  TIMx->CCMR2 = tmpccmrx;
 8004c5c:	61d9      	str	r1, [r3, #28]
  TIMx->CCR4 = OC_Config->Pulse;
 8004c5e:	6861      	ldr	r1, [r4, #4]
  tmpccer |= (OC_Config->OCPolarity << 12U);
 8004c60:	4302      	orrs	r2, r0
  TIMx->CCR4 = OC_Config->Pulse;
 8004c62:	6419      	str	r1, [r3, #64]	; 0x40
  TIMx->CCER = tmpccer;
 8004c64:	621a      	str	r2, [r3, #32]
      htim->Instance->CCMR2 |= TIM_CCMR2_OC4PE;
 8004c66:	2280      	movs	r2, #128	; 0x80
 8004c68:	69d9      	ldr	r1, [r3, #28]
 8004c6a:	0112      	lsls	r2, r2, #4
 8004c6c:	430a      	orrs	r2, r1
 8004c6e:	61da      	str	r2, [r3, #28]
      htim->Instance->CCMR2 &= ~TIM_CCMR2_OC4FE;
 8004c70:	69da      	ldr	r2, [r3, #28]
 8004c72:	4929      	ldr	r1, [pc, #164]	; (8004d18 <HAL_TIM_PWM_ConfigChannel+0x110>)
 8004c74:	400a      	ands	r2, r1
 8004c76:	61da      	str	r2, [r3, #28]
      htim->Instance->CCMR2 |= sConfig->OCFastMode << 8U;
 8004c78:	68e2      	ldr	r2, [r4, #12]
 8004c7a:	69d9      	ldr	r1, [r3, #28]
 8004c7c:	0212      	lsls	r2, r2, #8
 8004c7e:	e041      	b.n	8004d04 <HAL_TIM_PWM_ConfigChannel+0xfc>
      TIM_OC1_SetConfig(htim->Instance, sConfig);
 8004c80:	6838      	ldr	r0, [r7, #0]
 8004c82:	f7ff fef5 	bl	8004a70 <TIM_OC1_SetConfig>
      htim->Instance->CCMR1 |= TIM_CCMR1_OC1PE;
 8004c86:	2208      	movs	r2, #8
 8004c88:	683b      	ldr	r3, [r7, #0]
 8004c8a:	6999      	ldr	r1, [r3, #24]
 8004c8c:	430a      	orrs	r2, r1
      htim->Instance->CCMR1 &= ~TIM_CCMR1_OC1FE;
 8004c8e:	2104      	movs	r1, #4
      htim->Instance->CCMR1 |= TIM_CCMR1_OC1PE;
 8004c90:	619a      	str	r2, [r3, #24]
      htim->Instance->CCMR1 &= ~TIM_CCMR1_OC1FE;
 8004c92:	699a      	ldr	r2, [r3, #24]
 8004c94:	438a      	bics	r2, r1
 8004c96:	619a      	str	r2, [r3, #24]
      htim->Instance->CCMR1 |= sConfig->OCFastMode;
 8004c98:	699a      	ldr	r2, [r3, #24]
 8004c9a:	68e1      	ldr	r1, [r4, #12]
      htim->Instance->CCMR1 |= sConfig->OCFastMode << 8U;
 8004c9c:	430a      	orrs	r2, r1
 8004c9e:	619a      	str	r2, [r3, #24]
  HAL_StatusTypeDef status = HAL_OK;
 8004ca0:	2000      	movs	r0, #0
      break;
 8004ca2:	e7c4      	b.n	8004c2e <HAL_TIM_PWM_ConfigChannel+0x26>
      TIM_OC2_SetConfig(htim->Instance, sConfig);
 8004ca4:	6838      	ldr	r0, [r7, #0]
 8004ca6:	f7ff fef9 	bl	8004a9c <TIM_OC2_SetConfig>
      htim->Instance->CCMR1 |= TIM_CCMR1_OC2PE;
 8004caa:	2280      	movs	r2, #128	; 0x80
 8004cac:	683b      	ldr	r3, [r7, #0]
 8004cae:	0112      	lsls	r2, r2, #4
 8004cb0:	6999      	ldr	r1, [r3, #24]
 8004cb2:	430a      	orrs	r2, r1
 8004cb4:	619a      	str	r2, [r3, #24]
      htim->Instance->CCMR1 &= ~TIM_CCMR1_OC2FE;
 8004cb6:	699a      	ldr	r2, [r3, #24]
 8004cb8:	4917      	ldr	r1, [pc, #92]	; (8004d18 <HAL_TIM_PWM_ConfigChannel+0x110>)
 8004cba:	400a      	ands	r2, r1
 8004cbc:	619a      	str	r2, [r3, #24]
      htim->Instance->CCMR1 |= sConfig->OCFastMode << 8U;
 8004cbe:	68e2      	ldr	r2, [r4, #12]
 8004cc0:	6999      	ldr	r1, [r3, #24]
 8004cc2:	0212      	lsls	r2, r2, #8
 8004cc4:	e7ea      	b.n	8004c9c <HAL_TIM_PWM_ConfigChannel+0x94>
  tmpccmrx &= ~TIM_CCMR2_CC3S;
 8004cc6:	2073      	movs	r0, #115	; 0x73
      TIM_OC3_SetConfig(htim->Instance, sConfig);
 8004cc8:	683b      	ldr	r3, [r7, #0]
  TIMx->CCER &= ~TIM_CCER_CC3E;
 8004cca:	4914      	ldr	r1, [pc, #80]	; (8004d1c <HAL_TIM_PWM_ConfigChannel+0x114>)
 8004ccc:	6a1a      	ldr	r2, [r3, #32]
 8004cce:	400a      	ands	r2, r1
 8004cd0:	621a      	str	r2, [r3, #32]
  tmpccer = TIMx->CCER;
 8004cd2:	6a1a      	ldr	r2, [r3, #32]
  tmpcr2 =  TIMx->CR2;
 8004cd4:	685f      	ldr	r7, [r3, #4]
  tmpccmrx = TIMx->CCMR2;
 8004cd6:	69d9      	ldr	r1, [r3, #28]
  tmpccmrx &= ~TIM_CCMR2_CC3S;
 8004cd8:	4381      	bics	r1, r0
  tmpccmrx |= OC_Config->OCMode;
 8004cda:	6820      	ldr	r0, [r4, #0]
 8004cdc:	4301      	orrs	r1, r0
  tmpccer &= ~TIM_CCER_CC3P;
 8004cde:	4810      	ldr	r0, [pc, #64]	; (8004d20 <HAL_TIM_PWM_ConfigChannel+0x118>)
 8004ce0:	4010      	ands	r0, r2
  tmpccer |= (OC_Config->OCPolarity << 8U);
 8004ce2:	68a2      	ldr	r2, [r4, #8]
  TIMx->CR2 = tmpcr2;
 8004ce4:	605f      	str	r7, [r3, #4]
  TIMx->CCMR2 = tmpccmrx;
 8004ce6:	61d9      	str	r1, [r3, #28]
  TIMx->CCR3 = OC_Config->Pulse;
 8004ce8:	6861      	ldr	r1, [r4, #4]
  tmpccer |= (OC_Config->OCPolarity << 8U);
 8004cea:	0212      	lsls	r2, r2, #8
  TIMx->CCR3 = OC_Config->Pulse;
 8004cec:	63d9      	str	r1, [r3, #60]	; 0x3c
      htim->Instance->CCMR2 &= ~TIM_CCMR2_OC3FE;
 8004cee:	2104      	movs	r1, #4
  tmpccer |= (OC_Config->OCPolarity << 8U);
 8004cf0:	4302      	orrs	r2, r0
  TIMx->CCER = tmpccer;
 8004cf2:	621a      	str	r2, [r3, #32]
      htim->Instance->CCMR2 |= TIM_CCMR2_OC3PE;
 8004cf4:	69da      	ldr	r2, [r3, #28]
 8004cf6:	4316      	orrs	r6, r2
 8004cf8:	61de      	str	r6, [r3, #28]
      htim->Instance->CCMR2 &= ~TIM_CCMR2_OC3FE;
 8004cfa:	69da      	ldr	r2, [r3, #28]
 8004cfc:	438a      	bics	r2, r1
 8004cfe:	61da      	str	r2, [r3, #28]
      htim->Instance->CCMR2 |= sConfig->OCFastMode;
 8004d00:	69da      	ldr	r2, [r3, #28]
 8004d02:	68e1      	ldr	r1, [r4, #12]
      htim->Instance->CCMR2 |= sConfig->OCFastMode << 8U;
 8004d04:	430a      	orrs	r2, r1
 8004d06:	61da      	str	r2, [r3, #28]
 8004d08:	e7ca      	b.n	8004ca0 <HAL_TIM_PWM_ConfigChannel+0x98>
 8004d0a:	46c0      	nop			; (mov r8, r8)
 8004d0c:	ffffefff 	.word	0xffffefff
 8004d10:	ffff8cff 	.word	0xffff8cff
 8004d14:	ffffdfff 	.word	0xffffdfff
 8004d18:	fffffbff 	.word	0xfffffbff
 8004d1c:	fffffeff 	.word	0xfffffeff
 8004d20:	fffffdff 	.word	0xfffffdff

08004d24 <HAL_TIMEx_MasterConfigSynchronization>:
  *         mode.
  * @retval HAL status
  */
HAL_StatusTypeDef HAL_TIMEx_MasterConfigSynchronization(TIM_HandleTypeDef *htim,
                                                        const TIM_MasterConfigTypeDef *sMasterConfig)
{
 8004d24:	b570      	push	{r4, r5, r6, lr}
  assert_param(IS_TIM_MASTER_INSTANCE(htim->Instance));
  assert_param(IS_TIM_TRGO_SOURCE(sMasterConfig->MasterOutputTrigger));
  assert_param(IS_TIM_MSM_STATE(sMasterConfig->MasterSlaveMode));

  /* Check input state */
  __HAL_LOCK(htim);
 8004d26:	0004      	movs	r4, r0
 8004d28:	2202      	movs	r2, #2
 8004d2a:	3438      	adds	r4, #56	; 0x38
 8004d2c:	7825      	ldrb	r5, [r4, #0]
{
 8004d2e:	0003      	movs	r3, r0
  __HAL_LOCK(htim);
 8004d30:	0010      	movs	r0, r2
 8004d32:	2d01      	cmp	r5, #1
 8004d34:	d01d      	beq.n	8004d72 <HAL_TIMEx_MasterConfigSynchronization+0x4e>

  /* Change the handler state */
  htim->State = HAL_TIM_STATE_BUSY;
 8004d36:	001d      	movs	r5, r3

  /* Get the TIMx SMCR register value */
  tmpsmcr = htim->Instance->SMCR;

  /* Reset the MMS Bits */
  tmpcr2 &= ~TIM_CR2_MMS;
 8004d38:	2670      	movs	r6, #112	; 0x70
  htim->State = HAL_TIM_STATE_BUSY;
 8004d3a:	3539      	adds	r5, #57	; 0x39
 8004d3c:	702a      	strb	r2, [r5, #0]
  tmpcr2 = htim->Instance->CR2;
 8004d3e:	681b      	ldr	r3, [r3, #0]
 8004d40:	6858      	ldr	r0, [r3, #4]
  tmpsmcr = htim->Instance->SMCR;
 8004d42:	689a      	ldr	r2, [r3, #8]
  tmpcr2 &= ~TIM_CR2_MMS;
 8004d44:	43b0      	bics	r0, r6
  /* Select the TRGO source */
  tmpcr2 |=  sMasterConfig->MasterOutputTrigger;
 8004d46:	680e      	ldr	r6, [r1, #0]
 8004d48:	4330      	orrs	r0, r6

  /* Update TIMx CR2 */
  htim->Instance->CR2 = tmpcr2;
 8004d4a:	6058      	str	r0, [r3, #4]

  if (IS_TIM_SLAVE_INSTANCE(htim->Instance))
 8004d4c:	2080      	movs	r0, #128	; 0x80
 8004d4e:	05c0      	lsls	r0, r0, #23
 8004d50:	4283      	cmp	r3, r0
 8004d52:	d005      	beq.n	8004d60 <HAL_TIMEx_MasterConfigSynchronization+0x3c>
 8004d54:	4807      	ldr	r0, [pc, #28]	; (8004d74 <HAL_TIMEx_MasterConfigSynchronization+0x50>)
 8004d56:	4283      	cmp	r3, r0
 8004d58:	d002      	beq.n	8004d60 <HAL_TIMEx_MasterConfigSynchronization+0x3c>
 8004d5a:	4807      	ldr	r0, [pc, #28]	; (8004d78 <HAL_TIMEx_MasterConfigSynchronization+0x54>)
 8004d5c:	4283      	cmp	r3, r0
 8004d5e:	d104      	bne.n	8004d6a <HAL_TIMEx_MasterConfigSynchronization+0x46>
  {
    /* Reset the MSM Bit */
    tmpsmcr &= ~TIM_SMCR_MSM;
 8004d60:	2080      	movs	r0, #128	; 0x80
    /* Set master mode */
    tmpsmcr |= sMasterConfig->MasterSlaveMode;
 8004d62:	6849      	ldr	r1, [r1, #4]
    tmpsmcr &= ~TIM_SMCR_MSM;
 8004d64:	4382      	bics	r2, r0
    tmpsmcr |= sMasterConfig->MasterSlaveMode;
 8004d66:	430a      	orrs	r2, r1

    /* Update TIMx SMCR */
    htim->Instance->SMCR = tmpsmcr;
 8004d68:	609a      	str	r2, [r3, #8]
  }

  /* Change the htim state */
  htim->State = HAL_TIM_STATE_READY;
 8004d6a:	2301      	movs	r3, #1

  __HAL_UNLOCK(htim);
 8004d6c:	2000      	movs	r0, #0
  htim->State = HAL_TIM_STATE_READY;
 8004d6e:	702b      	strb	r3, [r5, #0]
  __HAL_UNLOCK(htim);
 8004d70:	7020      	strb	r0, [r4, #0]

  return HAL_OK;
}
 8004d72:	bd70      	pop	{r4, r5, r6, pc}
 8004d74:	40010800 	.word	0x40010800
 8004d78:	40011400 	.word	0x40011400

08004d7c <UART_EndRxTransfer>:
  * @brief  End ongoing Rx transfer on UART peripheral (following error detection or Reception completion).
  * @param  huart UART handle.
  * @retval None
  */
static void UART_EndRxTransfer(UART_HandleTypeDef *huart)
{
 8004d7c:	b530      	push	{r4, r5, lr}
 */
__STATIC_FORCEINLINE uint32_t __get_PRIMASK(void)
{
  uint32_t result;

  __ASM volatile ("MRS %0, primask" : "=r" (result) :: "memory");
 8004d7e:	f3ef 8410 	mrs	r4, PRIMASK
  \details Assigns the given value to the Priority Mask Register.
  \param [in]    priMask  Priority Mask
 */
__STATIC_FORCEINLINE void __set_PRIMASK(uint32_t priMask)
{
  __ASM volatile ("MSR primask, %0" : : "r" (priMask) : "memory");
 8004d82:	2201      	movs	r2, #1
 8004d84:	f382 8810 	msr	PRIMASK, r2
  /* Disable RXNE, PE and ERR (Frame error, noise error, overrun error) interrupts */
  ATOMIC_CLEAR_BIT(huart->Instance->CR1, (USART_CR1_RXNEIE | USART_CR1_PEIE));
 8004d88:	6801      	ldr	r1, [r0, #0]
 8004d8a:	4d12      	ldr	r5, [pc, #72]	; (8004dd4 <UART_EndRxTransfer+0x58>)
 8004d8c:	680b      	ldr	r3, [r1, #0]
 8004d8e:	402b      	ands	r3, r5
 8004d90:	600b      	str	r3, [r1, #0]
 8004d92:	f384 8810 	msr	PRIMASK, r4
  __ASM volatile ("MRS %0, primask" : "=r" (result) :: "memory");
 8004d96:	f3ef 8410 	mrs	r4, PRIMASK
  __ASM volatile ("MSR primask, %0" : : "r" (priMask) : "memory");
 8004d9a:	f382 8810 	msr	PRIMASK, r2
  ATOMIC_CLEAR_BIT(huart->Instance->CR3, USART_CR3_EIE);
 8004d9e:	6801      	ldr	r1, [r0, #0]
 8004da0:	688b      	ldr	r3, [r1, #8]
 8004da2:	4393      	bics	r3, r2
 8004da4:	608b      	str	r3, [r1, #8]
 8004da6:	f384 8810 	msr	PRIMASK, r4

  /* In case of reception waiting for IDLE event, disable also the IDLE IE interrupt source */
  if (huart->ReceptionType == HAL_UART_RECEPTION_TOIDLE)
 8004daa:	6e03      	ldr	r3, [r0, #96]	; 0x60
 8004dac:	4293      	cmp	r3, r2
 8004dae:	d10a      	bne.n	8004dc6 <UART_EndRxTransfer+0x4a>
  __ASM volatile ("MRS %0, primask" : "=r" (result) :: "memory");
 8004db0:	f3ef 8110 	mrs	r1, PRIMASK
  __ASM volatile ("MSR primask, %0" : : "r" (priMask) : "memory");
 8004db4:	f383 8810 	msr	PRIMASK, r3
  {
    ATOMIC_CLEAR_BIT(huart->Instance->CR1, USART_CR1_IDLEIE);
 8004db8:	2410      	movs	r4, #16
 8004dba:	6802      	ldr	r2, [r0, #0]
 8004dbc:	6813      	ldr	r3, [r2, #0]
 8004dbe:	43a3      	bics	r3, r4
 8004dc0:	6013      	str	r3, [r2, #0]
 8004dc2:	f381 8810 	msr	PRIMASK, r1
  }

  /* At end of Rx process, restore huart->RxState to Ready */
  huart->RxState = HAL_UART_STATE_READY;
 8004dc6:	2220      	movs	r2, #32
 8004dc8:	1d03      	adds	r3, r0, #4
 8004dca:	67da      	str	r2, [r3, #124]	; 0x7c
  huart->ReceptionType = HAL_UART_RECEPTION_STANDARD;
 8004dcc:	2300      	movs	r3, #0
 8004dce:	6603      	str	r3, [r0, #96]	; 0x60

  /* Reset RxIsr function pointer */
  huart->RxISR = NULL;
 8004dd0:	6683      	str	r3, [r0, #104]	; 0x68
}
 8004dd2:	bd30      	pop	{r4, r5, pc}
 8004dd4:	fffffedf 	.word	0xfffffedf

08004dd8 <UART_SetConfig>:
{
 8004dd8:	b5f8      	push	{r3, r4, r5, r6, r7, lr}
 8004dda:	0004      	movs	r4, r0
  tmpreg = (uint32_t)huart->Init.WordLength | huart->Init.Parity | huart->Init.Mode | huart->Init.OverSampling ;
 8004ddc:	6925      	ldr	r5, [r4, #16]
 8004dde:	68a1      	ldr	r1, [r4, #8]
  if (UART_INSTANCE_LOWPOWER(huart))
 8004de0:	6802      	ldr	r2, [r0, #0]
  tmpreg = (uint32_t)huart->Init.WordLength | huart->Init.Parity | huart->Init.Mode | huart->Init.OverSampling ;
 8004de2:	4329      	orrs	r1, r5
 8004de4:	6965      	ldr	r5, [r4, #20]
 8004de6:	69c3      	ldr	r3, [r0, #28]
 8004de8:	4329      	orrs	r1, r5
  MODIFY_REG(huart->Instance->CR1, USART_CR1_FIELDS, tmpreg);
 8004dea:	6810      	ldr	r0, [r2, #0]
 8004dec:	4d72      	ldr	r5, [pc, #456]	; (8004fb8 <UART_SetConfig+0x1e0>)
  tmpreg = (uint32_t)huart->Init.WordLength | huart->Init.Parity | huart->Init.Mode | huart->Init.OverSampling ;
 8004dee:	4319      	orrs	r1, r3
  MODIFY_REG(huart->Instance->CR1, USART_CR1_FIELDS, tmpreg);
 8004df0:	4028      	ands	r0, r5
 8004df2:	4301      	orrs	r1, r0
 8004df4:	6011      	str	r1, [r2, #0]
  MODIFY_REG(huart->Instance->CR2, USART_CR2_STOP, huart->Init.StopBits);
 8004df6:	6851      	ldr	r1, [r2, #4]
 8004df8:	4870      	ldr	r0, [pc, #448]	; (8004fbc <UART_SetConfig+0x1e4>)
  if (!(UART_INSTANCE_LOWPOWER(huart)))
 8004dfa:	4d71      	ldr	r5, [pc, #452]	; (8004fc0 <UART_SetConfig+0x1e8>)
  MODIFY_REG(huart->Instance->CR2, USART_CR2_STOP, huart->Init.StopBits);
 8004dfc:	4001      	ands	r1, r0
 8004dfe:	68e0      	ldr	r0, [r4, #12]
 8004e00:	4301      	orrs	r1, r0
 8004e02:	6051      	str	r1, [r2, #4]
  tmpreg = (uint32_t)huart->Init.HwFlowCtl;
 8004e04:	69a0      	ldr	r0, [r4, #24]
  if (!(UART_INSTANCE_LOWPOWER(huart)))
 8004e06:	42aa      	cmp	r2, r5
 8004e08:	d001      	beq.n	8004e0e <UART_SetConfig+0x36>
    tmpreg |= huart->Init.OneBitSampling;
 8004e0a:	6a21      	ldr	r1, [r4, #32]
 8004e0c:	4308      	orrs	r0, r1
  MODIFY_REG(huart->Instance->CR3, USART_CR3_FIELDS, tmpreg);
 8004e0e:	6891      	ldr	r1, [r2, #8]
 8004e10:	4e6c      	ldr	r6, [pc, #432]	; (8004fc4 <UART_SetConfig+0x1ec>)
 8004e12:	4031      	ands	r1, r6
 8004e14:	4301      	orrs	r1, r0
 8004e16:	6091      	str	r1, [r2, #8]
  UART_GETCLOCKSOURCE(huart, clocksource);
 8004e18:	496b      	ldr	r1, [pc, #428]	; (8004fc8 <UART_SetConfig+0x1f0>)
 8004e1a:	428a      	cmp	r2, r1
 8004e1c:	d10f      	bne.n	8004e3e <UART_SetConfig+0x66>
 8004e1e:	2103      	movs	r1, #3
 8004e20:	4a6a      	ldr	r2, [pc, #424]	; (8004fcc <UART_SetConfig+0x1f4>)
 8004e22:	6cd2      	ldr	r2, [r2, #76]	; 0x4c
 8004e24:	400a      	ands	r2, r1
 8004e26:	3a01      	subs	r2, #1
 8004e28:	4969      	ldr	r1, [pc, #420]	; (8004fd0 <UART_SetConfig+0x1f8>)
 8004e2a:	2a02      	cmp	r2, #2
 8004e2c:	d90f      	bls.n	8004e4e <UART_SetConfig+0x76>
  else if (huart->Init.OverSampling == UART_OVERSAMPLING_8)
 8004e2e:	2280      	movs	r2, #128	; 0x80
 8004e30:	0212      	lsls	r2, r2, #8
 8004e32:	4293      	cmp	r3, r2
 8004e34:	d100      	bne.n	8004e38 <UART_SetConfig+0x60>
 8004e36:	e069      	b.n	8004f0c <UART_SetConfig+0x134>
        pclk = HAL_RCC_GetPCLK2Freq();
 8004e38:	f7ff fd06 	bl	8004848 <HAL_RCC_GetPCLK2Freq>
        break;
 8004e3c:	e09c      	b.n	8004f78 <UART_SetConfig+0x1a0>
  UART_GETCLOCKSOURCE(huart, clocksource);
 8004e3e:	4965      	ldr	r1, [pc, #404]	; (8004fd4 <UART_SetConfig+0x1fc>)
 8004e40:	428a      	cmp	r2, r1
 8004e42:	d113      	bne.n	8004e6c <UART_SetConfig+0x94>
 8004e44:	210c      	movs	r1, #12
 8004e46:	4a61      	ldr	r2, [pc, #388]	; (8004fcc <UART_SetConfig+0x1f4>)
 8004e48:	6cd2      	ldr	r2, [r2, #76]	; 0x4c
 8004e4a:	400a      	ands	r2, r1
 8004e4c:	4962      	ldr	r1, [pc, #392]	; (8004fd8 <UART_SetConfig+0x200>)
 8004e4e:	5c88      	ldrb	r0, [r1, r2]
  else if (huart->Init.OverSampling == UART_OVERSAMPLING_8)
 8004e50:	2280      	movs	r2, #128	; 0x80
 8004e52:	0212      	lsls	r2, r2, #8
 8004e54:	4293      	cmp	r3, r2
 8004e56:	d000      	beq.n	8004e5a <UART_SetConfig+0x82>
 8004e58:	e07f      	b.n	8004f5a <UART_SetConfig+0x182>
    switch (clocksource)
 8004e5a:	2808      	cmp	r0, #8
 8004e5c:	d818      	bhi.n	8004e90 <UART_SetConfig+0xb8>
 8004e5e:	f7fb f95b 	bl	8000118 <__gnu_thumb1_case_uqi>
 8004e62:	5550      	.short	0x5550
 8004e64:	17791758 	.word	0x17791758
 8004e68:	1717      	.short	0x1717
 8004e6a:	63          	.byte	0x63
 8004e6b:	00          	.byte	0x00
  UART_GETCLOCKSOURCE(huart, clocksource);
 8004e6c:	42aa      	cmp	r2, r5
 8004e6e:	d10f      	bne.n	8004e90 <UART_SetConfig+0xb8>
 8004e70:	21c0      	movs	r1, #192	; 0xc0
 8004e72:	2080      	movs	r0, #128	; 0x80
 8004e74:	4a55      	ldr	r2, [pc, #340]	; (8004fcc <UART_SetConfig+0x1f4>)
 8004e76:	0109      	lsls	r1, r1, #4
 8004e78:	6cd3      	ldr	r3, [r2, #76]	; 0x4c
 8004e7a:	0100      	lsls	r0, r0, #4
 8004e7c:	400b      	ands	r3, r1
 8004e7e:	4283      	cmp	r3, r0
 8004e80:	d016      	beq.n	8004eb0 <UART_SetConfig+0xd8>
 8004e82:	d807      	bhi.n	8004e94 <UART_SetConfig+0xbc>
 8004e84:	2b00      	cmp	r3, #0
 8004e86:	d00a      	beq.n	8004e9e <UART_SetConfig+0xc6>
 8004e88:	2280      	movs	r2, #128	; 0x80
 8004e8a:	00d2      	lsls	r2, r2, #3
 8004e8c:	4293      	cmp	r3, r2
 8004e8e:	d035      	beq.n	8004efc <UART_SetConfig+0x124>
  else if (huart->Init.OverSampling == UART_OVERSAMPLING_8)
 8004e90:	2001      	movs	r0, #1
 8004e92:	e009      	b.n	8004ea8 <UART_SetConfig+0xd0>
  UART_GETCLOCKSOURCE(huart, clocksource);
 8004e94:	428b      	cmp	r3, r1
 8004e96:	d1fb      	bne.n	8004e90 <UART_SetConfig+0xb8>
 8004e98:	2080      	movs	r0, #128	; 0x80
 8004e9a:	0200      	lsls	r0, r0, #8
 8004e9c:	e012      	b.n	8004ec4 <UART_SetConfig+0xec>
        pclk = HAL_RCC_GetPCLK1Freq();
 8004e9e:	f7ff fcc3 	bl	8004828 <HAL_RCC_GetPCLK1Freq>
    if (pclk != 0U)
 8004ea2:	2800      	cmp	r0, #0
 8004ea4:	d10e      	bne.n	8004ec4 <UART_SetConfig+0xec>
 8004ea6:	2000      	movs	r0, #0
  huart->RxISR = NULL;
 8004ea8:	2300      	movs	r3, #0
 8004eaa:	66a3      	str	r3, [r4, #104]	; 0x68
  huart->TxISR = NULL;
 8004eac:	66e3      	str	r3, [r4, #108]	; 0x6c
}
 8004eae:	bdf8      	pop	{r3, r4, r5, r6, r7, pc}
        if (__HAL_RCC_GET_FLAG(RCC_FLAG_HSIDIV) != 0U)
 8004eb0:	2310      	movs	r3, #16
 8004eb2:	6810      	ldr	r0, [r2, #0]
 8004eb4:	4018      	ands	r0, r3
          pclk = (uint32_t)(HSI_VALUE >> 2U);
 8004eb6:	4243      	negs	r3, r0
 8004eb8:	4158      	adcs	r0, r3
 8004eba:	4b48      	ldr	r3, [pc, #288]	; (8004fdc <UART_SetConfig+0x204>)
 8004ebc:	4240      	negs	r0, r0
 8004ebe:	4018      	ands	r0, r3
 8004ec0:	4b47      	ldr	r3, [pc, #284]	; (8004fe0 <UART_SetConfig+0x208>)
 8004ec2:	18c0      	adds	r0, r0, r3
      if ((pclk < (3U * huart->Init.BaudRate)) ||
 8004ec4:	2203      	movs	r2, #3
 8004ec6:	6863      	ldr	r3, [r4, #4]
 8004ec8:	435a      	muls	r2, r3
 8004eca:	4282      	cmp	r2, r0
 8004ecc:	d8e0      	bhi.n	8004e90 <UART_SetConfig+0xb8>
          (pclk > (4096U * huart->Init.BaudRate)))
 8004ece:	031a      	lsls	r2, r3, #12
      if ((pclk < (3U * huart->Init.BaudRate)) ||
 8004ed0:	4282      	cmp	r2, r0
 8004ed2:	d3dd      	bcc.n	8004e90 <UART_SetConfig+0xb8>
        usartdiv = (uint32_t)(UART_DIV_LPUART(pclk, huart->Init.BaudRate));
 8004ed4:	2700      	movs	r7, #0
 8004ed6:	0e02      	lsrs	r2, r0, #24
 8004ed8:	0201      	lsls	r1, r0, #8
 8004eda:	085e      	lsrs	r6, r3, #1
 8004edc:	1989      	adds	r1, r1, r6
 8004ede:	417a      	adcs	r2, r7
 8004ee0:	0008      	movs	r0, r1
 8004ee2:	0011      	movs	r1, r2
 8004ee4:	001a      	movs	r2, r3
 8004ee6:	003b      	movs	r3, r7
 8004ee8:	f7fb faa0 	bl	800042c <__aeabi_uldivmod>
        if ((usartdiv >= LPUART_BRR_MIN) && (usartdiv <= LPUART_BRR_MAX))
 8004eec:	4b3d      	ldr	r3, [pc, #244]	; (8004fe4 <UART_SetConfig+0x20c>)
 8004eee:	18c2      	adds	r2, r0, r3
 8004ef0:	4b3d      	ldr	r3, [pc, #244]	; (8004fe8 <UART_SetConfig+0x210>)
      if ((usartdiv >= UART_BRR_MIN) && (usartdiv <= UART_BRR_MAX))
 8004ef2:	429a      	cmp	r2, r3
 8004ef4:	d8cc      	bhi.n	8004e90 <UART_SetConfig+0xb8>
        huart->Instance->BRR = (uint16_t)usartdiv;
 8004ef6:	6823      	ldr	r3, [r4, #0]
 8004ef8:	60d8      	str	r0, [r3, #12]
 8004efa:	e7d4      	b.n	8004ea6 <UART_SetConfig+0xce>
        pclk = HAL_RCC_GetSysClockFreq();
 8004efc:	f7ff f8fc 	bl	80040f8 <HAL_RCC_GetSysClockFreq>
        break;
 8004f00:	e7cf      	b.n	8004ea2 <UART_SetConfig+0xca>
        pclk = HAL_RCC_GetPCLK1Freq();
 8004f02:	f7ff fc91 	bl	8004828 <HAL_RCC_GetPCLK1Freq>
        pclk = HAL_RCC_GetSysClockFreq();
 8004f06:	1e03      	subs	r3, r0, #0
    if (pclk != 0U)
 8004f08:	d0cd      	beq.n	8004ea6 <UART_SetConfig+0xce>
 8004f0a:	e00d      	b.n	8004f28 <UART_SetConfig+0x150>
        pclk = HAL_RCC_GetPCLK2Freq();
 8004f0c:	f7ff fc9c 	bl	8004848 <HAL_RCC_GetPCLK2Freq>
 8004f10:	e7f9      	b.n	8004f06 <UART_SetConfig+0x12e>
        if (__HAL_RCC_GET_FLAG(RCC_FLAG_HSIDIV) != 0U)
 8004f12:	4b2e      	ldr	r3, [pc, #184]	; (8004fcc <UART_SetConfig+0x1f4>)
          pclk = (uint32_t)(HSI_VALUE >> 2U);
 8004f14:	4a32      	ldr	r2, [pc, #200]	; (8004fe0 <UART_SetConfig+0x208>)
        if (__HAL_RCC_GET_FLAG(RCC_FLAG_HSIDIV) != 0U)
 8004f16:	6818      	ldr	r0, [r3, #0]
 8004f18:	2310      	movs	r3, #16
 8004f1a:	4018      	ands	r0, r3
          pclk = (uint32_t)(HSI_VALUE >> 2U);
 8004f1c:	4243      	negs	r3, r0
 8004f1e:	4158      	adcs	r0, r3
 8004f20:	4b2e      	ldr	r3, [pc, #184]	; (8004fdc <UART_SetConfig+0x204>)
 8004f22:	4240      	negs	r0, r0
 8004f24:	4003      	ands	r3, r0
 8004f26:	189b      	adds	r3, r3, r2
      usartdiv = (uint32_t)(UART_DIV_SAMPLING8(pclk, huart->Init.BaudRate));
 8004f28:	0058      	lsls	r0, r3, #1
 8004f2a:	6863      	ldr	r3, [r4, #4]
 8004f2c:	6861      	ldr	r1, [r4, #4]
 8004f2e:	085b      	lsrs	r3, r3, #1
 8004f30:	18c0      	adds	r0, r0, r3
 8004f32:	f7fb f905 	bl	8000140 <__udivsi3>
      if ((usartdiv >= UART_BRR_MIN) && (usartdiv <= UART_BRR_MAX))
 8004f36:	0002      	movs	r2, r0
 8004f38:	4b2c      	ldr	r3, [pc, #176]	; (8004fec <UART_SetConfig+0x214>)
 8004f3a:	3a10      	subs	r2, #16
 8004f3c:	429a      	cmp	r2, r3
 8004f3e:	d8a7      	bhi.n	8004e90 <UART_SetConfig+0xb8>
        brrtemp = (uint16_t)(usartdiv & 0xFFF0U);
 8004f40:	230f      	movs	r3, #15
 8004f42:	0002      	movs	r2, r0
        brrtemp |= (uint16_t)((usartdiv & (uint16_t)0x000FU) >> 1U);
 8004f44:	0700      	lsls	r0, r0, #28
        brrtemp = (uint16_t)(usartdiv & 0xFFF0U);
 8004f46:	439a      	bics	r2, r3
 8004f48:	b293      	uxth	r3, r2
        brrtemp |= (uint16_t)((usartdiv & (uint16_t)0x000FU) >> 1U);
 8004f4a:	0f40      	lsrs	r0, r0, #29
        huart->Instance->BRR = brrtemp;
 8004f4c:	6822      	ldr	r2, [r4, #0]
 8004f4e:	4318      	orrs	r0, r3
 8004f50:	60d0      	str	r0, [r2, #12]
 8004f52:	e7a8      	b.n	8004ea6 <UART_SetConfig+0xce>
        pclk = HAL_RCC_GetSysClockFreq();
 8004f54:	f7ff f8d0 	bl	80040f8 <HAL_RCC_GetSysClockFreq>
 8004f58:	e7d5      	b.n	8004f06 <UART_SetConfig+0x12e>
    switch (clocksource)
 8004f5a:	2808      	cmp	r0, #8
 8004f5c:	d898      	bhi.n	8004e90 <UART_SetConfig+0xb8>
 8004f5e:	f7fb f8e5 	bl	800012c <__gnu_thumb1_case_shi>
 8004f62:	0009      	.short	0x0009
 8004f64:	000fff6b 	.word	0x000fff6b
 8004f68:	0024ff97 	.word	0x0024ff97
 8004f6c:	ff97ff97 	.word	0xff97ff97
 8004f70:	0027ff97 	.word	0x0027ff97
        pclk = HAL_RCC_GetPCLK1Freq();
 8004f74:	f7ff fc58 	bl	8004828 <HAL_RCC_GetPCLK1Freq>
    if (pclk != 0U)
 8004f78:	2800      	cmp	r0, #0
 8004f7a:	d100      	bne.n	8004f7e <UART_SetConfig+0x1a6>
 8004f7c:	e793      	b.n	8004ea6 <UART_SetConfig+0xce>
 8004f7e:	e00a      	b.n	8004f96 <UART_SetConfig+0x1be>
        if (__HAL_RCC_GET_FLAG(RCC_FLAG_HSIDIV) != 0U)
 8004f80:	4b12      	ldr	r3, [pc, #72]	; (8004fcc <UART_SetConfig+0x1f4>)
 8004f82:	6818      	ldr	r0, [r3, #0]
 8004f84:	2310      	movs	r3, #16
 8004f86:	4018      	ands	r0, r3
          pclk = (uint32_t)(HSI_VALUE >> 2U);
 8004f88:	4243      	negs	r3, r0
 8004f8a:	4158      	adcs	r0, r3
 8004f8c:	4b13      	ldr	r3, [pc, #76]	; (8004fdc <UART_SetConfig+0x204>)
 8004f8e:	4240      	negs	r0, r0
 8004f90:	4018      	ands	r0, r3
 8004f92:	4b13      	ldr	r3, [pc, #76]	; (8004fe0 <UART_SetConfig+0x208>)
 8004f94:	18c0      	adds	r0, r0, r3
      usartdiv = (uint32_t)(UART_DIV_SAMPLING16(pclk, huart->Init.BaudRate));
 8004f96:	6863      	ldr	r3, [r4, #4]
 8004f98:	6861      	ldr	r1, [r4, #4]
 8004f9a:	085b      	lsrs	r3, r3, #1
 8004f9c:	1818      	adds	r0, r3, r0
 8004f9e:	f7fb f8cf 	bl	8000140 <__udivsi3>
      if ((usartdiv >= UART_BRR_MIN) && (usartdiv <= UART_BRR_MAX))
 8004fa2:	0002      	movs	r2, r0
 8004fa4:	4b11      	ldr	r3, [pc, #68]	; (8004fec <UART_SetConfig+0x214>)
 8004fa6:	3a10      	subs	r2, #16
 8004fa8:	e7a3      	b.n	8004ef2 <UART_SetConfig+0x11a>
        pclk = HAL_RCC_GetSysClockFreq();
 8004faa:	f7ff f8a5 	bl	80040f8 <HAL_RCC_GetSysClockFreq>
        break;
 8004fae:	e7e3      	b.n	8004f78 <UART_SetConfig+0x1a0>
    switch (clocksource)
 8004fb0:	2080      	movs	r0, #128	; 0x80
 8004fb2:	0200      	lsls	r0, r0, #8
 8004fb4:	e7ef      	b.n	8004f96 <UART_SetConfig+0x1be>
 8004fb6:	46c0      	nop			; (mov r8, r8)
 8004fb8:	efff69f3 	.word	0xefff69f3
 8004fbc:	ffffcfff 	.word	0xffffcfff
 8004fc0:	40004800 	.word	0x40004800
 8004fc4:	fffff4ff 	.word	0xfffff4ff
 8004fc8:	40013800 	.word	0x40013800
 8004fcc:	40021000 	.word	0x40021000
 8004fd0:	080061a6 	.word	0x080061a6
 8004fd4:	40004400 	.word	0x40004400
 8004fd8:	080061a9 	.word	0x080061a9
 8004fdc:	00b71b00 	.word	0x00b71b00
 8004fe0:	003d0900 	.word	0x003d0900
 8004fe4:	fffffd00 	.word	0xfffffd00
 8004fe8:	000ffcff 	.word	0x000ffcff
 8004fec:	0000ffef 	.word	0x0000ffef

08004ff0 <UART_AdvFeatureConfig>:
  if (HAL_IS_BIT_SET(huart->AdvancedInit.AdvFeatureInit, UART_ADVFEATURE_TXINVERT_INIT))
 8004ff0:	6a43      	ldr	r3, [r0, #36]	; 0x24
{
 8004ff2:	b530      	push	{r4, r5, lr}
  if (HAL_IS_BIT_SET(huart->AdvancedInit.AdvFeatureInit, UART_ADVFEATURE_TXINVERT_INIT))
 8004ff4:	07da      	lsls	r2, r3, #31
 8004ff6:	d506      	bpl.n	8005006 <UART_AdvFeatureConfig+0x16>
    MODIFY_REG(huart->Instance->CR2, USART_CR2_TXINV, huart->AdvancedInit.TxPinLevelInvert);
 8004ff8:	6801      	ldr	r1, [r0, #0]
 8004ffa:	4c28      	ldr	r4, [pc, #160]	; (800509c <UART_AdvFeatureConfig+0xac>)
 8004ffc:	684a      	ldr	r2, [r1, #4]
 8004ffe:	4022      	ands	r2, r4
 8005000:	6a84      	ldr	r4, [r0, #40]	; 0x28
 8005002:	4322      	orrs	r2, r4
 8005004:	604a      	str	r2, [r1, #4]
  if (HAL_IS_BIT_SET(huart->AdvancedInit.AdvFeatureInit, UART_ADVFEATURE_RXINVERT_INIT))
 8005006:	079a      	lsls	r2, r3, #30
 8005008:	d506      	bpl.n	8005018 <UART_AdvFeatureConfig+0x28>
    MODIFY_REG(huart->Instance->CR2, USART_CR2_RXINV, huart->AdvancedInit.RxPinLevelInvert);
 800500a:	6801      	ldr	r1, [r0, #0]
 800500c:	4c24      	ldr	r4, [pc, #144]	; (80050a0 <UART_AdvFeatureConfig+0xb0>)
 800500e:	684a      	ldr	r2, [r1, #4]
 8005010:	4022      	ands	r2, r4
 8005012:	6ac4      	ldr	r4, [r0, #44]	; 0x2c
 8005014:	4322      	orrs	r2, r4
 8005016:	604a      	str	r2, [r1, #4]
  if (HAL_IS_BIT_SET(huart->AdvancedInit.AdvFeatureInit, UART_ADVFEATURE_DATAINVERT_INIT))
 8005018:	075a      	lsls	r2, r3, #29
 800501a:	d506      	bpl.n	800502a <UART_AdvFeatureConfig+0x3a>
    MODIFY_REG(huart->Instance->CR2, USART_CR2_DATAINV, huart->AdvancedInit.DataInvert);
 800501c:	6801      	ldr	r1, [r0, #0]
 800501e:	4c21      	ldr	r4, [pc, #132]	; (80050a4 <UART_AdvFeatureConfig+0xb4>)
 8005020:	684a      	ldr	r2, [r1, #4]
 8005022:	4022      	ands	r2, r4
 8005024:	6b04      	ldr	r4, [r0, #48]	; 0x30
 8005026:	4322      	orrs	r2, r4
 8005028:	604a      	str	r2, [r1, #4]
  if (HAL_IS_BIT_SET(huart->AdvancedInit.AdvFeatureInit, UART_ADVFEATURE_SWAP_INIT))
 800502a:	071a      	lsls	r2, r3, #28
 800502c:	d506      	bpl.n	800503c <UART_AdvFeatureConfig+0x4c>
    MODIFY_REG(huart->Instance->CR2, USART_CR2_SWAP, huart->AdvancedInit.Swap);
 800502e:	6801      	ldr	r1, [r0, #0]
 8005030:	4c1d      	ldr	r4, [pc, #116]	; (80050a8 <UART_AdvFeatureConfig+0xb8>)
 8005032:	684a      	ldr	r2, [r1, #4]
 8005034:	4022      	ands	r2, r4
 8005036:	6b44      	ldr	r4, [r0, #52]	; 0x34
 8005038:	4322      	orrs	r2, r4
 800503a:	604a      	str	r2, [r1, #4]
  if (HAL_IS_BIT_SET(huart->AdvancedInit.AdvFeatureInit, UART_ADVFEATURE_RXOVERRUNDISABLE_INIT))
 800503c:	06da      	lsls	r2, r3, #27
 800503e:	d506      	bpl.n	800504e <UART_AdvFeatureConfig+0x5e>
    MODIFY_REG(huart->Instance->CR3, USART_CR3_OVRDIS, huart->AdvancedInit.OverrunDisable);
 8005040:	6801      	ldr	r1, [r0, #0]
 8005042:	4c1a      	ldr	r4, [pc, #104]	; (80050ac <UART_AdvFeatureConfig+0xbc>)
 8005044:	688a      	ldr	r2, [r1, #8]
 8005046:	4022      	ands	r2, r4
 8005048:	6b84      	ldr	r4, [r0, #56]	; 0x38
 800504a:	4322      	orrs	r2, r4
 800504c:	608a      	str	r2, [r1, #8]
  if (HAL_IS_BIT_SET(huart->AdvancedInit.AdvFeatureInit, UART_ADVFEATURE_DMADISABLEONERROR_INIT))
 800504e:	069a      	lsls	r2, r3, #26
 8005050:	d506      	bpl.n	8005060 <UART_AdvFeatureConfig+0x70>
    MODIFY_REG(huart->Instance->CR3, USART_CR3_DDRE, huart->AdvancedInit.DMADisableonRxError);
 8005052:	6801      	ldr	r1, [r0, #0]
 8005054:	4c16      	ldr	r4, [pc, #88]	; (80050b0 <UART_AdvFeatureConfig+0xc0>)
 8005056:	688a      	ldr	r2, [r1, #8]
 8005058:	4022      	ands	r2, r4
 800505a:	6bc4      	ldr	r4, [r0, #60]	; 0x3c
 800505c:	4322      	orrs	r2, r4
 800505e:	608a      	str	r2, [r1, #8]
  if (HAL_IS_BIT_SET(huart->AdvancedInit.AdvFeatureInit, UART_ADVFEATURE_AUTOBAUDRATE_INIT))
 8005060:	065a      	lsls	r2, r3, #25
 8005062:	d510      	bpl.n	8005086 <UART_AdvFeatureConfig+0x96>
    MODIFY_REG(huart->Instance->CR2, USART_CR2_ABREN, huart->AdvancedInit.AutoBaudRateEnable);
 8005064:	6801      	ldr	r1, [r0, #0]
 8005066:	4d13      	ldr	r5, [pc, #76]	; (80050b4 <UART_AdvFeatureConfig+0xc4>)
 8005068:	684a      	ldr	r2, [r1, #4]
 800506a:	6c04      	ldr	r4, [r0, #64]	; 0x40
 800506c:	402a      	ands	r2, r5
 800506e:	4322      	orrs	r2, r4
 8005070:	604a      	str	r2, [r1, #4]
    if (huart->AdvancedInit.AutoBaudRateEnable == UART_ADVFEATURE_AUTOBAUDRATE_ENABLE)
 8005072:	2280      	movs	r2, #128	; 0x80
 8005074:	0352      	lsls	r2, r2, #13
 8005076:	4294      	cmp	r4, r2
 8005078:	d105      	bne.n	8005086 <UART_AdvFeatureConfig+0x96>
      MODIFY_REG(huart->Instance->CR2, USART_CR2_ABRMODE, huart->AdvancedInit.AutoBaudRateMode);
 800507a:	684a      	ldr	r2, [r1, #4]
 800507c:	4c0e      	ldr	r4, [pc, #56]	; (80050b8 <UART_AdvFeatureConfig+0xc8>)
 800507e:	4022      	ands	r2, r4
 8005080:	6c44      	ldr	r4, [r0, #68]	; 0x44
 8005082:	4322      	orrs	r2, r4
 8005084:	604a      	str	r2, [r1, #4]
  if (HAL_IS_BIT_SET(huart->AdvancedInit.AdvFeatureInit, UART_ADVFEATURE_MSBFIRST_INIT))
 8005086:	061b      	lsls	r3, r3, #24
 8005088:	d506      	bpl.n	8005098 <UART_AdvFeatureConfig+0xa8>
    MODIFY_REG(huart->Instance->CR2, USART_CR2_MSBFIRST, huart->AdvancedInit.MSBFirst);
 800508a:	6802      	ldr	r2, [r0, #0]
 800508c:	490b      	ldr	r1, [pc, #44]	; (80050bc <UART_AdvFeatureConfig+0xcc>)
 800508e:	6853      	ldr	r3, [r2, #4]
 8005090:	400b      	ands	r3, r1
 8005092:	6c81      	ldr	r1, [r0, #72]	; 0x48
 8005094:	430b      	orrs	r3, r1
 8005096:	6053      	str	r3, [r2, #4]
}
 8005098:	bd30      	pop	{r4, r5, pc}
 800509a:	46c0      	nop			; (mov r8, r8)
 800509c:	fffdffff 	.word	0xfffdffff
 80050a0:	fffeffff 	.word	0xfffeffff
 80050a4:	fffbffff 	.word	0xfffbffff
 80050a8:	ffff7fff 	.word	0xffff7fff
 80050ac:	ffffefff 	.word	0xffffefff
 80050b0:	ffffdfff 	.word	0xffffdfff
 80050b4:	ffefffff 	.word	0xffefffff
 80050b8:	ff9fffff 	.word	0xff9fffff
 80050bc:	fff7ffff 	.word	0xfff7ffff

080050c0 <UART_WaitOnFlagUntilTimeout>:
{
 80050c0:	b5f7      	push	{r0, r1, r2, r4, r5, r6, r7, lr}
 80050c2:	0004      	movs	r4, r0
 80050c4:	000d      	movs	r5, r1
 80050c6:	0017      	movs	r7, r2
        if (__HAL_UART_GET_FLAG(huart, UART_FLAG_ORE) == SET)
 80050c8:	2608      	movs	r6, #8
{
 80050ca:	9300      	str	r3, [sp, #0]
  while ((__HAL_UART_GET_FLAG(huart, Flag) ? SET : RESET) == Status)
 80050cc:	6822      	ldr	r2, [r4, #0]
 80050ce:	69d3      	ldr	r3, [r2, #28]
 80050d0:	402b      	ands	r3, r5
 80050d2:	1b5b      	subs	r3, r3, r5
 80050d4:	4259      	negs	r1, r3
 80050d6:	414b      	adcs	r3, r1
 80050d8:	42bb      	cmp	r3, r7
 80050da:	d001      	beq.n	80050e0 <UART_WaitOnFlagUntilTimeout+0x20>
  return HAL_OK;
 80050dc:	2000      	movs	r0, #0
 80050de:	e021      	b.n	8005124 <UART_WaitOnFlagUntilTimeout+0x64>
    if (Timeout != HAL_MAX_DELAY)
 80050e0:	9b08      	ldr	r3, [sp, #32]
 80050e2:	3301      	adds	r3, #1
 80050e4:	d0f3      	beq.n	80050ce <UART_WaitOnFlagUntilTimeout+0xe>
      if (((HAL_GetTick() - Tickstart) > Timeout) || (Timeout == 0U))
 80050e6:	f7fe f9db 	bl	80034a0 <HAL_GetTick>
 80050ea:	9b00      	ldr	r3, [sp, #0]
 80050ec:	1ac0      	subs	r0, r0, r3
 80050ee:	9b08      	ldr	r3, [sp, #32]
 80050f0:	4298      	cmp	r0, r3
 80050f2:	d828      	bhi.n	8005146 <UART_WaitOnFlagUntilTimeout+0x86>
 80050f4:	2b00      	cmp	r3, #0
 80050f6:	d026      	beq.n	8005146 <UART_WaitOnFlagUntilTimeout+0x86>
      if (READ_BIT(huart->Instance->CR1, USART_CR1_RE) != 0U)
 80050f8:	2104      	movs	r1, #4
 80050fa:	6823      	ldr	r3, [r4, #0]
 80050fc:	681a      	ldr	r2, [r3, #0]
 80050fe:	420a      	tst	r2, r1
 8005100:	d0e4      	beq.n	80050cc <UART_WaitOnFlagUntilTimeout+0xc>
        if (__HAL_UART_GET_FLAG(huart, UART_FLAG_ORE) == SET)
 8005102:	69da      	ldr	r2, [r3, #28]
 8005104:	0011      	movs	r1, r2
 8005106:	4031      	ands	r1, r6
 8005108:	9101      	str	r1, [sp, #4]
 800510a:	4232      	tst	r2, r6
 800510c:	d00b      	beq.n	8005126 <UART_WaitOnFlagUntilTimeout+0x66>
           UART_EndRxTransfer(huart);
 800510e:	0020      	movs	r0, r4
           __HAL_UART_CLEAR_FLAG(huart, UART_CLEAR_OREF);
 8005110:	621e      	str	r6, [r3, #32]
           UART_EndRxTransfer(huart);
 8005112:	f7ff fe33 	bl	8004d7c <UART_EndRxTransfer>
           huart->ErrorCode = HAL_UART_ERROR_ORE;
 8005116:	0023      	movs	r3, r4
 8005118:	3308      	adds	r3, #8
 800511a:	67de      	str	r6, [r3, #124]	; 0x7c
           __HAL_UNLOCK(huart);
 800511c:	2300      	movs	r3, #0
           return HAL_ERROR;
 800511e:	2001      	movs	r0, #1
           __HAL_UNLOCK(huart);
 8005120:	3478      	adds	r4, #120	; 0x78
 8005122:	7023      	strb	r3, [r4, #0]
}
 8005124:	bdfe      	pop	{r1, r2, r3, r4, r5, r6, r7, pc}
        if (__HAL_UART_GET_FLAG(huart, UART_FLAG_RTOF) == SET)
 8005126:	2280      	movs	r2, #128	; 0x80
 8005128:	69d9      	ldr	r1, [r3, #28]
 800512a:	0112      	lsls	r2, r2, #4
 800512c:	4211      	tst	r1, r2
 800512e:	d0cd      	beq.n	80050cc <UART_WaitOnFlagUntilTimeout+0xc>
          __HAL_UART_CLEAR_FLAG(huart, UART_CLEAR_RTOF);
 8005130:	621a      	str	r2, [r3, #32]
          UART_EndRxTransfer(huart);
 8005132:	0020      	movs	r0, r4
 8005134:	f7ff fe22 	bl	8004d7c <UART_EndRxTransfer>
          huart->ErrorCode = HAL_UART_ERROR_RTO;
 8005138:	0023      	movs	r3, r4
 800513a:	2220      	movs	r2, #32
 800513c:	3308      	adds	r3, #8
 800513e:	67da      	str	r2, [r3, #124]	; 0x7c
          __HAL_UNLOCK(huart);
 8005140:	9b01      	ldr	r3, [sp, #4]
 8005142:	3478      	adds	r4, #120	; 0x78
 8005144:	7023      	strb	r3, [r4, #0]
        return HAL_TIMEOUT;
 8005146:	2003      	movs	r0, #3
 8005148:	e7ec      	b.n	8005124 <UART_WaitOnFlagUntilTimeout+0x64>

0800514a <HAL_UART_Transmit>:
{
 800514a:	b5f0      	push	{r4, r5, r6, r7, lr}
 800514c:	b085      	sub	sp, #20
 800514e:	9303      	str	r3, [sp, #12]
  if (huart->gState == HAL_UART_STATE_READY)
 8005150:	6fc3      	ldr	r3, [r0, #124]	; 0x7c
{
 8005152:	0004      	movs	r4, r0
 8005154:	000d      	movs	r5, r1
 8005156:	0016      	movs	r6, r2
    return HAL_BUSY;
 8005158:	2002      	movs	r0, #2
  if (huart->gState == HAL_UART_STATE_READY)
 800515a:	2b20      	cmp	r3, #32
 800515c:	d139      	bne.n	80051d2 <HAL_UART_Transmit+0x88>
      return  HAL_ERROR;
 800515e:	3801      	subs	r0, #1
    if ((pData == NULL) || (Size == 0U))
 8005160:	2900      	cmp	r1, #0
 8005162:	d036      	beq.n	80051d2 <HAL_UART_Transmit+0x88>
 8005164:	2a00      	cmp	r2, #0
 8005166:	d034      	beq.n	80051d2 <HAL_UART_Transmit+0x88>
    if ((huart->Init.WordLength == UART_WORDLENGTH_9B) && (huart->Init.Parity == UART_PARITY_NONE))
 8005168:	2380      	movs	r3, #128	; 0x80
 800516a:	68a2      	ldr	r2, [r4, #8]
 800516c:	015b      	lsls	r3, r3, #5
 800516e:	429a      	cmp	r2, r3
 8005170:	d104      	bne.n	800517c <HAL_UART_Transmit+0x32>
 8005172:	6923      	ldr	r3, [r4, #16]
 8005174:	2b00      	cmp	r3, #0
 8005176:	d101      	bne.n	800517c <HAL_UART_Transmit+0x32>
      if ((((uint32_t)pData) & 1U) != 0U)
 8005178:	4201      	tst	r1, r0
 800517a:	d12a      	bne.n	80051d2 <HAL_UART_Transmit+0x88>
    huart->ErrorCode = HAL_UART_ERROR_NONE;
 800517c:	0023      	movs	r3, r4
 800517e:	2200      	movs	r2, #0
 8005180:	3308      	adds	r3, #8
 8005182:	67da      	str	r2, [r3, #124]	; 0x7c
    huart->gState = HAL_UART_STATE_BUSY_TX;
 8005184:	2321      	movs	r3, #33	; 0x21
 8005186:	67e3      	str	r3, [r4, #124]	; 0x7c
    tickstart = HAL_GetTick();
 8005188:	f7fe f98a 	bl	80034a0 <HAL_GetTick>
    huart->TxXferSize  = Size;
 800518c:	0023      	movs	r3, r4
 800518e:	3350      	adds	r3, #80	; 0x50
 8005190:	801e      	strh	r6, [r3, #0]
    huart->TxXferCount = Size;
 8005192:	3302      	adds	r3, #2
 8005194:	801e      	strh	r6, [r3, #0]
 8005196:	9302      	str	r3, [sp, #8]
    if ((huart->Init.WordLength == UART_WORDLENGTH_9B) && (huart->Init.Parity == UART_PARITY_NONE))
 8005198:	2380      	movs	r3, #128	; 0x80
 800519a:	68a2      	ldr	r2, [r4, #8]
    tickstart = HAL_GetTick();
 800519c:	0007      	movs	r7, r0
      pdata16bits = NULL;
 800519e:	2600      	movs	r6, #0
    if ((huart->Init.WordLength == UART_WORDLENGTH_9B) && (huart->Init.Parity == UART_PARITY_NONE))
 80051a0:	015b      	lsls	r3, r3, #5
 80051a2:	429a      	cmp	r2, r3
 80051a4:	d104      	bne.n	80051b0 <HAL_UART_Transmit+0x66>
 80051a6:	6923      	ldr	r3, [r4, #16]
 80051a8:	42b3      	cmp	r3, r6
 80051aa:	d101      	bne.n	80051b0 <HAL_UART_Transmit+0x66>
 80051ac:	002e      	movs	r6, r5
      pdata8bits  = NULL;
 80051ae:	001d      	movs	r5, r3
    while (huart->TxXferCount > 0U)
 80051b0:	0023      	movs	r3, r4
 80051b2:	3352      	adds	r3, #82	; 0x52
 80051b4:	881b      	ldrh	r3, [r3, #0]
 80051b6:	b29a      	uxth	r2, r3
 80051b8:	2b00      	cmp	r3, #0
 80051ba:	d10c      	bne.n	80051d6 <HAL_UART_Transmit+0x8c>
    if (UART_WaitOnFlagUntilTimeout(huart, UART_FLAG_TC, RESET, tickstart, Timeout) != HAL_OK)
 80051bc:	9b03      	ldr	r3, [sp, #12]
 80051be:	2140      	movs	r1, #64	; 0x40
 80051c0:	9300      	str	r3, [sp, #0]
 80051c2:	0020      	movs	r0, r4
 80051c4:	003b      	movs	r3, r7
 80051c6:	f7ff ff7b 	bl	80050c0 <UART_WaitOnFlagUntilTimeout>
 80051ca:	2320      	movs	r3, #32
      huart->gState = HAL_UART_STATE_READY;
 80051cc:	67e3      	str	r3, [r4, #124]	; 0x7c
    if (UART_WaitOnFlagUntilTimeout(huart, UART_FLAG_TC, RESET, tickstart, Timeout) != HAL_OK)
 80051ce:	2800      	cmp	r0, #0
 80051d0:	d10d      	bne.n	80051ee <HAL_UART_Transmit+0xa4>
}
 80051d2:	b005      	add	sp, #20
 80051d4:	bdf0      	pop	{r4, r5, r6, r7, pc}
      if (UART_WaitOnFlagUntilTimeout(huart, UART_FLAG_TXE, RESET, tickstart, Timeout) != HAL_OK)
 80051d6:	9b03      	ldr	r3, [sp, #12]
 80051d8:	2200      	movs	r2, #0
 80051da:	9300      	str	r3, [sp, #0]
 80051dc:	2180      	movs	r1, #128	; 0x80
 80051de:	003b      	movs	r3, r7
 80051e0:	0020      	movs	r0, r4
 80051e2:	f7ff ff6d 	bl	80050c0 <UART_WaitOnFlagUntilTimeout>
 80051e6:	2800      	cmp	r0, #0
 80051e8:	d003      	beq.n	80051f2 <HAL_UART_Transmit+0xa8>
        huart->gState = HAL_UART_STATE_READY;
 80051ea:	2320      	movs	r3, #32
 80051ec:	67e3      	str	r3, [r4, #124]	; 0x7c
      return HAL_TIMEOUT;
 80051ee:	2003      	movs	r0, #3
 80051f0:	e7ef      	b.n	80051d2 <HAL_UART_Transmit+0x88>
        huart->Instance->TDR = (uint16_t)(*pdata16bits & 0x01FFU);
 80051f2:	6822      	ldr	r2, [r4, #0]
      if (pdata8bits == NULL)
 80051f4:	2d00      	cmp	r5, #0
 80051f6:	d10b      	bne.n	8005210 <HAL_UART_Transmit+0xc6>
        huart->Instance->TDR = (uint16_t)(*pdata16bits & 0x01FFU);
 80051f8:	8833      	ldrh	r3, [r6, #0]
        pdata16bits++;
 80051fa:	3602      	adds	r6, #2
        huart->Instance->TDR = (uint16_t)(*pdata16bits & 0x01FFU);
 80051fc:	05db      	lsls	r3, r3, #23
 80051fe:	0ddb      	lsrs	r3, r3, #23
 8005200:	6293      	str	r3, [r2, #40]	; 0x28
      huart->TxXferCount--;
 8005202:	9b02      	ldr	r3, [sp, #8]
 8005204:	9a02      	ldr	r2, [sp, #8]
 8005206:	881b      	ldrh	r3, [r3, #0]
 8005208:	3b01      	subs	r3, #1
 800520a:	b29b      	uxth	r3, r3
 800520c:	8013      	strh	r3, [r2, #0]
 800520e:	e7cf      	b.n	80051b0 <HAL_UART_Transmit+0x66>
        huart->Instance->TDR = (uint8_t)(*pdata8bits & 0xFFU);
 8005210:	782b      	ldrb	r3, [r5, #0]
        pdata8bits++;
 8005212:	3501      	adds	r5, #1
        huart->Instance->TDR = (uint8_t)(*pdata8bits & 0xFFU);
 8005214:	6293      	str	r3, [r2, #40]	; 0x28
        pdata8bits++;
 8005216:	e7f4      	b.n	8005202 <HAL_UART_Transmit+0xb8>

08005218 <HAL_UART_Receive>:
{
 8005218:	b5f0      	push	{r4, r5, r6, r7, lr}
 800521a:	0016      	movs	r6, r2
 800521c:	b087      	sub	sp, #28
  if (huart->RxState == HAL_UART_STATE_READY)
 800521e:	1d02      	adds	r2, r0, #4
{
 8005220:	9305      	str	r3, [sp, #20]
  if (huart->RxState == HAL_UART_STATE_READY)
 8005222:	6fd3      	ldr	r3, [r2, #124]	; 0x7c
{
 8005224:	0004      	movs	r4, r0
 8005226:	000d      	movs	r5, r1
    return HAL_BUSY;
 8005228:	2002      	movs	r0, #2
  if (huart->RxState == HAL_UART_STATE_READY)
 800522a:	2b20      	cmp	r3, #32
 800522c:	d160      	bne.n	80052f0 <HAL_UART_Receive+0xd8>
      return  HAL_ERROR;
 800522e:	3801      	subs	r0, #1
    if ((pData == NULL) || (Size == 0U))
 8005230:	2900      	cmp	r1, #0
 8005232:	d05d      	beq.n	80052f0 <HAL_UART_Receive+0xd8>
 8005234:	2e00      	cmp	r6, #0
 8005236:	d05b      	beq.n	80052f0 <HAL_UART_Receive+0xd8>
    if ((huart->Init.WordLength == UART_WORDLENGTH_9B) && (huart->Init.Parity == UART_PARITY_NONE))
 8005238:	2380      	movs	r3, #128	; 0x80
 800523a:	68a1      	ldr	r1, [r4, #8]
 800523c:	015b      	lsls	r3, r3, #5
 800523e:	4299      	cmp	r1, r3
 8005240:	d104      	bne.n	800524c <HAL_UART_Receive+0x34>
 8005242:	6923      	ldr	r3, [r4, #16]
 8005244:	2b00      	cmp	r3, #0
 8005246:	d101      	bne.n	800524c <HAL_UART_Receive+0x34>
      if ((((uint32_t)pData) & 1U) != 0U)
 8005248:	4205      	tst	r5, r0
 800524a:	d151      	bne.n	80052f0 <HAL_UART_Receive+0xd8>
    huart->ErrorCode = HAL_UART_ERROR_NONE;
 800524c:	0023      	movs	r3, r4
 800524e:	2700      	movs	r7, #0
 8005250:	3308      	adds	r3, #8
 8005252:	67df      	str	r7, [r3, #124]	; 0x7c
    huart->RxState = HAL_UART_STATE_BUSY_RX;
 8005254:	2322      	movs	r3, #34	; 0x22
 8005256:	67d3      	str	r3, [r2, #124]	; 0x7c
    huart->ReceptionType = HAL_UART_RECEPTION_STANDARD;
 8005258:	6627      	str	r7, [r4, #96]	; 0x60
    tickstart = HAL_GetTick();
 800525a:	f7fe f921 	bl	80034a0 <HAL_GetTick>
    huart->RxXferSize  = Size;
 800525e:	0023      	movs	r3, r4
    UART_MASK_COMPUTATION(huart);
 8005260:	2180      	movs	r1, #128	; 0x80
    huart->RxXferSize  = Size;
 8005262:	3358      	adds	r3, #88	; 0x58
    UART_MASK_COMPUTATION(huart);
 8005264:	68a2      	ldr	r2, [r4, #8]
    huart->RxXferSize  = Size;
 8005266:	801e      	strh	r6, [r3, #0]
    huart->RxXferCount = Size;
 8005268:	3302      	adds	r3, #2
 800526a:	9303      	str	r3, [sp, #12]
 800526c:	801e      	strh	r6, [r3, #0]
    tickstart = HAL_GetTick();
 800526e:	9004      	str	r0, [sp, #16]
    UART_MASK_COMPUTATION(huart);
 8005270:	0149      	lsls	r1, r1, #5
 8005272:	3302      	adds	r3, #2
 8005274:	428a      	cmp	r2, r1
 8005276:	d11b      	bne.n	80052b0 <HAL_UART_Receive+0x98>
 8005278:	6921      	ldr	r1, [r4, #16]
 800527a:	42b9      	cmp	r1, r7
 800527c:	d116      	bne.n	80052ac <HAL_UART_Receive+0x94>
 800527e:	4926      	ldr	r1, [pc, #152]	; (8005318 <HAL_UART_Receive+0x100>)
 8005280:	8019      	strh	r1, [r3, #0]
    uhMask = huart->Mask;
 8005282:	881f      	ldrh	r7, [r3, #0]
    if ((huart->Init.WordLength == UART_WORDLENGTH_9B) && (huart->Init.Parity == UART_PARITY_NONE))
 8005284:	2380      	movs	r3, #128	; 0x80
      pdata16bits = NULL;
 8005286:	2600      	movs	r6, #0
    if ((huart->Init.WordLength == UART_WORDLENGTH_9B) && (huart->Init.Parity == UART_PARITY_NONE))
 8005288:	015b      	lsls	r3, r3, #5
 800528a:	429a      	cmp	r2, r3
 800528c:	d104      	bne.n	8005298 <HAL_UART_Receive+0x80>
 800528e:	6923      	ldr	r3, [r4, #16]
 8005290:	42b3      	cmp	r3, r6
 8005292:	d101      	bne.n	8005298 <HAL_UART_Receive+0x80>
 8005294:	002e      	movs	r6, r5
      pdata8bits  = NULL;
 8005296:	001d      	movs	r5, r3
    while (huart->RxXferCount > 0U)
 8005298:	0023      	movs	r3, r4
 800529a:	335a      	adds	r3, #90	; 0x5a
 800529c:	881b      	ldrh	r3, [r3, #0]
 800529e:	b298      	uxth	r0, r3
 80052a0:	2b00      	cmp	r3, #0
 80052a2:	d117      	bne.n	80052d4 <HAL_UART_Receive+0xbc>
    huart->RxState = HAL_UART_STATE_READY;
 80052a4:	3404      	adds	r4, #4
 80052a6:	3320      	adds	r3, #32
 80052a8:	67e3      	str	r3, [r4, #124]	; 0x7c
    return HAL_OK;
 80052aa:	e021      	b.n	80052f0 <HAL_UART_Receive+0xd8>
    UART_MASK_COMPUTATION(huart);
 80052ac:	21ff      	movs	r1, #255	; 0xff
 80052ae:	e7e7      	b.n	8005280 <HAL_UART_Receive+0x68>
 80052b0:	2a00      	cmp	r2, #0
 80052b2:	d104      	bne.n	80052be <HAL_UART_Receive+0xa6>
 80052b4:	6921      	ldr	r1, [r4, #16]
 80052b6:	2900      	cmp	r1, #0
 80052b8:	d0f8      	beq.n	80052ac <HAL_UART_Receive+0x94>
 80052ba:	217f      	movs	r1, #127	; 0x7f
 80052bc:	e7e0      	b.n	8005280 <HAL_UART_Receive+0x68>
 80052be:	2180      	movs	r1, #128	; 0x80
 80052c0:	0549      	lsls	r1, r1, #21
 80052c2:	428a      	cmp	r2, r1
 80052c4:	d104      	bne.n	80052d0 <HAL_UART_Receive+0xb8>
 80052c6:	6921      	ldr	r1, [r4, #16]
 80052c8:	2900      	cmp	r1, #0
 80052ca:	d0f6      	beq.n	80052ba <HAL_UART_Receive+0xa2>
 80052cc:	213f      	movs	r1, #63	; 0x3f
 80052ce:	e7d7      	b.n	8005280 <HAL_UART_Receive+0x68>
 80052d0:	801f      	strh	r7, [r3, #0]
 80052d2:	e7d6      	b.n	8005282 <HAL_UART_Receive+0x6a>
      if (UART_WaitOnFlagUntilTimeout(huart, UART_FLAG_RXNE, RESET, tickstart, Timeout) != HAL_OK)
 80052d4:	9b05      	ldr	r3, [sp, #20]
 80052d6:	2200      	movs	r2, #0
 80052d8:	9300      	str	r3, [sp, #0]
 80052da:	2120      	movs	r1, #32
 80052dc:	0020      	movs	r0, r4
 80052de:	9b04      	ldr	r3, [sp, #16]
 80052e0:	f7ff feee 	bl	80050c0 <UART_WaitOnFlagUntilTimeout>
 80052e4:	2800      	cmp	r0, #0
 80052e6:	d005      	beq.n	80052f4 <HAL_UART_Receive+0xdc>
        huart->RxState = HAL_UART_STATE_READY;
 80052e8:	2320      	movs	r3, #32
        return HAL_TIMEOUT;
 80052ea:	2003      	movs	r0, #3
        huart->RxState = HAL_UART_STATE_READY;
 80052ec:	3404      	adds	r4, #4
 80052ee:	67e3      	str	r3, [r4, #124]	; 0x7c
}
 80052f0:	b007      	add	sp, #28
 80052f2:	bdf0      	pop	{r4, r5, r6, r7, pc}
        *pdata16bits = (uint16_t)(huart->Instance->RDR & uhMask);
 80052f4:	6823      	ldr	r3, [r4, #0]
 80052f6:	6a5b      	ldr	r3, [r3, #36]	; 0x24
 80052f8:	403b      	ands	r3, r7
      if (pdata8bits == NULL)
 80052fa:	2d00      	cmp	r5, #0
 80052fc:	d108      	bne.n	8005310 <HAL_UART_Receive+0xf8>
        *pdata16bits = (uint16_t)(huart->Instance->RDR & uhMask);
 80052fe:	8033      	strh	r3, [r6, #0]
        pdata16bits++;
 8005300:	3602      	adds	r6, #2
      huart->RxXferCount--;
 8005302:	9b03      	ldr	r3, [sp, #12]
 8005304:	9a03      	ldr	r2, [sp, #12]
 8005306:	881b      	ldrh	r3, [r3, #0]
 8005308:	3b01      	subs	r3, #1
 800530a:	b29b      	uxth	r3, r3
 800530c:	8013      	strh	r3, [r2, #0]
 800530e:	e7c3      	b.n	8005298 <HAL_UART_Receive+0x80>
        *pdata8bits = (uint8_t)(huart->Instance->RDR & (uint8_t)uhMask);
 8005310:	702b      	strb	r3, [r5, #0]
        pdata8bits++;
 8005312:	3501      	adds	r5, #1
 8005314:	e7f5      	b.n	8005302 <HAL_UART_Receive+0xea>
 8005316:	46c0      	nop			; (mov r8, r8)
 8005318:	000001ff 	.word	0x000001ff

0800531c <UART_CheckIdleState>:
  huart->ErrorCode = HAL_UART_ERROR_NONE;
 800531c:	0003      	movs	r3, r0
{
 800531e:	b5f7      	push	{r0, r1, r2, r4, r5, r6, r7, lr}
  huart->ErrorCode = HAL_UART_ERROR_NONE;
 8005320:	2500      	movs	r5, #0
{
 8005322:	0004      	movs	r4, r0
  huart->ErrorCode = HAL_UART_ERROR_NONE;
 8005324:	3308      	adds	r3, #8
 8005326:	67dd      	str	r5, [r3, #124]	; 0x7c
  tickstart = HAL_GetTick();
 8005328:	f7fe f8ba 	bl	80034a0 <HAL_GetTick>
 800532c:	0026      	movs	r6, r4
  if ((huart->Instance->CR1 & USART_CR1_TE) == USART_CR1_TE)
 800532e:	6823      	ldr	r3, [r4, #0]
  tickstart = HAL_GetTick();
 8005330:	0007      	movs	r7, r0
  if ((huart->Instance->CR1 & USART_CR1_TE) == USART_CR1_TE)
 8005332:	681b      	ldr	r3, [r3, #0]
 8005334:	3678      	adds	r6, #120	; 0x78
 8005336:	071b      	lsls	r3, r3, #28
 8005338:	d51b      	bpl.n	8005372 <UART_CheckIdleState+0x56>
    if (UART_WaitOnFlagUntilTimeout(huart, USART_ISR_TEACK, RESET, tickstart, HAL_UART_TIMEOUT_VALUE) != HAL_OK)
 800533a:	2180      	movs	r1, #128	; 0x80
 800533c:	4b26      	ldr	r3, [pc, #152]	; (80053d8 <UART_CheckIdleState+0xbc>)
 800533e:	002a      	movs	r2, r5
 8005340:	9300      	str	r3, [sp, #0]
 8005342:	0389      	lsls	r1, r1, #14
 8005344:	0003      	movs	r3, r0
 8005346:	0020      	movs	r0, r4
 8005348:	f7ff feba 	bl	80050c0 <UART_WaitOnFlagUntilTimeout>
 800534c:	42a8      	cmp	r0, r5
 800534e:	d010      	beq.n	8005372 <UART_CheckIdleState+0x56>
  __ASM volatile ("MRS %0, primask" : "=r" (result) :: "memory");
 8005350:	f3ef 8110 	mrs	r1, PRIMASK
  __ASM volatile ("MSR primask, %0" : : "r" (priMask) : "memory");
 8005354:	2301      	movs	r3, #1
 8005356:	f383 8810 	msr	PRIMASK, r3
      ATOMIC_CLEAR_BIT(huart->Instance->CR1, (USART_CR1_TXEIE));
 800535a:	2080      	movs	r0, #128	; 0x80
 800535c:	6822      	ldr	r2, [r4, #0]
 800535e:	6813      	ldr	r3, [r2, #0]
 8005360:	4383      	bics	r3, r0
 8005362:	6013      	str	r3, [r2, #0]
 8005364:	f381 8810 	msr	PRIMASK, r1
      huart->gState = HAL_UART_STATE_READY;
 8005368:	2320      	movs	r3, #32
 800536a:	67e3      	str	r3, [r4, #124]	; 0x7c
      __HAL_UNLOCK(huart);
 800536c:	7035      	strb	r5, [r6, #0]
      return HAL_TIMEOUT;
 800536e:	2003      	movs	r0, #3
}
 8005370:	bdfe      	pop	{r1, r2, r3, r4, r5, r6, r7, pc}
  if ((huart->Instance->CR1 & USART_CR1_RE) == USART_CR1_RE)
 8005372:	0025      	movs	r5, r4
 8005374:	cd08      	ldmia	r5!, {r3}
 8005376:	681b      	ldr	r3, [r3, #0]
 8005378:	075b      	lsls	r3, r3, #29
 800537a:	d525      	bpl.n	80053c8 <UART_CheckIdleState+0xac>
    if (UART_WaitOnFlagUntilTimeout(huart, USART_ISR_REACK, RESET, tickstart, HAL_UART_TIMEOUT_VALUE) != HAL_OK)
 800537c:	2180      	movs	r1, #128	; 0x80
 800537e:	4b16      	ldr	r3, [pc, #88]	; (80053d8 <UART_CheckIdleState+0xbc>)
 8005380:	2200      	movs	r2, #0
 8005382:	9300      	str	r3, [sp, #0]
 8005384:	0020      	movs	r0, r4
 8005386:	003b      	movs	r3, r7
 8005388:	03c9      	lsls	r1, r1, #15
 800538a:	f7ff fe99 	bl	80050c0 <UART_WaitOnFlagUntilTimeout>
 800538e:	2800      	cmp	r0, #0
 8005390:	d01a      	beq.n	80053c8 <UART_CheckIdleState+0xac>
  __ASM volatile ("MRS %0, primask" : "=r" (result) :: "memory");
 8005392:	f3ef 8010 	mrs	r0, PRIMASK
  __ASM volatile ("MSR primask, %0" : : "r" (priMask) : "memory");
 8005396:	2201      	movs	r2, #1
 8005398:	f382 8810 	msr	PRIMASK, r2
      ATOMIC_CLEAR_BIT(huart->Instance->CR1, (USART_CR1_RXNEIE | USART_CR1_PEIE));
 800539c:	6821      	ldr	r1, [r4, #0]
 800539e:	4f0f      	ldr	r7, [pc, #60]	; (80053dc <UART_CheckIdleState+0xc0>)
 80053a0:	680b      	ldr	r3, [r1, #0]
 80053a2:	403b      	ands	r3, r7
 80053a4:	600b      	str	r3, [r1, #0]
 80053a6:	f380 8810 	msr	PRIMASK, r0
  __ASM volatile ("MRS %0, primask" : "=r" (result) :: "memory");
 80053aa:	f3ef 8010 	mrs	r0, PRIMASK
  __ASM volatile ("MSR primask, %0" : : "r" (priMask) : "memory");
 80053ae:	f382 8810 	msr	PRIMASK, r2
      ATOMIC_CLEAR_BIT(huart->Instance->CR3, USART_CR3_EIE);
 80053b2:	6821      	ldr	r1, [r4, #0]
 80053b4:	688b      	ldr	r3, [r1, #8]
 80053b6:	4393      	bics	r3, r2
 80053b8:	608b      	str	r3, [r1, #8]
 80053ba:	f380 8810 	msr	PRIMASK, r0
      huart->RxState = HAL_UART_STATE_READY;
 80053be:	2320      	movs	r3, #32
 80053c0:	67eb      	str	r3, [r5, #124]	; 0x7c
      __HAL_UNLOCK(huart);
 80053c2:	2300      	movs	r3, #0
 80053c4:	7033      	strb	r3, [r6, #0]
 80053c6:	e7d2      	b.n	800536e <UART_CheckIdleState+0x52>
  huart->ReceptionType = HAL_UART_RECEPTION_STANDARD;
 80053c8:	2000      	movs	r0, #0
  huart->gState = HAL_UART_STATE_READY;
 80053ca:	2320      	movs	r3, #32
 80053cc:	67e3      	str	r3, [r4, #124]	; 0x7c
  huart->RxState = HAL_UART_STATE_READY;
 80053ce:	67eb      	str	r3, [r5, #124]	; 0x7c
  huart->ReceptionType = HAL_UART_RECEPTION_STANDARD;
 80053d0:	6620      	str	r0, [r4, #96]	; 0x60
  huart->RxEventType = HAL_UART_RXEVENT_TC;
 80053d2:	6660      	str	r0, [r4, #100]	; 0x64
  __HAL_UNLOCK(huart);
 80053d4:	7030      	strb	r0, [r6, #0]
  return HAL_OK;
 80053d6:	e7cb      	b.n	8005370 <UART_CheckIdleState+0x54>
 80053d8:	01ffffff 	.word	0x01ffffff
 80053dc:	fffffedf 	.word	0xfffffedf

080053e0 <HAL_UART_Init>:
{
 80053e0:	b510      	push	{r4, lr}
 80053e2:	1e04      	subs	r4, r0, #0
  if (huart == NULL)
 80053e4:	d101      	bne.n	80053ea <HAL_UART_Init+0xa>
    return HAL_ERROR;
 80053e6:	2001      	movs	r0, #1
}
 80053e8:	bd10      	pop	{r4, pc}
  if (huart->gState == HAL_UART_STATE_RESET)
 80053ea:	6fc3      	ldr	r3, [r0, #124]	; 0x7c
 80053ec:	2b00      	cmp	r3, #0
 80053ee:	d104      	bne.n	80053fa <HAL_UART_Init+0x1a>
    huart->Lock = HAL_UNLOCKED;
 80053f0:	0002      	movs	r2, r0
 80053f2:	3278      	adds	r2, #120	; 0x78
 80053f4:	7013      	strb	r3, [r2, #0]
    HAL_UART_MspInit(huart);
 80053f6:	f7fd ff8b 	bl	8003310 <HAL_UART_MspInit>
  huart->gState = HAL_UART_STATE_BUSY;
 80053fa:	2324      	movs	r3, #36	; 0x24
  __HAL_UART_DISABLE(huart);
 80053fc:	2101      	movs	r1, #1
 80053fe:	6822      	ldr	r2, [r4, #0]
  huart->gState = HAL_UART_STATE_BUSY;
 8005400:	67e3      	str	r3, [r4, #124]	; 0x7c
  __HAL_UART_DISABLE(huart);
 8005402:	6813      	ldr	r3, [r2, #0]
  if (UART_SetConfig(huart) == HAL_ERROR)
 8005404:	0020      	movs	r0, r4
  __HAL_UART_DISABLE(huart);
 8005406:	438b      	bics	r3, r1
 8005408:	6013      	str	r3, [r2, #0]
  if (UART_SetConfig(huart) == HAL_ERROR)
 800540a:	f7ff fce5 	bl	8004dd8 <UART_SetConfig>
 800540e:	2801      	cmp	r0, #1
 8005410:	d0e9      	beq.n	80053e6 <HAL_UART_Init+0x6>
  if (huart->AdvancedInit.AdvFeatureInit != UART_ADVFEATURE_NO_INIT)
 8005412:	6a63      	ldr	r3, [r4, #36]	; 0x24
 8005414:	2b00      	cmp	r3, #0
 8005416:	d002      	beq.n	800541e <HAL_UART_Init+0x3e>
    UART_AdvFeatureConfig(huart);
 8005418:	0020      	movs	r0, r4
 800541a:	f7ff fde9 	bl	8004ff0 <UART_AdvFeatureConfig>
  CLEAR_BIT(huart->Instance->CR2, (USART_CR2_LINEN | USART_CR2_CLKEN));
 800541e:	6823      	ldr	r3, [r4, #0]
 8005420:	4907      	ldr	r1, [pc, #28]	; (8005440 <HAL_UART_Init+0x60>)
 8005422:	685a      	ldr	r2, [r3, #4]
  return (UART_CheckIdleState(huart));
 8005424:	0020      	movs	r0, r4
  CLEAR_BIT(huart->Instance->CR2, (USART_CR2_LINEN | USART_CR2_CLKEN));
 8005426:	400a      	ands	r2, r1
  CLEAR_BIT(huart->Instance->CR3, (USART_CR3_SCEN | USART_CR3_HDSEL | USART_CR3_IREN));
 8005428:	212a      	movs	r1, #42	; 0x2a
  CLEAR_BIT(huart->Instance->CR2, (USART_CR2_LINEN | USART_CR2_CLKEN));
 800542a:	605a      	str	r2, [r3, #4]
  CLEAR_BIT(huart->Instance->CR3, (USART_CR3_SCEN | USART_CR3_HDSEL | USART_CR3_IREN));
 800542c:	689a      	ldr	r2, [r3, #8]
 800542e:	438a      	bics	r2, r1
 8005430:	609a      	str	r2, [r3, #8]
  __HAL_UART_ENABLE(huart);
 8005432:	2201      	movs	r2, #1
 8005434:	6819      	ldr	r1, [r3, #0]
 8005436:	430a      	orrs	r2, r1
 8005438:	601a      	str	r2, [r3, #0]
  return (UART_CheckIdleState(huart));
 800543a:	f7ff ff6f 	bl	800531c <UART_CheckIdleState>
 800543e:	e7d3      	b.n	80053e8 <HAL_UART_Init+0x8>
 8005440:	ffffb7ff 	.word	0xffffb7ff

08005444 <__errno>:
 8005444:	4b01      	ldr	r3, [pc, #4]	; (800544c <__errno+0x8>)
 8005446:	6818      	ldr	r0, [r3, #0]
 8005448:	4770      	bx	lr
 800544a:	46c0      	nop			; (mov r8, r8)
 800544c:	20000018 	.word	0x20000018

08005450 <__libc_init_array>:
 8005450:	b570      	push	{r4, r5, r6, lr}
 8005452:	2600      	movs	r6, #0
 8005454:	4d0c      	ldr	r5, [pc, #48]	; (8005488 <__libc_init_array+0x38>)
 8005456:	4c0d      	ldr	r4, [pc, #52]	; (800548c <__libc_init_array+0x3c>)
 8005458:	1b64      	subs	r4, r4, r5
 800545a:	10a4      	asrs	r4, r4, #2
 800545c:	42a6      	cmp	r6, r4
 800545e:	d109      	bne.n	8005474 <__libc_init_array+0x24>
 8005460:	2600      	movs	r6, #0
 8005462:	f000 fc8b 	bl	8005d7c <_init>
 8005466:	4d0a      	ldr	r5, [pc, #40]	; (8005490 <__libc_init_array+0x40>)
 8005468:	4c0a      	ldr	r4, [pc, #40]	; (8005494 <__libc_init_array+0x44>)
 800546a:	1b64      	subs	r4, r4, r5
 800546c:	10a4      	asrs	r4, r4, #2
 800546e:	42a6      	cmp	r6, r4
 8005470:	d105      	bne.n	800547e <__libc_init_array+0x2e>
 8005472:	bd70      	pop	{r4, r5, r6, pc}
 8005474:	00b3      	lsls	r3, r6, #2
 8005476:	58eb      	ldr	r3, [r5, r3]
 8005478:	4798      	blx	r3
 800547a:	3601      	adds	r6, #1
 800547c:	e7ee      	b.n	800545c <__libc_init_array+0xc>
 800547e:	00b3      	lsls	r3, r6, #2
 8005480:	58eb      	ldr	r3, [r5, r3]
 8005482:	4798      	blx	r3
 8005484:	3601      	adds	r6, #1
 8005486:	e7f2      	b.n	800546e <__libc_init_array+0x1e>
 8005488:	080061f4 	.word	0x080061f4
 800548c:	080061f4 	.word	0x080061f4
 8005490:	080061f4 	.word	0x080061f4
 8005494:	080061f8 	.word	0x080061f8

08005498 <memset>:
 8005498:	0003      	movs	r3, r0
 800549a:	1882      	adds	r2, r0, r2
 800549c:	4293      	cmp	r3, r2
 800549e:	d100      	bne.n	80054a2 <memset+0xa>
 80054a0:	4770      	bx	lr
 80054a2:	7019      	strb	r1, [r3, #0]
 80054a4:	3301      	adds	r3, #1
 80054a6:	e7f9      	b.n	800549c <memset+0x4>

080054a8 <siprintf>:
 80054a8:	b40e      	push	{r1, r2, r3}
 80054aa:	b500      	push	{lr}
 80054ac:	490b      	ldr	r1, [pc, #44]	; (80054dc <siprintf+0x34>)
 80054ae:	b09c      	sub	sp, #112	; 0x70
 80054b0:	ab1d      	add	r3, sp, #116	; 0x74
 80054b2:	9002      	str	r0, [sp, #8]
 80054b4:	9006      	str	r0, [sp, #24]
 80054b6:	9107      	str	r1, [sp, #28]
 80054b8:	9104      	str	r1, [sp, #16]
 80054ba:	4809      	ldr	r0, [pc, #36]	; (80054e0 <siprintf+0x38>)
 80054bc:	4909      	ldr	r1, [pc, #36]	; (80054e4 <siprintf+0x3c>)
 80054be:	cb04      	ldmia	r3!, {r2}
 80054c0:	9105      	str	r1, [sp, #20]
 80054c2:	6800      	ldr	r0, [r0, #0]
 80054c4:	a902      	add	r1, sp, #8
 80054c6:	9301      	str	r3, [sp, #4]
 80054c8:	f000 f870 	bl	80055ac <_svfiprintf_r>
 80054cc:	2300      	movs	r3, #0
 80054ce:	9a02      	ldr	r2, [sp, #8]
 80054d0:	7013      	strb	r3, [r2, #0]
 80054d2:	b01c      	add	sp, #112	; 0x70
 80054d4:	bc08      	pop	{r3}
 80054d6:	b003      	add	sp, #12
 80054d8:	4718      	bx	r3
 80054da:	46c0      	nop			; (mov r8, r8)
 80054dc:	7fffffff 	.word	0x7fffffff
 80054e0:	20000018 	.word	0x20000018
 80054e4:	ffff0208 	.word	0xffff0208

080054e8 <__ssputs_r>:
 80054e8:	b5f0      	push	{r4, r5, r6, r7, lr}
 80054ea:	688e      	ldr	r6, [r1, #8]
 80054ec:	b085      	sub	sp, #20
 80054ee:	0007      	movs	r7, r0
 80054f0:	000c      	movs	r4, r1
 80054f2:	9203      	str	r2, [sp, #12]
 80054f4:	9301      	str	r3, [sp, #4]
 80054f6:	429e      	cmp	r6, r3
 80054f8:	d83c      	bhi.n	8005574 <__ssputs_r+0x8c>
 80054fa:	2390      	movs	r3, #144	; 0x90
 80054fc:	898a      	ldrh	r2, [r1, #12]
 80054fe:	00db      	lsls	r3, r3, #3
 8005500:	421a      	tst	r2, r3
 8005502:	d034      	beq.n	800556e <__ssputs_r+0x86>
 8005504:	6909      	ldr	r1, [r1, #16]
 8005506:	6823      	ldr	r3, [r4, #0]
 8005508:	6960      	ldr	r0, [r4, #20]
 800550a:	1a5b      	subs	r3, r3, r1
 800550c:	9302      	str	r3, [sp, #8]
 800550e:	2303      	movs	r3, #3
 8005510:	4343      	muls	r3, r0
 8005512:	0fdd      	lsrs	r5, r3, #31
 8005514:	18ed      	adds	r5, r5, r3
 8005516:	9b01      	ldr	r3, [sp, #4]
 8005518:	9802      	ldr	r0, [sp, #8]
 800551a:	3301      	adds	r3, #1
 800551c:	181b      	adds	r3, r3, r0
 800551e:	106d      	asrs	r5, r5, #1
 8005520:	42ab      	cmp	r3, r5
 8005522:	d900      	bls.n	8005526 <__ssputs_r+0x3e>
 8005524:	001d      	movs	r5, r3
 8005526:	0553      	lsls	r3, r2, #21
 8005528:	d532      	bpl.n	8005590 <__ssputs_r+0xa8>
 800552a:	0029      	movs	r1, r5
 800552c:	0038      	movs	r0, r7
 800552e:	f000 fb53 	bl	8005bd8 <_malloc_r>
 8005532:	1e06      	subs	r6, r0, #0
 8005534:	d109      	bne.n	800554a <__ssputs_r+0x62>
 8005536:	230c      	movs	r3, #12
 8005538:	603b      	str	r3, [r7, #0]
 800553a:	2340      	movs	r3, #64	; 0x40
 800553c:	2001      	movs	r0, #1
 800553e:	89a2      	ldrh	r2, [r4, #12]
 8005540:	4240      	negs	r0, r0
 8005542:	4313      	orrs	r3, r2
 8005544:	81a3      	strh	r3, [r4, #12]
 8005546:	b005      	add	sp, #20
 8005548:	bdf0      	pop	{r4, r5, r6, r7, pc}
 800554a:	9a02      	ldr	r2, [sp, #8]
 800554c:	6921      	ldr	r1, [r4, #16]
 800554e:	f000 faba 	bl	8005ac6 <memcpy>
 8005552:	89a3      	ldrh	r3, [r4, #12]
 8005554:	4a14      	ldr	r2, [pc, #80]	; (80055a8 <__ssputs_r+0xc0>)
 8005556:	401a      	ands	r2, r3
 8005558:	2380      	movs	r3, #128	; 0x80
 800555a:	4313      	orrs	r3, r2
 800555c:	81a3      	strh	r3, [r4, #12]
 800555e:	9b02      	ldr	r3, [sp, #8]
 8005560:	6126      	str	r6, [r4, #16]
 8005562:	18f6      	adds	r6, r6, r3
 8005564:	6026      	str	r6, [r4, #0]
 8005566:	6165      	str	r5, [r4, #20]
 8005568:	9e01      	ldr	r6, [sp, #4]
 800556a:	1aed      	subs	r5, r5, r3
 800556c:	60a5      	str	r5, [r4, #8]
 800556e:	9b01      	ldr	r3, [sp, #4]
 8005570:	429e      	cmp	r6, r3
 8005572:	d900      	bls.n	8005576 <__ssputs_r+0x8e>
 8005574:	9e01      	ldr	r6, [sp, #4]
 8005576:	0032      	movs	r2, r6
 8005578:	9903      	ldr	r1, [sp, #12]
 800557a:	6820      	ldr	r0, [r4, #0]
 800557c:	f000 faac 	bl	8005ad8 <memmove>
 8005580:	68a3      	ldr	r3, [r4, #8]
 8005582:	2000      	movs	r0, #0
 8005584:	1b9b      	subs	r3, r3, r6
 8005586:	60a3      	str	r3, [r4, #8]
 8005588:	6823      	ldr	r3, [r4, #0]
 800558a:	199e      	adds	r6, r3, r6
 800558c:	6026      	str	r6, [r4, #0]
 800558e:	e7da      	b.n	8005546 <__ssputs_r+0x5e>
 8005590:	002a      	movs	r2, r5
 8005592:	0038      	movs	r0, r7
 8005594:	f000 fb96 	bl	8005cc4 <_realloc_r>
 8005598:	1e06      	subs	r6, r0, #0
 800559a:	d1e0      	bne.n	800555e <__ssputs_r+0x76>
 800559c:	0038      	movs	r0, r7
 800559e:	6921      	ldr	r1, [r4, #16]
 80055a0:	f000 faae 	bl	8005b00 <_free_r>
 80055a4:	e7c7      	b.n	8005536 <__ssputs_r+0x4e>
 80055a6:	46c0      	nop			; (mov r8, r8)
 80055a8:	fffffb7f 	.word	0xfffffb7f

080055ac <_svfiprintf_r>:
 80055ac:	b5f0      	push	{r4, r5, r6, r7, lr}
 80055ae:	b0a1      	sub	sp, #132	; 0x84
 80055b0:	9003      	str	r0, [sp, #12]
 80055b2:	001d      	movs	r5, r3
 80055b4:	898b      	ldrh	r3, [r1, #12]
 80055b6:	000f      	movs	r7, r1
 80055b8:	0016      	movs	r6, r2
 80055ba:	061b      	lsls	r3, r3, #24
 80055bc:	d511      	bpl.n	80055e2 <_svfiprintf_r+0x36>
 80055be:	690b      	ldr	r3, [r1, #16]
 80055c0:	2b00      	cmp	r3, #0
 80055c2:	d10e      	bne.n	80055e2 <_svfiprintf_r+0x36>
 80055c4:	2140      	movs	r1, #64	; 0x40
 80055c6:	f000 fb07 	bl	8005bd8 <_malloc_r>
 80055ca:	6038      	str	r0, [r7, #0]
 80055cc:	6138      	str	r0, [r7, #16]
 80055ce:	2800      	cmp	r0, #0
 80055d0:	d105      	bne.n	80055de <_svfiprintf_r+0x32>
 80055d2:	230c      	movs	r3, #12
 80055d4:	9a03      	ldr	r2, [sp, #12]
 80055d6:	3801      	subs	r0, #1
 80055d8:	6013      	str	r3, [r2, #0]
 80055da:	b021      	add	sp, #132	; 0x84
 80055dc:	bdf0      	pop	{r4, r5, r6, r7, pc}
 80055de:	2340      	movs	r3, #64	; 0x40
 80055e0:	617b      	str	r3, [r7, #20]
 80055e2:	2300      	movs	r3, #0
 80055e4:	ac08      	add	r4, sp, #32
 80055e6:	6163      	str	r3, [r4, #20]
 80055e8:	3320      	adds	r3, #32
 80055ea:	7663      	strb	r3, [r4, #25]
 80055ec:	3310      	adds	r3, #16
 80055ee:	76a3      	strb	r3, [r4, #26]
 80055f0:	9507      	str	r5, [sp, #28]
 80055f2:	0035      	movs	r5, r6
 80055f4:	782b      	ldrb	r3, [r5, #0]
 80055f6:	2b00      	cmp	r3, #0
 80055f8:	d001      	beq.n	80055fe <_svfiprintf_r+0x52>
 80055fa:	2b25      	cmp	r3, #37	; 0x25
 80055fc:	d147      	bne.n	800568e <_svfiprintf_r+0xe2>
 80055fe:	1bab      	subs	r3, r5, r6
 8005600:	9305      	str	r3, [sp, #20]
 8005602:	42b5      	cmp	r5, r6
 8005604:	d00c      	beq.n	8005620 <_svfiprintf_r+0x74>
 8005606:	0032      	movs	r2, r6
 8005608:	0039      	movs	r1, r7
 800560a:	9803      	ldr	r0, [sp, #12]
 800560c:	f7ff ff6c 	bl	80054e8 <__ssputs_r>
 8005610:	1c43      	adds	r3, r0, #1
 8005612:	d100      	bne.n	8005616 <_svfiprintf_r+0x6a>
 8005614:	e0ae      	b.n	8005774 <_svfiprintf_r+0x1c8>
 8005616:	6962      	ldr	r2, [r4, #20]
 8005618:	9b05      	ldr	r3, [sp, #20]
 800561a:	4694      	mov	ip, r2
 800561c:	4463      	add	r3, ip
 800561e:	6163      	str	r3, [r4, #20]
 8005620:	782b      	ldrb	r3, [r5, #0]
 8005622:	2b00      	cmp	r3, #0
 8005624:	d100      	bne.n	8005628 <_svfiprintf_r+0x7c>
 8005626:	e0a5      	b.n	8005774 <_svfiprintf_r+0x1c8>
 8005628:	2201      	movs	r2, #1
 800562a:	2300      	movs	r3, #0
 800562c:	4252      	negs	r2, r2
 800562e:	6062      	str	r2, [r4, #4]
 8005630:	a904      	add	r1, sp, #16
 8005632:	3254      	adds	r2, #84	; 0x54
 8005634:	1852      	adds	r2, r2, r1
 8005636:	1c6e      	adds	r6, r5, #1
 8005638:	6023      	str	r3, [r4, #0]
 800563a:	60e3      	str	r3, [r4, #12]
 800563c:	60a3      	str	r3, [r4, #8]
 800563e:	7013      	strb	r3, [r2, #0]
 8005640:	65a3      	str	r3, [r4, #88]	; 0x58
 8005642:	2205      	movs	r2, #5
 8005644:	7831      	ldrb	r1, [r6, #0]
 8005646:	4854      	ldr	r0, [pc, #336]	; (8005798 <_svfiprintf_r+0x1ec>)
 8005648:	f000 fa32 	bl	8005ab0 <memchr>
 800564c:	1c75      	adds	r5, r6, #1
 800564e:	2800      	cmp	r0, #0
 8005650:	d11f      	bne.n	8005692 <_svfiprintf_r+0xe6>
 8005652:	6822      	ldr	r2, [r4, #0]
 8005654:	06d3      	lsls	r3, r2, #27
 8005656:	d504      	bpl.n	8005662 <_svfiprintf_r+0xb6>
 8005658:	2353      	movs	r3, #83	; 0x53
 800565a:	a904      	add	r1, sp, #16
 800565c:	185b      	adds	r3, r3, r1
 800565e:	2120      	movs	r1, #32
 8005660:	7019      	strb	r1, [r3, #0]
 8005662:	0713      	lsls	r3, r2, #28
 8005664:	d504      	bpl.n	8005670 <_svfiprintf_r+0xc4>
 8005666:	2353      	movs	r3, #83	; 0x53
 8005668:	a904      	add	r1, sp, #16
 800566a:	185b      	adds	r3, r3, r1
 800566c:	212b      	movs	r1, #43	; 0x2b
 800566e:	7019      	strb	r1, [r3, #0]
 8005670:	7833      	ldrb	r3, [r6, #0]
 8005672:	2b2a      	cmp	r3, #42	; 0x2a
 8005674:	d016      	beq.n	80056a4 <_svfiprintf_r+0xf8>
 8005676:	0035      	movs	r5, r6
 8005678:	2100      	movs	r1, #0
 800567a:	200a      	movs	r0, #10
 800567c:	68e3      	ldr	r3, [r4, #12]
 800567e:	782a      	ldrb	r2, [r5, #0]
 8005680:	1c6e      	adds	r6, r5, #1
 8005682:	3a30      	subs	r2, #48	; 0x30
 8005684:	2a09      	cmp	r2, #9
 8005686:	d94e      	bls.n	8005726 <_svfiprintf_r+0x17a>
 8005688:	2900      	cmp	r1, #0
 800568a:	d111      	bne.n	80056b0 <_svfiprintf_r+0x104>
 800568c:	e017      	b.n	80056be <_svfiprintf_r+0x112>
 800568e:	3501      	adds	r5, #1
 8005690:	e7b0      	b.n	80055f4 <_svfiprintf_r+0x48>
 8005692:	4b41      	ldr	r3, [pc, #260]	; (8005798 <_svfiprintf_r+0x1ec>)
 8005694:	6822      	ldr	r2, [r4, #0]
 8005696:	1ac0      	subs	r0, r0, r3
 8005698:	2301      	movs	r3, #1
 800569a:	4083      	lsls	r3, r0
 800569c:	4313      	orrs	r3, r2
 800569e:	002e      	movs	r6, r5
 80056a0:	6023      	str	r3, [r4, #0]
 80056a2:	e7ce      	b.n	8005642 <_svfiprintf_r+0x96>
 80056a4:	9b07      	ldr	r3, [sp, #28]
 80056a6:	1d19      	adds	r1, r3, #4
 80056a8:	681b      	ldr	r3, [r3, #0]
 80056aa:	9107      	str	r1, [sp, #28]
 80056ac:	2b00      	cmp	r3, #0
 80056ae:	db01      	blt.n	80056b4 <_svfiprintf_r+0x108>
 80056b0:	930b      	str	r3, [sp, #44]	; 0x2c
 80056b2:	e004      	b.n	80056be <_svfiprintf_r+0x112>
 80056b4:	425b      	negs	r3, r3
 80056b6:	60e3      	str	r3, [r4, #12]
 80056b8:	2302      	movs	r3, #2
 80056ba:	4313      	orrs	r3, r2
 80056bc:	6023      	str	r3, [r4, #0]
 80056be:	782b      	ldrb	r3, [r5, #0]
 80056c0:	2b2e      	cmp	r3, #46	; 0x2e
 80056c2:	d10a      	bne.n	80056da <_svfiprintf_r+0x12e>
 80056c4:	786b      	ldrb	r3, [r5, #1]
 80056c6:	2b2a      	cmp	r3, #42	; 0x2a
 80056c8:	d135      	bne.n	8005736 <_svfiprintf_r+0x18a>
 80056ca:	9b07      	ldr	r3, [sp, #28]
 80056cc:	3502      	adds	r5, #2
 80056ce:	1d1a      	adds	r2, r3, #4
 80056d0:	681b      	ldr	r3, [r3, #0]
 80056d2:	9207      	str	r2, [sp, #28]
 80056d4:	2b00      	cmp	r3, #0
 80056d6:	db2b      	blt.n	8005730 <_svfiprintf_r+0x184>
 80056d8:	9309      	str	r3, [sp, #36]	; 0x24
 80056da:	4e30      	ldr	r6, [pc, #192]	; (800579c <_svfiprintf_r+0x1f0>)
 80056dc:	2203      	movs	r2, #3
 80056de:	0030      	movs	r0, r6
 80056e0:	7829      	ldrb	r1, [r5, #0]
 80056e2:	f000 f9e5 	bl	8005ab0 <memchr>
 80056e6:	2800      	cmp	r0, #0
 80056e8:	d006      	beq.n	80056f8 <_svfiprintf_r+0x14c>
 80056ea:	2340      	movs	r3, #64	; 0x40
 80056ec:	1b80      	subs	r0, r0, r6
 80056ee:	4083      	lsls	r3, r0
 80056f0:	6822      	ldr	r2, [r4, #0]
 80056f2:	3501      	adds	r5, #1
 80056f4:	4313      	orrs	r3, r2
 80056f6:	6023      	str	r3, [r4, #0]
 80056f8:	7829      	ldrb	r1, [r5, #0]
 80056fa:	2206      	movs	r2, #6
 80056fc:	4828      	ldr	r0, [pc, #160]	; (80057a0 <_svfiprintf_r+0x1f4>)
 80056fe:	1c6e      	adds	r6, r5, #1
 8005700:	7621      	strb	r1, [r4, #24]
 8005702:	f000 f9d5 	bl	8005ab0 <memchr>
 8005706:	2800      	cmp	r0, #0
 8005708:	d03c      	beq.n	8005784 <_svfiprintf_r+0x1d8>
 800570a:	4b26      	ldr	r3, [pc, #152]	; (80057a4 <_svfiprintf_r+0x1f8>)
 800570c:	2b00      	cmp	r3, #0
 800570e:	d125      	bne.n	800575c <_svfiprintf_r+0x1b0>
 8005710:	2207      	movs	r2, #7
 8005712:	9b07      	ldr	r3, [sp, #28]
 8005714:	3307      	adds	r3, #7
 8005716:	4393      	bics	r3, r2
 8005718:	3308      	adds	r3, #8
 800571a:	9307      	str	r3, [sp, #28]
 800571c:	6963      	ldr	r3, [r4, #20]
 800571e:	9a04      	ldr	r2, [sp, #16]
 8005720:	189b      	adds	r3, r3, r2
 8005722:	6163      	str	r3, [r4, #20]
 8005724:	e765      	b.n	80055f2 <_svfiprintf_r+0x46>
 8005726:	4343      	muls	r3, r0
 8005728:	0035      	movs	r5, r6
 800572a:	2101      	movs	r1, #1
 800572c:	189b      	adds	r3, r3, r2
 800572e:	e7a6      	b.n	800567e <_svfiprintf_r+0xd2>
 8005730:	2301      	movs	r3, #1
 8005732:	425b      	negs	r3, r3
 8005734:	e7d0      	b.n	80056d8 <_svfiprintf_r+0x12c>
 8005736:	2300      	movs	r3, #0
 8005738:	200a      	movs	r0, #10
 800573a:	001a      	movs	r2, r3
 800573c:	3501      	adds	r5, #1
 800573e:	6063      	str	r3, [r4, #4]
 8005740:	7829      	ldrb	r1, [r5, #0]
 8005742:	1c6e      	adds	r6, r5, #1
 8005744:	3930      	subs	r1, #48	; 0x30
 8005746:	2909      	cmp	r1, #9
 8005748:	d903      	bls.n	8005752 <_svfiprintf_r+0x1a6>
 800574a:	2b00      	cmp	r3, #0
 800574c:	d0c5      	beq.n	80056da <_svfiprintf_r+0x12e>
 800574e:	9209      	str	r2, [sp, #36]	; 0x24
 8005750:	e7c3      	b.n	80056da <_svfiprintf_r+0x12e>
 8005752:	4342      	muls	r2, r0
 8005754:	0035      	movs	r5, r6
 8005756:	2301      	movs	r3, #1
 8005758:	1852      	adds	r2, r2, r1
 800575a:	e7f1      	b.n	8005740 <_svfiprintf_r+0x194>
 800575c:	ab07      	add	r3, sp, #28
 800575e:	9300      	str	r3, [sp, #0]
 8005760:	003a      	movs	r2, r7
 8005762:	0021      	movs	r1, r4
 8005764:	4b10      	ldr	r3, [pc, #64]	; (80057a8 <_svfiprintf_r+0x1fc>)
 8005766:	9803      	ldr	r0, [sp, #12]
 8005768:	e000      	b.n	800576c <_svfiprintf_r+0x1c0>
 800576a:	bf00      	nop
 800576c:	9004      	str	r0, [sp, #16]
 800576e:	9b04      	ldr	r3, [sp, #16]
 8005770:	3301      	adds	r3, #1
 8005772:	d1d3      	bne.n	800571c <_svfiprintf_r+0x170>
 8005774:	89bb      	ldrh	r3, [r7, #12]
 8005776:	980d      	ldr	r0, [sp, #52]	; 0x34
 8005778:	065b      	lsls	r3, r3, #25
 800577a:	d400      	bmi.n	800577e <_svfiprintf_r+0x1d2>
 800577c:	e72d      	b.n	80055da <_svfiprintf_r+0x2e>
 800577e:	2001      	movs	r0, #1
 8005780:	4240      	negs	r0, r0
 8005782:	e72a      	b.n	80055da <_svfiprintf_r+0x2e>
 8005784:	ab07      	add	r3, sp, #28
 8005786:	9300      	str	r3, [sp, #0]
 8005788:	003a      	movs	r2, r7
 800578a:	0021      	movs	r1, r4
 800578c:	4b06      	ldr	r3, [pc, #24]	; (80057a8 <_svfiprintf_r+0x1fc>)
 800578e:	9803      	ldr	r0, [sp, #12]
 8005790:	f000 f87c 	bl	800588c <_printf_i>
 8005794:	e7ea      	b.n	800576c <_svfiprintf_r+0x1c0>
 8005796:	46c0      	nop			; (mov r8, r8)
 8005798:	080061b6 	.word	0x080061b6
 800579c:	080061bc 	.word	0x080061bc
 80057a0:	080061c0 	.word	0x080061c0
 80057a4:	00000000 	.word	0x00000000
 80057a8:	080054e9 	.word	0x080054e9

080057ac <_printf_common>:
 80057ac:	b5f7      	push	{r0, r1, r2, r4, r5, r6, r7, lr}
 80057ae:	0015      	movs	r5, r2
 80057b0:	9301      	str	r3, [sp, #4]
 80057b2:	688a      	ldr	r2, [r1, #8]
 80057b4:	690b      	ldr	r3, [r1, #16]
 80057b6:	000c      	movs	r4, r1
 80057b8:	9000      	str	r0, [sp, #0]
 80057ba:	4293      	cmp	r3, r2
 80057bc:	da00      	bge.n	80057c0 <_printf_common+0x14>
 80057be:	0013      	movs	r3, r2
 80057c0:	0022      	movs	r2, r4
 80057c2:	602b      	str	r3, [r5, #0]
 80057c4:	3243      	adds	r2, #67	; 0x43
 80057c6:	7812      	ldrb	r2, [r2, #0]
 80057c8:	2a00      	cmp	r2, #0
 80057ca:	d001      	beq.n	80057d0 <_printf_common+0x24>
 80057cc:	3301      	adds	r3, #1
 80057ce:	602b      	str	r3, [r5, #0]
 80057d0:	6823      	ldr	r3, [r4, #0]
 80057d2:	069b      	lsls	r3, r3, #26
 80057d4:	d502      	bpl.n	80057dc <_printf_common+0x30>
 80057d6:	682b      	ldr	r3, [r5, #0]
 80057d8:	3302      	adds	r3, #2
 80057da:	602b      	str	r3, [r5, #0]
 80057dc:	6822      	ldr	r2, [r4, #0]
 80057de:	2306      	movs	r3, #6
 80057e0:	0017      	movs	r7, r2
 80057e2:	401f      	ands	r7, r3
 80057e4:	421a      	tst	r2, r3
 80057e6:	d027      	beq.n	8005838 <_printf_common+0x8c>
 80057e8:	0023      	movs	r3, r4
 80057ea:	3343      	adds	r3, #67	; 0x43
 80057ec:	781b      	ldrb	r3, [r3, #0]
 80057ee:	1e5a      	subs	r2, r3, #1
 80057f0:	4193      	sbcs	r3, r2
 80057f2:	6822      	ldr	r2, [r4, #0]
 80057f4:	0692      	lsls	r2, r2, #26
 80057f6:	d430      	bmi.n	800585a <_printf_common+0xae>
 80057f8:	0022      	movs	r2, r4
 80057fa:	9901      	ldr	r1, [sp, #4]
 80057fc:	9800      	ldr	r0, [sp, #0]
 80057fe:	9e08      	ldr	r6, [sp, #32]
 8005800:	3243      	adds	r2, #67	; 0x43
 8005802:	47b0      	blx	r6
 8005804:	1c43      	adds	r3, r0, #1
 8005806:	d025      	beq.n	8005854 <_printf_common+0xa8>
 8005808:	2306      	movs	r3, #6
 800580a:	6820      	ldr	r0, [r4, #0]
 800580c:	682a      	ldr	r2, [r5, #0]
 800580e:	68e1      	ldr	r1, [r4, #12]
 8005810:	2500      	movs	r5, #0
 8005812:	4003      	ands	r3, r0
 8005814:	2b04      	cmp	r3, #4
 8005816:	d103      	bne.n	8005820 <_printf_common+0x74>
 8005818:	1a8d      	subs	r5, r1, r2
 800581a:	43eb      	mvns	r3, r5
 800581c:	17db      	asrs	r3, r3, #31
 800581e:	401d      	ands	r5, r3
 8005820:	68a3      	ldr	r3, [r4, #8]
 8005822:	6922      	ldr	r2, [r4, #16]
 8005824:	4293      	cmp	r3, r2
 8005826:	dd01      	ble.n	800582c <_printf_common+0x80>
 8005828:	1a9b      	subs	r3, r3, r2
 800582a:	18ed      	adds	r5, r5, r3
 800582c:	2700      	movs	r7, #0
 800582e:	42bd      	cmp	r5, r7
 8005830:	d120      	bne.n	8005874 <_printf_common+0xc8>
 8005832:	2000      	movs	r0, #0
 8005834:	e010      	b.n	8005858 <_printf_common+0xac>
 8005836:	3701      	adds	r7, #1
 8005838:	68e3      	ldr	r3, [r4, #12]
 800583a:	682a      	ldr	r2, [r5, #0]
 800583c:	1a9b      	subs	r3, r3, r2
 800583e:	42bb      	cmp	r3, r7
 8005840:	ddd2      	ble.n	80057e8 <_printf_common+0x3c>
 8005842:	0022      	movs	r2, r4
 8005844:	2301      	movs	r3, #1
 8005846:	9901      	ldr	r1, [sp, #4]
 8005848:	9800      	ldr	r0, [sp, #0]
 800584a:	9e08      	ldr	r6, [sp, #32]
 800584c:	3219      	adds	r2, #25
 800584e:	47b0      	blx	r6
 8005850:	1c43      	adds	r3, r0, #1
 8005852:	d1f0      	bne.n	8005836 <_printf_common+0x8a>
 8005854:	2001      	movs	r0, #1
 8005856:	4240      	negs	r0, r0
 8005858:	bdfe      	pop	{r1, r2, r3, r4, r5, r6, r7, pc}
 800585a:	2030      	movs	r0, #48	; 0x30
 800585c:	18e1      	adds	r1, r4, r3
 800585e:	3143      	adds	r1, #67	; 0x43
 8005860:	7008      	strb	r0, [r1, #0]
 8005862:	0021      	movs	r1, r4
 8005864:	1c5a      	adds	r2, r3, #1
 8005866:	3145      	adds	r1, #69	; 0x45
 8005868:	7809      	ldrb	r1, [r1, #0]
 800586a:	18a2      	adds	r2, r4, r2
 800586c:	3243      	adds	r2, #67	; 0x43
 800586e:	3302      	adds	r3, #2
 8005870:	7011      	strb	r1, [r2, #0]
 8005872:	e7c1      	b.n	80057f8 <_printf_common+0x4c>
 8005874:	0022      	movs	r2, r4
 8005876:	2301      	movs	r3, #1
 8005878:	9901      	ldr	r1, [sp, #4]
 800587a:	9800      	ldr	r0, [sp, #0]
 800587c:	9e08      	ldr	r6, [sp, #32]
 800587e:	321a      	adds	r2, #26
 8005880:	47b0      	blx	r6
 8005882:	1c43      	adds	r3, r0, #1
 8005884:	d0e6      	beq.n	8005854 <_printf_common+0xa8>
 8005886:	3701      	adds	r7, #1
 8005888:	e7d1      	b.n	800582e <_printf_common+0x82>
	...

0800588c <_printf_i>:
 800588c:	b5f0      	push	{r4, r5, r6, r7, lr}
 800588e:	b08b      	sub	sp, #44	; 0x2c
 8005890:	9206      	str	r2, [sp, #24]
 8005892:	000a      	movs	r2, r1
 8005894:	3243      	adds	r2, #67	; 0x43
 8005896:	9307      	str	r3, [sp, #28]
 8005898:	9005      	str	r0, [sp, #20]
 800589a:	9204      	str	r2, [sp, #16]
 800589c:	7e0a      	ldrb	r2, [r1, #24]
 800589e:	000c      	movs	r4, r1
 80058a0:	9b10      	ldr	r3, [sp, #64]	; 0x40
 80058a2:	2a78      	cmp	r2, #120	; 0x78
 80058a4:	d807      	bhi.n	80058b6 <_printf_i+0x2a>
 80058a6:	2a62      	cmp	r2, #98	; 0x62
 80058a8:	d809      	bhi.n	80058be <_printf_i+0x32>
 80058aa:	2a00      	cmp	r2, #0
 80058ac:	d100      	bne.n	80058b0 <_printf_i+0x24>
 80058ae:	e0c1      	b.n	8005a34 <_printf_i+0x1a8>
 80058b0:	2a58      	cmp	r2, #88	; 0x58
 80058b2:	d100      	bne.n	80058b6 <_printf_i+0x2a>
 80058b4:	e08c      	b.n	80059d0 <_printf_i+0x144>
 80058b6:	0026      	movs	r6, r4
 80058b8:	3642      	adds	r6, #66	; 0x42
 80058ba:	7032      	strb	r2, [r6, #0]
 80058bc:	e022      	b.n	8005904 <_printf_i+0x78>
 80058be:	0010      	movs	r0, r2
 80058c0:	3863      	subs	r0, #99	; 0x63
 80058c2:	2815      	cmp	r0, #21
 80058c4:	d8f7      	bhi.n	80058b6 <_printf_i+0x2a>
 80058c6:	f7fa fc31 	bl	800012c <__gnu_thumb1_case_shi>
 80058ca:	0016      	.short	0x0016
 80058cc:	fff6001f 	.word	0xfff6001f
 80058d0:	fff6fff6 	.word	0xfff6fff6
 80058d4:	001ffff6 	.word	0x001ffff6
 80058d8:	fff6fff6 	.word	0xfff6fff6
 80058dc:	fff6fff6 	.word	0xfff6fff6
 80058e0:	003600a8 	.word	0x003600a8
 80058e4:	fff6009a 	.word	0xfff6009a
 80058e8:	00b9fff6 	.word	0x00b9fff6
 80058ec:	0036fff6 	.word	0x0036fff6
 80058f0:	fff6fff6 	.word	0xfff6fff6
 80058f4:	009e      	.short	0x009e
 80058f6:	0026      	movs	r6, r4
 80058f8:	681a      	ldr	r2, [r3, #0]
 80058fa:	3642      	adds	r6, #66	; 0x42
 80058fc:	1d11      	adds	r1, r2, #4
 80058fe:	6019      	str	r1, [r3, #0]
 8005900:	6813      	ldr	r3, [r2, #0]
 8005902:	7033      	strb	r3, [r6, #0]
 8005904:	2301      	movs	r3, #1
 8005906:	e0a7      	b.n	8005a58 <_printf_i+0x1cc>
 8005908:	6808      	ldr	r0, [r1, #0]
 800590a:	6819      	ldr	r1, [r3, #0]
 800590c:	1d0a      	adds	r2, r1, #4
 800590e:	0605      	lsls	r5, r0, #24
 8005910:	d50b      	bpl.n	800592a <_printf_i+0x9e>
 8005912:	680d      	ldr	r5, [r1, #0]
 8005914:	601a      	str	r2, [r3, #0]
 8005916:	2d00      	cmp	r5, #0
 8005918:	da03      	bge.n	8005922 <_printf_i+0x96>
 800591a:	232d      	movs	r3, #45	; 0x2d
 800591c:	9a04      	ldr	r2, [sp, #16]
 800591e:	426d      	negs	r5, r5
 8005920:	7013      	strb	r3, [r2, #0]
 8005922:	4b61      	ldr	r3, [pc, #388]	; (8005aa8 <_printf_i+0x21c>)
 8005924:	270a      	movs	r7, #10
 8005926:	9303      	str	r3, [sp, #12]
 8005928:	e01b      	b.n	8005962 <_printf_i+0xd6>
 800592a:	680d      	ldr	r5, [r1, #0]
 800592c:	601a      	str	r2, [r3, #0]
 800592e:	0641      	lsls	r1, r0, #25
 8005930:	d5f1      	bpl.n	8005916 <_printf_i+0x8a>
 8005932:	b22d      	sxth	r5, r5
 8005934:	e7ef      	b.n	8005916 <_printf_i+0x8a>
 8005936:	680d      	ldr	r5, [r1, #0]
 8005938:	6819      	ldr	r1, [r3, #0]
 800593a:	1d08      	adds	r0, r1, #4
 800593c:	6018      	str	r0, [r3, #0]
 800593e:	062e      	lsls	r6, r5, #24
 8005940:	d501      	bpl.n	8005946 <_printf_i+0xba>
 8005942:	680d      	ldr	r5, [r1, #0]
 8005944:	e003      	b.n	800594e <_printf_i+0xc2>
 8005946:	066d      	lsls	r5, r5, #25
 8005948:	d5fb      	bpl.n	8005942 <_printf_i+0xb6>
 800594a:	680d      	ldr	r5, [r1, #0]
 800594c:	b2ad      	uxth	r5, r5
 800594e:	4b56      	ldr	r3, [pc, #344]	; (8005aa8 <_printf_i+0x21c>)
 8005950:	2708      	movs	r7, #8
 8005952:	9303      	str	r3, [sp, #12]
 8005954:	2a6f      	cmp	r2, #111	; 0x6f
 8005956:	d000      	beq.n	800595a <_printf_i+0xce>
 8005958:	3702      	adds	r7, #2
 800595a:	0023      	movs	r3, r4
 800595c:	2200      	movs	r2, #0
 800595e:	3343      	adds	r3, #67	; 0x43
 8005960:	701a      	strb	r2, [r3, #0]
 8005962:	6863      	ldr	r3, [r4, #4]
 8005964:	60a3      	str	r3, [r4, #8]
 8005966:	2b00      	cmp	r3, #0
 8005968:	db03      	blt.n	8005972 <_printf_i+0xe6>
 800596a:	2204      	movs	r2, #4
 800596c:	6821      	ldr	r1, [r4, #0]
 800596e:	4391      	bics	r1, r2
 8005970:	6021      	str	r1, [r4, #0]
 8005972:	2d00      	cmp	r5, #0
 8005974:	d102      	bne.n	800597c <_printf_i+0xf0>
 8005976:	9e04      	ldr	r6, [sp, #16]
 8005978:	2b00      	cmp	r3, #0
 800597a:	d00c      	beq.n	8005996 <_printf_i+0x10a>
 800597c:	9e04      	ldr	r6, [sp, #16]
 800597e:	0028      	movs	r0, r5
 8005980:	0039      	movs	r1, r7
 8005982:	f7fa fc63 	bl	800024c <__aeabi_uidivmod>
 8005986:	9b03      	ldr	r3, [sp, #12]
 8005988:	3e01      	subs	r6, #1
 800598a:	5c5b      	ldrb	r3, [r3, r1]
 800598c:	7033      	strb	r3, [r6, #0]
 800598e:	002b      	movs	r3, r5
 8005990:	0005      	movs	r5, r0
 8005992:	429f      	cmp	r7, r3
 8005994:	d9f3      	bls.n	800597e <_printf_i+0xf2>
 8005996:	2f08      	cmp	r7, #8
 8005998:	d109      	bne.n	80059ae <_printf_i+0x122>
 800599a:	6823      	ldr	r3, [r4, #0]
 800599c:	07db      	lsls	r3, r3, #31
 800599e:	d506      	bpl.n	80059ae <_printf_i+0x122>
 80059a0:	6863      	ldr	r3, [r4, #4]
 80059a2:	6922      	ldr	r2, [r4, #16]
 80059a4:	4293      	cmp	r3, r2
 80059a6:	dc02      	bgt.n	80059ae <_printf_i+0x122>
 80059a8:	2330      	movs	r3, #48	; 0x30
 80059aa:	3e01      	subs	r6, #1
 80059ac:	7033      	strb	r3, [r6, #0]
 80059ae:	9b04      	ldr	r3, [sp, #16]
 80059b0:	1b9b      	subs	r3, r3, r6
 80059b2:	6123      	str	r3, [r4, #16]
 80059b4:	9b07      	ldr	r3, [sp, #28]
 80059b6:	0021      	movs	r1, r4
 80059b8:	9300      	str	r3, [sp, #0]
 80059ba:	9805      	ldr	r0, [sp, #20]
 80059bc:	9b06      	ldr	r3, [sp, #24]
 80059be:	aa09      	add	r2, sp, #36	; 0x24
 80059c0:	f7ff fef4 	bl	80057ac <_printf_common>
 80059c4:	1c43      	adds	r3, r0, #1
 80059c6:	d14c      	bne.n	8005a62 <_printf_i+0x1d6>
 80059c8:	2001      	movs	r0, #1
 80059ca:	4240      	negs	r0, r0
 80059cc:	b00b      	add	sp, #44	; 0x2c
 80059ce:	bdf0      	pop	{r4, r5, r6, r7, pc}
 80059d0:	3145      	adds	r1, #69	; 0x45
 80059d2:	700a      	strb	r2, [r1, #0]
 80059d4:	4a34      	ldr	r2, [pc, #208]	; (8005aa8 <_printf_i+0x21c>)
 80059d6:	9203      	str	r2, [sp, #12]
 80059d8:	681a      	ldr	r2, [r3, #0]
 80059da:	6821      	ldr	r1, [r4, #0]
 80059dc:	ca20      	ldmia	r2!, {r5}
 80059de:	601a      	str	r2, [r3, #0]
 80059e0:	0608      	lsls	r0, r1, #24
 80059e2:	d516      	bpl.n	8005a12 <_printf_i+0x186>
 80059e4:	07cb      	lsls	r3, r1, #31
 80059e6:	d502      	bpl.n	80059ee <_printf_i+0x162>
 80059e8:	2320      	movs	r3, #32
 80059ea:	4319      	orrs	r1, r3
 80059ec:	6021      	str	r1, [r4, #0]
 80059ee:	2710      	movs	r7, #16
 80059f0:	2d00      	cmp	r5, #0
 80059f2:	d1b2      	bne.n	800595a <_printf_i+0xce>
 80059f4:	2320      	movs	r3, #32
 80059f6:	6822      	ldr	r2, [r4, #0]
 80059f8:	439a      	bics	r2, r3
 80059fa:	6022      	str	r2, [r4, #0]
 80059fc:	e7ad      	b.n	800595a <_printf_i+0xce>
 80059fe:	2220      	movs	r2, #32
 8005a00:	6809      	ldr	r1, [r1, #0]
 8005a02:	430a      	orrs	r2, r1
 8005a04:	6022      	str	r2, [r4, #0]
 8005a06:	0022      	movs	r2, r4
 8005a08:	2178      	movs	r1, #120	; 0x78
 8005a0a:	3245      	adds	r2, #69	; 0x45
 8005a0c:	7011      	strb	r1, [r2, #0]
 8005a0e:	4a27      	ldr	r2, [pc, #156]	; (8005aac <_printf_i+0x220>)
 8005a10:	e7e1      	b.n	80059d6 <_printf_i+0x14a>
 8005a12:	0648      	lsls	r0, r1, #25
 8005a14:	d5e6      	bpl.n	80059e4 <_printf_i+0x158>
 8005a16:	b2ad      	uxth	r5, r5
 8005a18:	e7e4      	b.n	80059e4 <_printf_i+0x158>
 8005a1a:	681a      	ldr	r2, [r3, #0]
 8005a1c:	680d      	ldr	r5, [r1, #0]
 8005a1e:	1d10      	adds	r0, r2, #4
 8005a20:	6949      	ldr	r1, [r1, #20]
 8005a22:	6018      	str	r0, [r3, #0]
 8005a24:	6813      	ldr	r3, [r2, #0]
 8005a26:	062e      	lsls	r6, r5, #24
 8005a28:	d501      	bpl.n	8005a2e <_printf_i+0x1a2>
 8005a2a:	6019      	str	r1, [r3, #0]
 8005a2c:	e002      	b.n	8005a34 <_printf_i+0x1a8>
 8005a2e:	066d      	lsls	r5, r5, #25
 8005a30:	d5fb      	bpl.n	8005a2a <_printf_i+0x19e>
 8005a32:	8019      	strh	r1, [r3, #0]
 8005a34:	2300      	movs	r3, #0
 8005a36:	9e04      	ldr	r6, [sp, #16]
 8005a38:	6123      	str	r3, [r4, #16]
 8005a3a:	e7bb      	b.n	80059b4 <_printf_i+0x128>
 8005a3c:	681a      	ldr	r2, [r3, #0]
 8005a3e:	1d11      	adds	r1, r2, #4
 8005a40:	6019      	str	r1, [r3, #0]
 8005a42:	6816      	ldr	r6, [r2, #0]
 8005a44:	2100      	movs	r1, #0
 8005a46:	0030      	movs	r0, r6
 8005a48:	6862      	ldr	r2, [r4, #4]
 8005a4a:	f000 f831 	bl	8005ab0 <memchr>
 8005a4e:	2800      	cmp	r0, #0
 8005a50:	d001      	beq.n	8005a56 <_printf_i+0x1ca>
 8005a52:	1b80      	subs	r0, r0, r6
 8005a54:	6060      	str	r0, [r4, #4]
 8005a56:	6863      	ldr	r3, [r4, #4]
 8005a58:	6123      	str	r3, [r4, #16]
 8005a5a:	2300      	movs	r3, #0
 8005a5c:	9a04      	ldr	r2, [sp, #16]
 8005a5e:	7013      	strb	r3, [r2, #0]
 8005a60:	e7a8      	b.n	80059b4 <_printf_i+0x128>
 8005a62:	6923      	ldr	r3, [r4, #16]
 8005a64:	0032      	movs	r2, r6
 8005a66:	9906      	ldr	r1, [sp, #24]
 8005a68:	9805      	ldr	r0, [sp, #20]
 8005a6a:	9d07      	ldr	r5, [sp, #28]
 8005a6c:	47a8      	blx	r5
 8005a6e:	1c43      	adds	r3, r0, #1
 8005a70:	d0aa      	beq.n	80059c8 <_printf_i+0x13c>
 8005a72:	6823      	ldr	r3, [r4, #0]
 8005a74:	079b      	lsls	r3, r3, #30
 8005a76:	d415      	bmi.n	8005aa4 <_printf_i+0x218>
 8005a78:	9b09      	ldr	r3, [sp, #36]	; 0x24
 8005a7a:	68e0      	ldr	r0, [r4, #12]
 8005a7c:	4298      	cmp	r0, r3
 8005a7e:	daa5      	bge.n	80059cc <_printf_i+0x140>
 8005a80:	0018      	movs	r0, r3
 8005a82:	e7a3      	b.n	80059cc <_printf_i+0x140>
 8005a84:	0022      	movs	r2, r4
 8005a86:	2301      	movs	r3, #1
 8005a88:	9906      	ldr	r1, [sp, #24]
 8005a8a:	9805      	ldr	r0, [sp, #20]
 8005a8c:	9e07      	ldr	r6, [sp, #28]
 8005a8e:	3219      	adds	r2, #25
 8005a90:	47b0      	blx	r6
 8005a92:	1c43      	adds	r3, r0, #1
 8005a94:	d098      	beq.n	80059c8 <_printf_i+0x13c>
 8005a96:	3501      	adds	r5, #1
 8005a98:	68e3      	ldr	r3, [r4, #12]
 8005a9a:	9a09      	ldr	r2, [sp, #36]	; 0x24
 8005a9c:	1a9b      	subs	r3, r3, r2
 8005a9e:	42ab      	cmp	r3, r5
 8005aa0:	dcf0      	bgt.n	8005a84 <_printf_i+0x1f8>
 8005aa2:	e7e9      	b.n	8005a78 <_printf_i+0x1ec>
 8005aa4:	2500      	movs	r5, #0
 8005aa6:	e7f7      	b.n	8005a98 <_printf_i+0x20c>
 8005aa8:	080061c7 	.word	0x080061c7
 8005aac:	080061d8 	.word	0x080061d8

08005ab0 <memchr>:
 8005ab0:	b2c9      	uxtb	r1, r1
 8005ab2:	1882      	adds	r2, r0, r2
 8005ab4:	4290      	cmp	r0, r2
 8005ab6:	d101      	bne.n	8005abc <memchr+0xc>
 8005ab8:	2000      	movs	r0, #0
 8005aba:	4770      	bx	lr
 8005abc:	7803      	ldrb	r3, [r0, #0]
 8005abe:	428b      	cmp	r3, r1
 8005ac0:	d0fb      	beq.n	8005aba <memchr+0xa>
 8005ac2:	3001      	adds	r0, #1
 8005ac4:	e7f6      	b.n	8005ab4 <memchr+0x4>

08005ac6 <memcpy>:
 8005ac6:	2300      	movs	r3, #0
 8005ac8:	b510      	push	{r4, lr}
 8005aca:	429a      	cmp	r2, r3
 8005acc:	d100      	bne.n	8005ad0 <memcpy+0xa>
 8005ace:	bd10      	pop	{r4, pc}
 8005ad0:	5ccc      	ldrb	r4, [r1, r3]
 8005ad2:	54c4      	strb	r4, [r0, r3]
 8005ad4:	3301      	adds	r3, #1
 8005ad6:	e7f8      	b.n	8005aca <memcpy+0x4>

08005ad8 <memmove>:
 8005ad8:	b510      	push	{r4, lr}
 8005ada:	4288      	cmp	r0, r1
 8005adc:	d902      	bls.n	8005ae4 <memmove+0xc>
 8005ade:	188b      	adds	r3, r1, r2
 8005ae0:	4298      	cmp	r0, r3
 8005ae2:	d303      	bcc.n	8005aec <memmove+0x14>
 8005ae4:	2300      	movs	r3, #0
 8005ae6:	e007      	b.n	8005af8 <memmove+0x20>
 8005ae8:	5c8b      	ldrb	r3, [r1, r2]
 8005aea:	5483      	strb	r3, [r0, r2]
 8005aec:	3a01      	subs	r2, #1
 8005aee:	d2fb      	bcs.n	8005ae8 <memmove+0x10>
 8005af0:	bd10      	pop	{r4, pc}
 8005af2:	5ccc      	ldrb	r4, [r1, r3]
 8005af4:	54c4      	strb	r4, [r0, r3]
 8005af6:	3301      	adds	r3, #1
 8005af8:	429a      	cmp	r2, r3
 8005afa:	d1fa      	bne.n	8005af2 <memmove+0x1a>
 8005afc:	e7f8      	b.n	8005af0 <memmove+0x18>
	...

08005b00 <_free_r>:
 8005b00:	b570      	push	{r4, r5, r6, lr}
 8005b02:	0005      	movs	r5, r0
 8005b04:	2900      	cmp	r1, #0
 8005b06:	d010      	beq.n	8005b2a <_free_r+0x2a>
 8005b08:	1f0c      	subs	r4, r1, #4
 8005b0a:	6823      	ldr	r3, [r4, #0]
 8005b0c:	2b00      	cmp	r3, #0
 8005b0e:	da00      	bge.n	8005b12 <_free_r+0x12>
 8005b10:	18e4      	adds	r4, r4, r3
 8005b12:	0028      	movs	r0, r5
 8005b14:	f000 f918 	bl	8005d48 <__malloc_lock>
 8005b18:	4a1d      	ldr	r2, [pc, #116]	; (8005b90 <_free_r+0x90>)
 8005b1a:	6813      	ldr	r3, [r2, #0]
 8005b1c:	2b00      	cmp	r3, #0
 8005b1e:	d105      	bne.n	8005b2c <_free_r+0x2c>
 8005b20:	6063      	str	r3, [r4, #4]
 8005b22:	6014      	str	r4, [r2, #0]
 8005b24:	0028      	movs	r0, r5
 8005b26:	f000 f917 	bl	8005d58 <__malloc_unlock>
 8005b2a:	bd70      	pop	{r4, r5, r6, pc}
 8005b2c:	42a3      	cmp	r3, r4
 8005b2e:	d908      	bls.n	8005b42 <_free_r+0x42>
 8005b30:	6821      	ldr	r1, [r4, #0]
 8005b32:	1860      	adds	r0, r4, r1
 8005b34:	4283      	cmp	r3, r0
 8005b36:	d1f3      	bne.n	8005b20 <_free_r+0x20>
 8005b38:	6818      	ldr	r0, [r3, #0]
 8005b3a:	685b      	ldr	r3, [r3, #4]
 8005b3c:	1841      	adds	r1, r0, r1
 8005b3e:	6021      	str	r1, [r4, #0]
 8005b40:	e7ee      	b.n	8005b20 <_free_r+0x20>
 8005b42:	001a      	movs	r2, r3
 8005b44:	685b      	ldr	r3, [r3, #4]
 8005b46:	2b00      	cmp	r3, #0
 8005b48:	d001      	beq.n	8005b4e <_free_r+0x4e>
 8005b4a:	42a3      	cmp	r3, r4
 8005b4c:	d9f9      	bls.n	8005b42 <_free_r+0x42>
 8005b4e:	6811      	ldr	r1, [r2, #0]
 8005b50:	1850      	adds	r0, r2, r1
 8005b52:	42a0      	cmp	r0, r4
 8005b54:	d10b      	bne.n	8005b6e <_free_r+0x6e>
 8005b56:	6820      	ldr	r0, [r4, #0]
 8005b58:	1809      	adds	r1, r1, r0
 8005b5a:	1850      	adds	r0, r2, r1
 8005b5c:	6011      	str	r1, [r2, #0]
 8005b5e:	4283      	cmp	r3, r0
 8005b60:	d1e0      	bne.n	8005b24 <_free_r+0x24>
 8005b62:	6818      	ldr	r0, [r3, #0]
 8005b64:	685b      	ldr	r3, [r3, #4]
 8005b66:	1841      	adds	r1, r0, r1
 8005b68:	6011      	str	r1, [r2, #0]
 8005b6a:	6053      	str	r3, [r2, #4]
 8005b6c:	e7da      	b.n	8005b24 <_free_r+0x24>
 8005b6e:	42a0      	cmp	r0, r4
 8005b70:	d902      	bls.n	8005b78 <_free_r+0x78>
 8005b72:	230c      	movs	r3, #12
 8005b74:	602b      	str	r3, [r5, #0]
 8005b76:	e7d5      	b.n	8005b24 <_free_r+0x24>
 8005b78:	6821      	ldr	r1, [r4, #0]
 8005b7a:	1860      	adds	r0, r4, r1
 8005b7c:	4283      	cmp	r3, r0
 8005b7e:	d103      	bne.n	8005b88 <_free_r+0x88>
 8005b80:	6818      	ldr	r0, [r3, #0]
 8005b82:	685b      	ldr	r3, [r3, #4]
 8005b84:	1841      	adds	r1, r0, r1
 8005b86:	6021      	str	r1, [r4, #0]
 8005b88:	6063      	str	r3, [r4, #4]
 8005b8a:	6054      	str	r4, [r2, #4]
 8005b8c:	e7ca      	b.n	8005b24 <_free_r+0x24>
 8005b8e:	46c0      	nop			; (mov r8, r8)
 8005b90:	20000304 	.word	0x20000304

08005b94 <sbrk_aligned>:
 8005b94:	b570      	push	{r4, r5, r6, lr}
 8005b96:	4e0f      	ldr	r6, [pc, #60]	; (8005bd4 <sbrk_aligned+0x40>)
 8005b98:	000d      	movs	r5, r1
 8005b9a:	6831      	ldr	r1, [r6, #0]
 8005b9c:	0004      	movs	r4, r0
 8005b9e:	2900      	cmp	r1, #0
 8005ba0:	d102      	bne.n	8005ba8 <sbrk_aligned+0x14>
 8005ba2:	f000 f8bf 	bl	8005d24 <_sbrk_r>
 8005ba6:	6030      	str	r0, [r6, #0]
 8005ba8:	0029      	movs	r1, r5
 8005baa:	0020      	movs	r0, r4
 8005bac:	f000 f8ba 	bl	8005d24 <_sbrk_r>
 8005bb0:	1c43      	adds	r3, r0, #1
 8005bb2:	d00a      	beq.n	8005bca <sbrk_aligned+0x36>
 8005bb4:	2303      	movs	r3, #3
 8005bb6:	1cc5      	adds	r5, r0, #3
 8005bb8:	439d      	bics	r5, r3
 8005bba:	42a8      	cmp	r0, r5
 8005bbc:	d007      	beq.n	8005bce <sbrk_aligned+0x3a>
 8005bbe:	1a29      	subs	r1, r5, r0
 8005bc0:	0020      	movs	r0, r4
 8005bc2:	f000 f8af 	bl	8005d24 <_sbrk_r>
 8005bc6:	1c43      	adds	r3, r0, #1
 8005bc8:	d101      	bne.n	8005bce <sbrk_aligned+0x3a>
 8005bca:	2501      	movs	r5, #1
 8005bcc:	426d      	negs	r5, r5
 8005bce:	0028      	movs	r0, r5
 8005bd0:	bd70      	pop	{r4, r5, r6, pc}
 8005bd2:	46c0      	nop			; (mov r8, r8)
 8005bd4:	20000308 	.word	0x20000308

08005bd8 <_malloc_r>:
 8005bd8:	b5f7      	push	{r0, r1, r2, r4, r5, r6, r7, lr}
 8005bda:	2203      	movs	r2, #3
 8005bdc:	1ccb      	adds	r3, r1, #3
 8005bde:	4393      	bics	r3, r2
 8005be0:	3308      	adds	r3, #8
 8005be2:	0006      	movs	r6, r0
 8005be4:	001f      	movs	r7, r3
 8005be6:	2b0c      	cmp	r3, #12
 8005be8:	d232      	bcs.n	8005c50 <_malloc_r+0x78>
 8005bea:	270c      	movs	r7, #12
 8005bec:	42b9      	cmp	r1, r7
 8005bee:	d831      	bhi.n	8005c54 <_malloc_r+0x7c>
 8005bf0:	0030      	movs	r0, r6
 8005bf2:	f000 f8a9 	bl	8005d48 <__malloc_lock>
 8005bf6:	4d32      	ldr	r5, [pc, #200]	; (8005cc0 <_malloc_r+0xe8>)
 8005bf8:	682b      	ldr	r3, [r5, #0]
 8005bfa:	001c      	movs	r4, r3
 8005bfc:	2c00      	cmp	r4, #0
 8005bfe:	d12e      	bne.n	8005c5e <_malloc_r+0x86>
 8005c00:	0039      	movs	r1, r7
 8005c02:	0030      	movs	r0, r6
 8005c04:	f7ff ffc6 	bl	8005b94 <sbrk_aligned>
 8005c08:	0004      	movs	r4, r0
 8005c0a:	1c43      	adds	r3, r0, #1
 8005c0c:	d11e      	bne.n	8005c4c <_malloc_r+0x74>
 8005c0e:	682c      	ldr	r4, [r5, #0]
 8005c10:	0025      	movs	r5, r4
 8005c12:	2d00      	cmp	r5, #0
 8005c14:	d14a      	bne.n	8005cac <_malloc_r+0xd4>
 8005c16:	6823      	ldr	r3, [r4, #0]
 8005c18:	0029      	movs	r1, r5
 8005c1a:	18e3      	adds	r3, r4, r3
 8005c1c:	0030      	movs	r0, r6
 8005c1e:	9301      	str	r3, [sp, #4]
 8005c20:	f000 f880 	bl	8005d24 <_sbrk_r>
 8005c24:	9b01      	ldr	r3, [sp, #4]
 8005c26:	4283      	cmp	r3, r0
 8005c28:	d143      	bne.n	8005cb2 <_malloc_r+0xda>
 8005c2a:	6823      	ldr	r3, [r4, #0]
 8005c2c:	3703      	adds	r7, #3
 8005c2e:	1aff      	subs	r7, r7, r3
 8005c30:	2303      	movs	r3, #3
 8005c32:	439f      	bics	r7, r3
 8005c34:	3708      	adds	r7, #8
 8005c36:	2f0c      	cmp	r7, #12
 8005c38:	d200      	bcs.n	8005c3c <_malloc_r+0x64>
 8005c3a:	270c      	movs	r7, #12
 8005c3c:	0039      	movs	r1, r7
 8005c3e:	0030      	movs	r0, r6
 8005c40:	f7ff ffa8 	bl	8005b94 <sbrk_aligned>
 8005c44:	1c43      	adds	r3, r0, #1
 8005c46:	d034      	beq.n	8005cb2 <_malloc_r+0xda>
 8005c48:	6823      	ldr	r3, [r4, #0]
 8005c4a:	19df      	adds	r7, r3, r7
 8005c4c:	6027      	str	r7, [r4, #0]
 8005c4e:	e013      	b.n	8005c78 <_malloc_r+0xa0>
 8005c50:	2b00      	cmp	r3, #0
 8005c52:	dacb      	bge.n	8005bec <_malloc_r+0x14>
 8005c54:	230c      	movs	r3, #12
 8005c56:	2500      	movs	r5, #0
 8005c58:	6033      	str	r3, [r6, #0]
 8005c5a:	0028      	movs	r0, r5
 8005c5c:	bdfe      	pop	{r1, r2, r3, r4, r5, r6, r7, pc}
 8005c5e:	6822      	ldr	r2, [r4, #0]
 8005c60:	1bd1      	subs	r1, r2, r7
 8005c62:	d420      	bmi.n	8005ca6 <_malloc_r+0xce>
 8005c64:	290b      	cmp	r1, #11
 8005c66:	d917      	bls.n	8005c98 <_malloc_r+0xc0>
 8005c68:	19e2      	adds	r2, r4, r7
 8005c6a:	6027      	str	r7, [r4, #0]
 8005c6c:	42a3      	cmp	r3, r4
 8005c6e:	d111      	bne.n	8005c94 <_malloc_r+0xbc>
 8005c70:	602a      	str	r2, [r5, #0]
 8005c72:	6863      	ldr	r3, [r4, #4]
 8005c74:	6011      	str	r1, [r2, #0]
 8005c76:	6053      	str	r3, [r2, #4]
 8005c78:	0030      	movs	r0, r6
 8005c7a:	0025      	movs	r5, r4
 8005c7c:	f000 f86c 	bl	8005d58 <__malloc_unlock>
 8005c80:	2207      	movs	r2, #7
 8005c82:	350b      	adds	r5, #11
 8005c84:	1d23      	adds	r3, r4, #4
 8005c86:	4395      	bics	r5, r2
 8005c88:	1aea      	subs	r2, r5, r3
 8005c8a:	429d      	cmp	r5, r3
 8005c8c:	d0e5      	beq.n	8005c5a <_malloc_r+0x82>
 8005c8e:	1b5b      	subs	r3, r3, r5
 8005c90:	50a3      	str	r3, [r4, r2]
 8005c92:	e7e2      	b.n	8005c5a <_malloc_r+0x82>
 8005c94:	605a      	str	r2, [r3, #4]
 8005c96:	e7ec      	b.n	8005c72 <_malloc_r+0x9a>
 8005c98:	6862      	ldr	r2, [r4, #4]
 8005c9a:	42a3      	cmp	r3, r4
 8005c9c:	d101      	bne.n	8005ca2 <_malloc_r+0xca>
 8005c9e:	602a      	str	r2, [r5, #0]
 8005ca0:	e7ea      	b.n	8005c78 <_malloc_r+0xa0>
 8005ca2:	605a      	str	r2, [r3, #4]
 8005ca4:	e7e8      	b.n	8005c78 <_malloc_r+0xa0>
 8005ca6:	0023      	movs	r3, r4
 8005ca8:	6864      	ldr	r4, [r4, #4]
 8005caa:	e7a7      	b.n	8005bfc <_malloc_r+0x24>
 8005cac:	002c      	movs	r4, r5
 8005cae:	686d      	ldr	r5, [r5, #4]
 8005cb0:	e7af      	b.n	8005c12 <_malloc_r+0x3a>
 8005cb2:	230c      	movs	r3, #12
 8005cb4:	0030      	movs	r0, r6
 8005cb6:	6033      	str	r3, [r6, #0]
 8005cb8:	f000 f84e 	bl	8005d58 <__malloc_unlock>
 8005cbc:	e7cd      	b.n	8005c5a <_malloc_r+0x82>
 8005cbe:	46c0      	nop			; (mov r8, r8)
 8005cc0:	20000304 	.word	0x20000304

08005cc4 <_realloc_r>:
 8005cc4:	b5f7      	push	{r0, r1, r2, r4, r5, r6, r7, lr}
 8005cc6:	0007      	movs	r7, r0
 8005cc8:	000e      	movs	r6, r1
 8005cca:	0014      	movs	r4, r2
 8005ccc:	2900      	cmp	r1, #0
 8005cce:	d105      	bne.n	8005cdc <_realloc_r+0x18>
 8005cd0:	0011      	movs	r1, r2
 8005cd2:	f7ff ff81 	bl	8005bd8 <_malloc_r>
 8005cd6:	0005      	movs	r5, r0
 8005cd8:	0028      	movs	r0, r5
 8005cda:	bdfe      	pop	{r1, r2, r3, r4, r5, r6, r7, pc}
 8005cdc:	2a00      	cmp	r2, #0
 8005cde:	d103      	bne.n	8005ce8 <_realloc_r+0x24>
 8005ce0:	f7ff ff0e 	bl	8005b00 <_free_r>
 8005ce4:	0025      	movs	r5, r4
 8005ce6:	e7f7      	b.n	8005cd8 <_realloc_r+0x14>
 8005ce8:	f000 f83e 	bl	8005d68 <_malloc_usable_size_r>
 8005cec:	9001      	str	r0, [sp, #4]
 8005cee:	4284      	cmp	r4, r0
 8005cf0:	d803      	bhi.n	8005cfa <_realloc_r+0x36>
 8005cf2:	0035      	movs	r5, r6
 8005cf4:	0843      	lsrs	r3, r0, #1
 8005cf6:	42a3      	cmp	r3, r4
 8005cf8:	d3ee      	bcc.n	8005cd8 <_realloc_r+0x14>
 8005cfa:	0021      	movs	r1, r4
 8005cfc:	0038      	movs	r0, r7
 8005cfe:	f7ff ff6b 	bl	8005bd8 <_malloc_r>
 8005d02:	1e05      	subs	r5, r0, #0
 8005d04:	d0e8      	beq.n	8005cd8 <_realloc_r+0x14>
 8005d06:	9b01      	ldr	r3, [sp, #4]
 8005d08:	0022      	movs	r2, r4
 8005d0a:	429c      	cmp	r4, r3
 8005d0c:	d900      	bls.n	8005d10 <_realloc_r+0x4c>
 8005d0e:	001a      	movs	r2, r3
 8005d10:	0031      	movs	r1, r6
 8005d12:	0028      	movs	r0, r5
 8005d14:	f7ff fed7 	bl	8005ac6 <memcpy>
 8005d18:	0031      	movs	r1, r6
 8005d1a:	0038      	movs	r0, r7
 8005d1c:	f7ff fef0 	bl	8005b00 <_free_r>
 8005d20:	e7da      	b.n	8005cd8 <_realloc_r+0x14>
	...

08005d24 <_sbrk_r>:
 8005d24:	2300      	movs	r3, #0
 8005d26:	b570      	push	{r4, r5, r6, lr}
 8005d28:	4d06      	ldr	r5, [pc, #24]	; (8005d44 <_sbrk_r+0x20>)
 8005d2a:	0004      	movs	r4, r0
 8005d2c:	0008      	movs	r0, r1
 8005d2e:	602b      	str	r3, [r5, #0]
 8005d30:	f7fd fb26 	bl	8003380 <_sbrk>
 8005d34:	1c43      	adds	r3, r0, #1
 8005d36:	d103      	bne.n	8005d40 <_sbrk_r+0x1c>
 8005d38:	682b      	ldr	r3, [r5, #0]
 8005d3a:	2b00      	cmp	r3, #0
 8005d3c:	d000      	beq.n	8005d40 <_sbrk_r+0x1c>
 8005d3e:	6023      	str	r3, [r4, #0]
 8005d40:	bd70      	pop	{r4, r5, r6, pc}
 8005d42:	46c0      	nop			; (mov r8, r8)
 8005d44:	2000030c 	.word	0x2000030c

08005d48 <__malloc_lock>:
 8005d48:	b510      	push	{r4, lr}
 8005d4a:	4802      	ldr	r0, [pc, #8]	; (8005d54 <__malloc_lock+0xc>)
 8005d4c:	f000 f814 	bl	8005d78 <__retarget_lock_acquire_recursive>
 8005d50:	bd10      	pop	{r4, pc}
 8005d52:	46c0      	nop			; (mov r8, r8)
 8005d54:	20000310 	.word	0x20000310

08005d58 <__malloc_unlock>:
 8005d58:	b510      	push	{r4, lr}
 8005d5a:	4802      	ldr	r0, [pc, #8]	; (8005d64 <__malloc_unlock+0xc>)
 8005d5c:	f000 f80d 	bl	8005d7a <__retarget_lock_release_recursive>
 8005d60:	bd10      	pop	{r4, pc}
 8005d62:	46c0      	nop			; (mov r8, r8)
 8005d64:	20000310 	.word	0x20000310

08005d68 <_malloc_usable_size_r>:
 8005d68:	1f0b      	subs	r3, r1, #4
 8005d6a:	681b      	ldr	r3, [r3, #0]
 8005d6c:	1f18      	subs	r0, r3, #4
 8005d6e:	2b00      	cmp	r3, #0
 8005d70:	da01      	bge.n	8005d76 <_malloc_usable_size_r+0xe>
 8005d72:	580b      	ldr	r3, [r1, r0]
 8005d74:	18c0      	adds	r0, r0, r3
 8005d76:	4770      	bx	lr

08005d78 <__retarget_lock_acquire_recursive>:
 8005d78:	4770      	bx	lr

08005d7a <__retarget_lock_release_recursive>:
 8005d7a:	4770      	bx	lr

08005d7c <_init>:
 8005d7c:	b5f8      	push	{r3, r4, r5, r6, r7, lr}
 8005d7e:	46c0      	nop			; (mov r8, r8)
 8005d80:	bcf8      	pop	{r3, r4, r5, r6, r7}
 8005d82:	bc08      	pop	{r3}
 8005d84:	469e      	mov	lr, r3
 8005d86:	4770      	bx	lr

08005d88 <_fini>:
 8005d88:	b5f8      	push	{r3, r4, r5, r6, r7, lr}
 8005d8a:	46c0      	nop			; (mov r8, r8)
 8005d8c:	bcf8      	pop	{r3, r4, r5, r6, r7}
 8005d8e:	bc08      	pop	{r3}
 8005d90:	469e      	mov	lr, r3
 8005d92:	4770      	bx	lr
