
door_management.elf:     file format elf32-littlearm

Sections:
Idx Name          Size      VMA       LMA       File off  Algn
  0 .isr_vector   000000c0  08000000  08000000  00010000  2**0
                  CONTENTS, ALLOC, LOAD, READONLY, DATA
  1 .text         00003abc  080000c0  080000c0  000100c0  2**2
                  CONTENTS, ALLOC, LOAD, READONLY, CODE
  2 .rodata       00000340  08003b7c  08003b7c  00013b7c  2**1
                  CONTENTS, ALLOC, LOAD, READONLY, DATA
  3 .ARM.extab    00000000  08003ebc  08003ebc  0002009c  2**0
                  CONTENTS
  4 .ARM          00000008  08003ebc  08003ebc  00013ebc  2**2
                  CONTENTS, ALLOC, LOAD, READONLY, DATA
  5 .preinit_array 00000000  08003ec4  08003ec4  0002009c  2**0
                  CONTENTS, ALLOC, LOAD, DATA
  6 .init_array   00000004  08003ec4  08003ec4  00013ec4  2**2
                  CONTENTS, ALLOC, LOAD, DATA
  7 .fini_array   00000004  08003ec8  08003ec8  00013ec8  2**2
                  CONTENTS, ALLOC, LOAD, DATA
  8 .data         0000009c  20000000  08003ecc  00020000  2**2
                  CONTENTS, ALLOC, LOAD, DATA
  9 .bss          000002a0  2000009c  08003f68  0002009c  2**2
                  ALLOC
 10 ._user_heap_stack 00000604  2000033c  08003f68  0002033c  2**0
                  ALLOC
 11 .ARM.attributes 00000028  00000000  00000000  0002009c  2**0
                  CONTENTS, READONLY
 12 .comment      00000050  00000000  00000000  000200c4  2**0
                  CONTENTS, READONLY
 13 .debug_frame  000004d0  00000000  00000000  00020114  2**2
                  CONTENTS, READONLY, DEBUGGING, OCTETS

Disassembly of section .text:

080000c0 <__do_global_dtors_aux>:
 80000c0:	b510      	push	{r4, lr}
 80000c2:	4c06      	ldr	r4, [pc, #24]	; (80000dc <__do_global_dtors_aux+0x1c>)
 80000c4:	7823      	ldrb	r3, [r4, #0]
 80000c6:	2b00      	cmp	r3, #0
 80000c8:	d107      	bne.n	80000da <__do_global_dtors_aux+0x1a>
 80000ca:	4b05      	ldr	r3, [pc, #20]	; (80000e0 <__do_global_dtors_aux+0x20>)
 80000cc:	2b00      	cmp	r3, #0
 80000ce:	d002      	beq.n	80000d6 <__do_global_dtors_aux+0x16>
 80000d0:	4804      	ldr	r0, [pc, #16]	; (80000e4 <__do_global_dtors_aux+0x24>)
 80000d2:	e000      	b.n	80000d6 <__do_global_dtors_aux+0x16>
 80000d4:	bf00      	nop
 80000d6:	2301      	movs	r3, #1
 80000d8:	7023      	strb	r3, [r4, #0]
 80000da:	bd10      	pop	{r4, pc}
 80000dc:	2000009c 	.word	0x2000009c
 80000e0:	00000000 	.word	0x00000000
 80000e4:	08003b64 	.word	0x08003b64

080000e8 <frame_dummy>:
 80000e8:	4b04      	ldr	r3, [pc, #16]	; (80000fc <frame_dummy+0x14>)
 80000ea:	b510      	push	{r4, lr}
 80000ec:	2b00      	cmp	r3, #0
 80000ee:	d003      	beq.n	80000f8 <frame_dummy+0x10>
 80000f0:	4903      	ldr	r1, [pc, #12]	; (8000100 <frame_dummy+0x18>)
 80000f2:	4804      	ldr	r0, [pc, #16]	; (8000104 <frame_dummy+0x1c>)
 80000f4:	e000      	b.n	80000f8 <frame_dummy+0x10>
 80000f6:	bf00      	nop
 80000f8:	bd10      	pop	{r4, pc}
 80000fa:	46c0      	nop			; (mov r8, r8)
 80000fc:	00000000 	.word	0x00000000
 8000100:	200000a0 	.word	0x200000a0
 8000104:	08003b64 	.word	0x08003b64

08000108 <strlen>:
 8000108:	2300      	movs	r3, #0
 800010a:	5cc2      	ldrb	r2, [r0, r3]
 800010c:	3301      	adds	r3, #1
 800010e:	2a00      	cmp	r2, #0
 8000110:	d1fb      	bne.n	800010a <strlen+0x2>
 8000112:	1e58      	subs	r0, r3, #1
 8000114:	4770      	bx	lr
	...

08000118 <__gnu_thumb1_case_uqi>:
 8000118:	b402      	push	{r1}
 800011a:	4671      	mov	r1, lr
 800011c:	0849      	lsrs	r1, r1, #1
 800011e:	0049      	lsls	r1, r1, #1
 8000120:	5c09      	ldrb	r1, [r1, r0]
 8000122:	0049      	lsls	r1, r1, #1
 8000124:	448e      	add	lr, r1
 8000126:	bc02      	pop	{r1}
 8000128:	4770      	bx	lr
 800012a:	46c0      	nop			; (mov r8, r8)

0800012c <__gnu_thumb1_case_shi>:
 800012c:	b403      	push	{r0, r1}
 800012e:	4671      	mov	r1, lr
 8000130:	0849      	lsrs	r1, r1, #1
 8000132:	0040      	lsls	r0, r0, #1
 8000134:	0049      	lsls	r1, r1, #1
 8000136:	5e09      	ldrsh	r1, [r1, r0]
 8000138:	0049      	lsls	r1, r1, #1
 800013a:	448e      	add	lr, r1
 800013c:	bc03      	pop	{r0, r1}
 800013e:	4770      	bx	lr

08000140 <__udivsi3>:
 8000140:	2200      	movs	r2, #0
 8000142:	0843      	lsrs	r3, r0, #1
 8000144:	428b      	cmp	r3, r1
 8000146:	d374      	bcc.n	8000232 <__udivsi3+0xf2>
 8000148:	0903      	lsrs	r3, r0, #4
 800014a:	428b      	cmp	r3, r1
 800014c:	d35f      	bcc.n	800020e <__udivsi3+0xce>
 800014e:	0a03      	lsrs	r3, r0, #8
 8000150:	428b      	cmp	r3, r1
 8000152:	d344      	bcc.n	80001de <__udivsi3+0x9e>
 8000154:	0b03      	lsrs	r3, r0, #12
 8000156:	428b      	cmp	r3, r1
 8000158:	d328      	bcc.n	80001ac <__udivsi3+0x6c>
 800015a:	0c03      	lsrs	r3, r0, #16
 800015c:	428b      	cmp	r3, r1
 800015e:	d30d      	bcc.n	800017c <__udivsi3+0x3c>
 8000160:	22ff      	movs	r2, #255	; 0xff
 8000162:	0209      	lsls	r1, r1, #8
 8000164:	ba12      	rev	r2, r2
 8000166:	0c03      	lsrs	r3, r0, #16
 8000168:	428b      	cmp	r3, r1
 800016a:	d302      	bcc.n	8000172 <__udivsi3+0x32>
 800016c:	1212      	asrs	r2, r2, #8
 800016e:	0209      	lsls	r1, r1, #8
 8000170:	d065      	beq.n	800023e <__udivsi3+0xfe>
 8000172:	0b03      	lsrs	r3, r0, #12
 8000174:	428b      	cmp	r3, r1
 8000176:	d319      	bcc.n	80001ac <__udivsi3+0x6c>
 8000178:	e000      	b.n	800017c <__udivsi3+0x3c>
 800017a:	0a09      	lsrs	r1, r1, #8
 800017c:	0bc3      	lsrs	r3, r0, #15
 800017e:	428b      	cmp	r3, r1
 8000180:	d301      	bcc.n	8000186 <__udivsi3+0x46>
 8000182:	03cb      	lsls	r3, r1, #15
 8000184:	1ac0      	subs	r0, r0, r3
 8000186:	4152      	adcs	r2, r2
 8000188:	0b83      	lsrs	r3, r0, #14
 800018a:	428b      	cmp	r3, r1
 800018c:	d301      	bcc.n	8000192 <__udivsi3+0x52>
 800018e:	038b      	lsls	r3, r1, #14
 8000190:	1ac0      	subs	r0, r0, r3
 8000192:	4152      	adcs	r2, r2
 8000194:	0b43      	lsrs	r3, r0, #13
 8000196:	428b      	cmp	r3, r1
 8000198:	d301      	bcc.n	800019e <__udivsi3+0x5e>
 800019a:	034b      	lsls	r3, r1, #13
 800019c:	1ac0      	subs	r0, r0, r3
 800019e:	4152      	adcs	r2, r2
 80001a0:	0b03      	lsrs	r3, r0, #12
 80001a2:	428b      	cmp	r3, r1
 80001a4:	d301      	bcc.n	80001aa <__udivsi3+0x6a>
 80001a6:	030b      	lsls	r3, r1, #12
 80001a8:	1ac0      	subs	r0, r0, r3
 80001aa:	4152      	adcs	r2, r2
 80001ac:	0ac3      	lsrs	r3, r0, #11
 80001ae:	428b      	cmp	r3, r1
 80001b0:	d301      	bcc.n	80001b6 <__udivsi3+0x76>
 80001b2:	02cb      	lsls	r3, r1, #11
 80001b4:	1ac0      	subs	r0, r0, r3
 80001b6:	4152      	adcs	r2, r2
 80001b8:	0a83      	lsrs	r3, r0, #10
 80001ba:	428b      	cmp	r3, r1
 80001bc:	d301      	bcc.n	80001c2 <__udivsi3+0x82>
 80001be:	028b      	lsls	r3, r1, #10
 80001c0:	1ac0      	subs	r0, r0, r3
 80001c2:	4152      	adcs	r2, r2
 80001c4:	0a43      	lsrs	r3, r0, #9
 80001c6:	428b      	cmp	r3, r1
 80001c8:	d301      	bcc.n	80001ce <__udivsi3+0x8e>
 80001ca:	024b      	lsls	r3, r1, #9
 80001cc:	1ac0      	subs	r0, r0, r3
 80001ce:	4152      	adcs	r2, r2
 80001d0:	0a03      	lsrs	r3, r0, #8
 80001d2:	428b      	cmp	r3, r1
 80001d4:	d301      	bcc.n	80001da <__udivsi3+0x9a>
 80001d6:	020b      	lsls	r3, r1, #8
 80001d8:	1ac0      	subs	r0, r0, r3
 80001da:	4152      	adcs	r2, r2
 80001dc:	d2cd      	bcs.n	800017a <__udivsi3+0x3a>
 80001de:	09c3      	lsrs	r3, r0, #7
 80001e0:	428b      	cmp	r3, r1
 80001e2:	d301      	bcc.n	80001e8 <__udivsi3+0xa8>
 80001e4:	01cb      	lsls	r3, r1, #7
 80001e6:	1ac0      	subs	r0, r0, r3
 80001e8:	4152      	adcs	r2, r2
 80001ea:	0983      	lsrs	r3, r0, #6
 80001ec:	428b      	cmp	r3, r1
 80001ee:	d301      	bcc.n	80001f4 <__udivsi3+0xb4>
 80001f0:	018b      	lsls	r3, r1, #6
 80001f2:	1ac0      	subs	r0, r0, r3
 80001f4:	4152      	adcs	r2, r2
 80001f6:	0943      	lsrs	r3, r0, #5
 80001f8:	428b      	cmp	r3, r1
 80001fa:	d301      	bcc.n	8000200 <__udivsi3+0xc0>
 80001fc:	014b      	lsls	r3, r1, #5
 80001fe:	1ac0      	subs	r0, r0, r3
 8000200:	4152      	adcs	r2, r2
 8000202:	0903      	lsrs	r3, r0, #4
 8000204:	428b      	cmp	r3, r1
 8000206:	d301      	bcc.n	800020c <__udivsi3+0xcc>
 8000208:	010b      	lsls	r3, r1, #4
 800020a:	1ac0      	subs	r0, r0, r3
 800020c:	4152      	adcs	r2, r2
 800020e:	08c3      	lsrs	r3, r0, #3
 8000210:	428b      	cmp	r3, r1
 8000212:	d301      	bcc.n	8000218 <__udivsi3+0xd8>
 8000214:	00cb      	lsls	r3, r1, #3
 8000216:	1ac0      	subs	r0, r0, r3
 8000218:	4152      	adcs	r2, r2
 800021a:	0883      	lsrs	r3, r0, #2
 800021c:	428b      	cmp	r3, r1
 800021e:	d301      	bcc.n	8000224 <__udivsi3+0xe4>
 8000220:	008b      	lsls	r3, r1, #2
 8000222:	1ac0      	subs	r0, r0, r3
 8000224:	4152      	adcs	r2, r2
 8000226:	0843      	lsrs	r3, r0, #1
 8000228:	428b      	cmp	r3, r1
 800022a:	d301      	bcc.n	8000230 <__udivsi3+0xf0>
 800022c:	004b      	lsls	r3, r1, #1
 800022e:	1ac0      	subs	r0, r0, r3
 8000230:	4152      	adcs	r2, r2
 8000232:	1a41      	subs	r1, r0, r1
 8000234:	d200      	bcs.n	8000238 <__udivsi3+0xf8>
 8000236:	4601      	mov	r1, r0
 8000238:	4152      	adcs	r2, r2
 800023a:	4610      	mov	r0, r2
 800023c:	4770      	bx	lr
 800023e:	e7ff      	b.n	8000240 <__udivsi3+0x100>
 8000240:	b501      	push	{r0, lr}
 8000242:	2000      	movs	r0, #0
 8000244:	f000 f8f0 	bl	8000428 <__aeabi_idiv0>
 8000248:	bd02      	pop	{r1, pc}
 800024a:	46c0      	nop			; (mov r8, r8)

0800024c <__aeabi_uidivmod>:
 800024c:	2900      	cmp	r1, #0
 800024e:	d0f7      	beq.n	8000240 <__udivsi3+0x100>
 8000250:	e776      	b.n	8000140 <__udivsi3>
 8000252:	4770      	bx	lr

08000254 <__divsi3>:
 8000254:	4603      	mov	r3, r0
 8000256:	430b      	orrs	r3, r1
 8000258:	d47f      	bmi.n	800035a <__divsi3+0x106>
 800025a:	2200      	movs	r2, #0
 800025c:	0843      	lsrs	r3, r0, #1
 800025e:	428b      	cmp	r3, r1
 8000260:	d374      	bcc.n	800034c <__divsi3+0xf8>
 8000262:	0903      	lsrs	r3, r0, #4
 8000264:	428b      	cmp	r3, r1
 8000266:	d35f      	bcc.n	8000328 <__divsi3+0xd4>
 8000268:	0a03      	lsrs	r3, r0, #8
 800026a:	428b      	cmp	r3, r1
 800026c:	d344      	bcc.n	80002f8 <__divsi3+0xa4>
 800026e:	0b03      	lsrs	r3, r0, #12
 8000270:	428b      	cmp	r3, r1
 8000272:	d328      	bcc.n	80002c6 <__divsi3+0x72>
 8000274:	0c03      	lsrs	r3, r0, #16
 8000276:	428b      	cmp	r3, r1
 8000278:	d30d      	bcc.n	8000296 <__divsi3+0x42>
 800027a:	22ff      	movs	r2, #255	; 0xff
 800027c:	0209      	lsls	r1, r1, #8
 800027e:	ba12      	rev	r2, r2
 8000280:	0c03      	lsrs	r3, r0, #16
 8000282:	428b      	cmp	r3, r1
 8000284:	d302      	bcc.n	800028c <__divsi3+0x38>
 8000286:	1212      	asrs	r2, r2, #8
 8000288:	0209      	lsls	r1, r1, #8
 800028a:	d065      	beq.n	8000358 <__divsi3+0x104>
 800028c:	0b03      	lsrs	r3, r0, #12
 800028e:	428b      	cmp	r3, r1
 8000290:	d319      	bcc.n	80002c6 <__divsi3+0x72>
 8000292:	e000      	b.n	8000296 <__divsi3+0x42>
 8000294:	0a09      	lsrs	r1, r1, #8
 8000296:	0bc3      	lsrs	r3, r0, #15
 8000298:	428b      	cmp	r3, r1
 800029a:	d301      	bcc.n	80002a0 <__divsi3+0x4c>
 800029c:	03cb      	lsls	r3, r1, #15
 800029e:	1ac0      	subs	r0, r0, r3
 80002a0:	4152      	adcs	r2, r2
 80002a2:	0b83      	lsrs	r3, r0, #14
 80002a4:	428b      	cmp	r3, r1
 80002a6:	d301      	bcc.n	80002ac <__divsi3+0x58>
 80002a8:	038b      	lsls	r3, r1, #14
 80002aa:	1ac0      	subs	r0, r0, r3
 80002ac:	4152      	adcs	r2, r2
 80002ae:	0b43      	lsrs	r3, r0, #13
 80002b0:	428b      	cmp	r3, r1
 80002b2:	d301      	bcc.n	80002b8 <__divsi3+0x64>
 80002b4:	034b      	lsls	r3, r1, #13
 80002b6:	1ac0      	subs	r0, r0, r3
 80002b8:	4152      	adcs	r2, r2
 80002ba:	0b03      	lsrs	r3, r0, #12
 80002bc:	428b      	cmp	r3, r1
 80002be:	d301      	bcc.n	80002c4 <__divsi3+0x70>
 80002c0:	030b      	lsls	r3, r1, #12
 80002c2:	1ac0      	subs	r0, r0, r3
 80002c4:	4152      	adcs	r2, r2
 80002c6:	0ac3      	lsrs	r3, r0, #11
 80002c8:	428b      	cmp	r3, r1
 80002ca:	d301      	bcc.n	80002d0 <__divsi3+0x7c>
 80002cc:	02cb      	lsls	r3, r1, #11
 80002ce:	1ac0      	subs	r0, r0, r3
 80002d0:	4152      	adcs	r2, r2
 80002d2:	0a83      	lsrs	r3, r0, #10
 80002d4:	428b      	cmp	r3, r1
 80002d6:	d301      	bcc.n	80002dc <__divsi3+0x88>
 80002d8:	028b      	lsls	r3, r1, #10
 80002da:	1ac0      	subs	r0, r0, r3
 80002dc:	4152      	adcs	r2, r2
 80002de:	0a43      	lsrs	r3, r0, #9
 80002e0:	428b      	cmp	r3, r1
 80002e2:	d301      	bcc.n	80002e8 <__divsi3+0x94>
 80002e4:	024b      	lsls	r3, r1, #9
 80002e6:	1ac0      	subs	r0, r0, r3
 80002e8:	4152      	adcs	r2, r2
 80002ea:	0a03      	lsrs	r3, r0, #8
 80002ec:	428b      	cmp	r3, r1
 80002ee:	d301      	bcc.n	80002f4 <__divsi3+0xa0>
 80002f0:	020b      	lsls	r3, r1, #8
 80002f2:	1ac0      	subs	r0, r0, r3
 80002f4:	4152      	adcs	r2, r2
 80002f6:	d2cd      	bcs.n	8000294 <__divsi3+0x40>
 80002f8:	09c3      	lsrs	r3, r0, #7
 80002fa:	428b      	cmp	r3, r1
 80002fc:	d301      	bcc.n	8000302 <__divsi3+0xae>
 80002fe:	01cb      	lsls	r3, r1, #7
 8000300:	1ac0      	subs	r0, r0, r3
 8000302:	4152      	adcs	r2, r2
 8000304:	0983      	lsrs	r3, r0, #6
 8000306:	428b      	cmp	r3, r1
 8000308:	d301      	bcc.n	800030e <__divsi3+0xba>
 800030a:	018b      	lsls	r3, r1, #6
 800030c:	1ac0      	subs	r0, r0, r3
 800030e:	4152      	adcs	r2, r2
 8000310:	0943      	lsrs	r3, r0, #5
 8000312:	428b      	cmp	r3, r1
 8000314:	d301      	bcc.n	800031a <__divsi3+0xc6>
 8000316:	014b      	lsls	r3, r1, #5
 8000318:	1ac0      	subs	r0, r0, r3
 800031a:	4152      	adcs	r2, r2
 800031c:	0903      	lsrs	r3, r0, #4
 800031e:	428b      	cmp	r3, r1
 8000320:	d301      	bcc.n	8000326 <__divsi3+0xd2>
 8000322:	010b      	lsls	r3, r1, #4
 8000324:	1ac0      	subs	r0, r0, r3
 8000326:	4152      	adcs	r2, r2
 8000328:	08c3      	lsrs	r3, r0, #3
 800032a:	428b      	cmp	r3, r1
 800032c:	d301      	bcc.n	8000332 <__divsi3+0xde>
 800032e:	00cb      	lsls	r3, r1, #3
 8000330:	1ac0      	subs	r0, r0, r3
 8000332:	4152      	adcs	r2, r2
 8000334:	0883      	lsrs	r3, r0, #2
 8000336:	428b      	cmp	r3, r1
 8000338:	d301      	bcc.n	800033e <__divsi3+0xea>
 800033a:	008b      	lsls	r3, r1, #2
 800033c:	1ac0      	subs	r0, r0, r3
 800033e:	4152      	adcs	r2, r2
 8000340:	0843      	lsrs	r3, r0, #1
 8000342:	428b      	cmp	r3, r1
 8000344:	d301      	bcc.n	800034a <__divsi3+0xf6>
 8000346:	004b      	lsls	r3, r1, #1
 8000348:	1ac0      	subs	r0, r0, r3
 800034a:	4152      	adcs	r2, r2
 800034c:	1a41      	subs	r1, r0, r1
 800034e:	d200      	bcs.n	8000352 <__divsi3+0xfe>
 8000350:	4601      	mov	r1, r0
 8000352:	4152      	adcs	r2, r2
 8000354:	4610      	mov	r0, r2
 8000356:	4770      	bx	lr
 8000358:	e05d      	b.n	8000416 <__divsi3+0x1c2>
 800035a:	0fca      	lsrs	r2, r1, #31
 800035c:	d000      	beq.n	8000360 <__divsi3+0x10c>
 800035e:	4249      	negs	r1, r1
 8000360:	1003      	asrs	r3, r0, #32
 8000362:	d300      	bcc.n	8000366 <__divsi3+0x112>
 8000364:	4240      	negs	r0, r0
 8000366:	4053      	eors	r3, r2
 8000368:	2200      	movs	r2, #0
 800036a:	469c      	mov	ip, r3
 800036c:	0903      	lsrs	r3, r0, #4
 800036e:	428b      	cmp	r3, r1
 8000370:	d32d      	bcc.n	80003ce <__divsi3+0x17a>
 8000372:	0a03      	lsrs	r3, r0, #8
 8000374:	428b      	cmp	r3, r1
 8000376:	d312      	bcc.n	800039e <__divsi3+0x14a>
 8000378:	22fc      	movs	r2, #252	; 0xfc
 800037a:	0189      	lsls	r1, r1, #6
 800037c:	ba12      	rev	r2, r2
 800037e:	0a03      	lsrs	r3, r0, #8
 8000380:	428b      	cmp	r3, r1
 8000382:	d30c      	bcc.n	800039e <__divsi3+0x14a>
 8000384:	0189      	lsls	r1, r1, #6
 8000386:	1192      	asrs	r2, r2, #6
 8000388:	428b      	cmp	r3, r1
 800038a:	d308      	bcc.n	800039e <__divsi3+0x14a>
 800038c:	0189      	lsls	r1, r1, #6
 800038e:	1192      	asrs	r2, r2, #6
 8000390:	428b      	cmp	r3, r1
 8000392:	d304      	bcc.n	800039e <__divsi3+0x14a>
 8000394:	0189      	lsls	r1, r1, #6
 8000396:	d03a      	beq.n	800040e <__divsi3+0x1ba>
 8000398:	1192      	asrs	r2, r2, #6
 800039a:	e000      	b.n	800039e <__divsi3+0x14a>
 800039c:	0989      	lsrs	r1, r1, #6
 800039e:	09c3      	lsrs	r3, r0, #7
 80003a0:	428b      	cmp	r3, r1
 80003a2:	d301      	bcc.n	80003a8 <__divsi3+0x154>
 80003a4:	01cb      	lsls	r3, r1, #7
 80003a6:	1ac0      	subs	r0, r0, r3
 80003a8:	4152      	adcs	r2, r2
 80003aa:	0983      	lsrs	r3, r0, #6
 80003ac:	428b      	cmp	r3, r1
 80003ae:	d301      	bcc.n	80003b4 <__divsi3+0x160>
 80003b0:	018b      	lsls	r3, r1, #6
 80003b2:	1ac0      	subs	r0, r0, r3
 80003b4:	4152      	adcs	r2, r2
 80003b6:	0943      	lsrs	r3, r0, #5
 80003b8:	428b      	cmp	r3, r1
 80003ba:	d301      	bcc.n	80003c0 <__divsi3+0x16c>
 80003bc:	014b      	lsls	r3, r1, #5
 80003be:	1ac0      	subs	r0, r0, r3
 80003c0:	4152      	adcs	r2, r2
 80003c2:	0903      	lsrs	r3, r0, #4
 80003c4:	428b      	cmp	r3, r1
 80003c6:	d301      	bcc.n	80003cc <__divsi3+0x178>
 80003c8:	010b      	lsls	r3, r1, #4
 80003ca:	1ac0      	subs	r0, r0, r3
 80003cc:	4152      	adcs	r2, r2
 80003ce:	08c3      	lsrs	r3, r0, #3
 80003d0:	428b      	cmp	r3, r1
 80003d2:	d301      	bcc.n	80003d8 <__divsi3+0x184>
 80003d4:	00cb      	lsls	r3, r1, #3
 80003d6:	1ac0      	subs	r0, r0, r3
 80003d8:	4152      	adcs	r2, r2
 80003da:	0883      	lsrs	r3, r0, #2
 80003dc:	428b      	cmp	r3, r1
 80003de:	d301      	bcc.n	80003e4 <__divsi3+0x190>
 80003e0:	008b      	lsls	r3, r1, #2
 80003e2:	1ac0      	subs	r0, r0, r3
 80003e4:	4152      	adcs	r2, r2
 80003e6:	d2d9      	bcs.n	800039c <__divsi3+0x148>
 80003e8:	0843      	lsrs	r3, r0, #1
 80003ea:	428b      	cmp	r3, r1
 80003ec:	d301      	bcc.n	80003f2 <__divsi3+0x19e>
 80003ee:	004b      	lsls	r3, r1, #1
 80003f0:	1ac0      	subs	r0, r0, r3
 80003f2:	4152      	adcs	r2, r2
 80003f4:	1a41      	subs	r1, r0, r1
 80003f6:	d200      	bcs.n	80003fa <__divsi3+0x1a6>
 80003f8:	4601      	mov	r1, r0
 80003fa:	4663      	mov	r3, ip
 80003fc:	4152      	adcs	r2, r2
 80003fe:	105b      	asrs	r3, r3, #1
 8000400:	4610      	mov	r0, r2
 8000402:	d301      	bcc.n	8000408 <__divsi3+0x1b4>
 8000404:	4240      	negs	r0, r0
 8000406:	2b00      	cmp	r3, #0
 8000408:	d500      	bpl.n	800040c <__divsi3+0x1b8>
 800040a:	4249      	negs	r1, r1
 800040c:	4770      	bx	lr
 800040e:	4663      	mov	r3, ip
 8000410:	105b      	asrs	r3, r3, #1
 8000412:	d300      	bcc.n	8000416 <__divsi3+0x1c2>
 8000414:	4240      	negs	r0, r0
 8000416:	b501      	push	{r0, lr}
 8000418:	2000      	movs	r0, #0
 800041a:	f000 f805 	bl	8000428 <__aeabi_idiv0>
 800041e:	bd02      	pop	{r1, pc}

08000420 <__aeabi_idivmod>:
 8000420:	2900      	cmp	r1, #0
 8000422:	d0f8      	beq.n	8000416 <__divsi3+0x1c2>
 8000424:	e716      	b.n	8000254 <__divsi3>
 8000426:	4770      	bx	lr

08000428 <__aeabi_idiv0>:
 8000428:	4770      	bx	lr
 800042a:	46c0      	nop			; (mov r8, r8)

0800042c <__aeabi_uldivmod>:
 800042c:	2b00      	cmp	r3, #0
 800042e:	d111      	bne.n	8000454 <__aeabi_uldivmod+0x28>
 8000430:	2a00      	cmp	r2, #0
 8000432:	d10f      	bne.n	8000454 <__aeabi_uldivmod+0x28>
 8000434:	2900      	cmp	r1, #0
 8000436:	d100      	bne.n	800043a <__aeabi_uldivmod+0xe>
 8000438:	2800      	cmp	r0, #0
 800043a:	d002      	beq.n	8000442 <__aeabi_uldivmod+0x16>
 800043c:	2100      	movs	r1, #0
 800043e:	43c9      	mvns	r1, r1
 8000440:	0008      	movs	r0, r1
 8000442:	b407      	push	{r0, r1, r2}
 8000444:	4802      	ldr	r0, [pc, #8]	; (8000450 <__aeabi_uldivmod+0x24>)
 8000446:	a102      	add	r1, pc, #8	; (adr r1, 8000450 <__aeabi_uldivmod+0x24>)
 8000448:	1840      	adds	r0, r0, r1
 800044a:	9002      	str	r0, [sp, #8]
 800044c:	bd03      	pop	{r0, r1, pc}
 800044e:	46c0      	nop			; (mov r8, r8)
 8000450:	ffffffd9 	.word	0xffffffd9
 8000454:	b403      	push	{r0, r1}
 8000456:	4668      	mov	r0, sp
 8000458:	b501      	push	{r0, lr}
 800045a:	9802      	ldr	r0, [sp, #8]
 800045c:	f000 f834 	bl	80004c8 <__udivmoddi4>
 8000460:	9b01      	ldr	r3, [sp, #4]
 8000462:	469e      	mov	lr, r3
 8000464:	b002      	add	sp, #8
 8000466:	bc0c      	pop	{r2, r3}
 8000468:	4770      	bx	lr
 800046a:	46c0      	nop			; (mov r8, r8)

0800046c <__aeabi_lmul>:
 800046c:	b5f0      	push	{r4, r5, r6, r7, lr}
 800046e:	46ce      	mov	lr, r9
 8000470:	4647      	mov	r7, r8
 8000472:	b580      	push	{r7, lr}
 8000474:	0007      	movs	r7, r0
 8000476:	4699      	mov	r9, r3
 8000478:	0c3b      	lsrs	r3, r7, #16
 800047a:	469c      	mov	ip, r3
 800047c:	0413      	lsls	r3, r2, #16
 800047e:	0c1b      	lsrs	r3, r3, #16
 8000480:	001d      	movs	r5, r3
 8000482:	000e      	movs	r6, r1
 8000484:	4661      	mov	r1, ip
 8000486:	0400      	lsls	r0, r0, #16
 8000488:	0c14      	lsrs	r4, r2, #16
 800048a:	0c00      	lsrs	r0, r0, #16
 800048c:	4345      	muls	r5, r0
 800048e:	434b      	muls	r3, r1
 8000490:	4360      	muls	r0, r4
 8000492:	4361      	muls	r1, r4
 8000494:	18c0      	adds	r0, r0, r3
 8000496:	0c2c      	lsrs	r4, r5, #16
 8000498:	1820      	adds	r0, r4, r0
 800049a:	468c      	mov	ip, r1
 800049c:	4283      	cmp	r3, r0
 800049e:	d903      	bls.n	80004a8 <__aeabi_lmul+0x3c>
 80004a0:	2380      	movs	r3, #128	; 0x80
 80004a2:	025b      	lsls	r3, r3, #9
 80004a4:	4698      	mov	r8, r3
 80004a6:	44c4      	add	ip, r8
 80004a8:	4649      	mov	r1, r9
 80004aa:	4379      	muls	r1, r7
 80004ac:	4372      	muls	r2, r6
 80004ae:	0c03      	lsrs	r3, r0, #16
 80004b0:	4463      	add	r3, ip
 80004b2:	042d      	lsls	r5, r5, #16
 80004b4:	0c2d      	lsrs	r5, r5, #16
 80004b6:	18c9      	adds	r1, r1, r3
 80004b8:	0400      	lsls	r0, r0, #16
 80004ba:	1940      	adds	r0, r0, r5
 80004bc:	1889      	adds	r1, r1, r2
 80004be:	bcc0      	pop	{r6, r7}
 80004c0:	46b9      	mov	r9, r7
 80004c2:	46b0      	mov	r8, r6
 80004c4:	bdf0      	pop	{r4, r5, r6, r7, pc}
 80004c6:	46c0      	nop			; (mov r8, r8)

080004c8 <__udivmoddi4>:
 80004c8:	b5f0      	push	{r4, r5, r6, r7, lr}
 80004ca:	4657      	mov	r7, sl
 80004cc:	464e      	mov	r6, r9
 80004ce:	4645      	mov	r5, r8
 80004d0:	46de      	mov	lr, fp
 80004d2:	b5e0      	push	{r5, r6, r7, lr}
 80004d4:	0004      	movs	r4, r0
 80004d6:	000d      	movs	r5, r1
 80004d8:	4692      	mov	sl, r2
 80004da:	4699      	mov	r9, r3
 80004dc:	b083      	sub	sp, #12
 80004de:	428b      	cmp	r3, r1
 80004e0:	d830      	bhi.n	8000544 <__udivmoddi4+0x7c>
 80004e2:	d02d      	beq.n	8000540 <__udivmoddi4+0x78>
 80004e4:	4649      	mov	r1, r9
 80004e6:	4650      	mov	r0, sl
 80004e8:	f000 f8d8 	bl	800069c <__clzdi2>
 80004ec:	0029      	movs	r1, r5
 80004ee:	0006      	movs	r6, r0
 80004f0:	0020      	movs	r0, r4
 80004f2:	f000 f8d3 	bl	800069c <__clzdi2>
 80004f6:	1a33      	subs	r3, r6, r0
 80004f8:	4698      	mov	r8, r3
 80004fa:	3b20      	subs	r3, #32
 80004fc:	469b      	mov	fp, r3
 80004fe:	d433      	bmi.n	8000568 <__udivmoddi4+0xa0>
 8000500:	465a      	mov	r2, fp
 8000502:	4653      	mov	r3, sl
 8000504:	4093      	lsls	r3, r2
 8000506:	4642      	mov	r2, r8
 8000508:	001f      	movs	r7, r3
 800050a:	4653      	mov	r3, sl
 800050c:	4093      	lsls	r3, r2
 800050e:	001e      	movs	r6, r3
 8000510:	42af      	cmp	r7, r5
 8000512:	d83a      	bhi.n	800058a <__udivmoddi4+0xc2>
 8000514:	42af      	cmp	r7, r5
 8000516:	d100      	bne.n	800051a <__udivmoddi4+0x52>
 8000518:	e078      	b.n	800060c <__udivmoddi4+0x144>
 800051a:	465b      	mov	r3, fp
 800051c:	1ba4      	subs	r4, r4, r6
 800051e:	41bd      	sbcs	r5, r7
 8000520:	2b00      	cmp	r3, #0
 8000522:	da00      	bge.n	8000526 <__udivmoddi4+0x5e>
 8000524:	e075      	b.n	8000612 <__udivmoddi4+0x14a>
 8000526:	2200      	movs	r2, #0
 8000528:	2300      	movs	r3, #0
 800052a:	9200      	str	r2, [sp, #0]
 800052c:	9301      	str	r3, [sp, #4]
 800052e:	2301      	movs	r3, #1
 8000530:	465a      	mov	r2, fp
 8000532:	4093      	lsls	r3, r2
 8000534:	9301      	str	r3, [sp, #4]
 8000536:	2301      	movs	r3, #1
 8000538:	4642      	mov	r2, r8
 800053a:	4093      	lsls	r3, r2
 800053c:	9300      	str	r3, [sp, #0]
 800053e:	e028      	b.n	8000592 <__udivmoddi4+0xca>
 8000540:	4282      	cmp	r2, r0
 8000542:	d9cf      	bls.n	80004e4 <__udivmoddi4+0x1c>
 8000544:	2200      	movs	r2, #0
 8000546:	2300      	movs	r3, #0
 8000548:	9200      	str	r2, [sp, #0]
 800054a:	9301      	str	r3, [sp, #4]
 800054c:	9b0c      	ldr	r3, [sp, #48]	; 0x30
 800054e:	2b00      	cmp	r3, #0
 8000550:	d001      	beq.n	8000556 <__udivmoddi4+0x8e>
 8000552:	601c      	str	r4, [r3, #0]
 8000554:	605d      	str	r5, [r3, #4]
 8000556:	9800      	ldr	r0, [sp, #0]
 8000558:	9901      	ldr	r1, [sp, #4]
 800055a:	b003      	add	sp, #12
 800055c:	bcf0      	pop	{r4, r5, r6, r7}
 800055e:	46bb      	mov	fp, r7
 8000560:	46b2      	mov	sl, r6
 8000562:	46a9      	mov	r9, r5
 8000564:	46a0      	mov	r8, r4
 8000566:	bdf0      	pop	{r4, r5, r6, r7, pc}
 8000568:	4642      	mov	r2, r8
 800056a:	2320      	movs	r3, #32
 800056c:	1a9b      	subs	r3, r3, r2
 800056e:	4652      	mov	r2, sl
 8000570:	40da      	lsrs	r2, r3
 8000572:	4641      	mov	r1, r8
 8000574:	0013      	movs	r3, r2
 8000576:	464a      	mov	r2, r9
 8000578:	408a      	lsls	r2, r1
 800057a:	0017      	movs	r7, r2
 800057c:	4642      	mov	r2, r8
 800057e:	431f      	orrs	r7, r3
 8000580:	4653      	mov	r3, sl
 8000582:	4093      	lsls	r3, r2
 8000584:	001e      	movs	r6, r3
 8000586:	42af      	cmp	r7, r5
 8000588:	d9c4      	bls.n	8000514 <__udivmoddi4+0x4c>
 800058a:	2200      	movs	r2, #0
 800058c:	2300      	movs	r3, #0
 800058e:	9200      	str	r2, [sp, #0]
 8000590:	9301      	str	r3, [sp, #4]
 8000592:	4643      	mov	r3, r8
 8000594:	2b00      	cmp	r3, #0
 8000596:	d0d9      	beq.n	800054c <__udivmoddi4+0x84>
 8000598:	07fb      	lsls	r3, r7, #31
 800059a:	0872      	lsrs	r2, r6, #1
 800059c:	431a      	orrs	r2, r3
 800059e:	4646      	mov	r6, r8
 80005a0:	087b      	lsrs	r3, r7, #1
 80005a2:	e00e      	b.n	80005c2 <__udivmoddi4+0xfa>
 80005a4:	42ab      	cmp	r3, r5
 80005a6:	d101      	bne.n	80005ac <__udivmoddi4+0xe4>
 80005a8:	42a2      	cmp	r2, r4
 80005aa:	d80c      	bhi.n	80005c6 <__udivmoddi4+0xfe>
 80005ac:	1aa4      	subs	r4, r4, r2
 80005ae:	419d      	sbcs	r5, r3
 80005b0:	2001      	movs	r0, #1
 80005b2:	1924      	adds	r4, r4, r4
 80005b4:	416d      	adcs	r5, r5
 80005b6:	2100      	movs	r1, #0
 80005b8:	3e01      	subs	r6, #1
 80005ba:	1824      	adds	r4, r4, r0
 80005bc:	414d      	adcs	r5, r1
 80005be:	2e00      	cmp	r6, #0
 80005c0:	d006      	beq.n	80005d0 <__udivmoddi4+0x108>
 80005c2:	42ab      	cmp	r3, r5
 80005c4:	d9ee      	bls.n	80005a4 <__udivmoddi4+0xdc>
 80005c6:	3e01      	subs	r6, #1
 80005c8:	1924      	adds	r4, r4, r4
 80005ca:	416d      	adcs	r5, r5
 80005cc:	2e00      	cmp	r6, #0
 80005ce:	d1f8      	bne.n	80005c2 <__udivmoddi4+0xfa>
 80005d0:	9800      	ldr	r0, [sp, #0]
 80005d2:	9901      	ldr	r1, [sp, #4]
 80005d4:	465b      	mov	r3, fp
 80005d6:	1900      	adds	r0, r0, r4
 80005d8:	4169      	adcs	r1, r5
 80005da:	2b00      	cmp	r3, #0
 80005dc:	db24      	blt.n	8000628 <__udivmoddi4+0x160>
 80005de:	002b      	movs	r3, r5
 80005e0:	465a      	mov	r2, fp
 80005e2:	4644      	mov	r4, r8
 80005e4:	40d3      	lsrs	r3, r2
 80005e6:	002a      	movs	r2, r5
 80005e8:	40e2      	lsrs	r2, r4
 80005ea:	001c      	movs	r4, r3
 80005ec:	465b      	mov	r3, fp
 80005ee:	0015      	movs	r5, r2
 80005f0:	2b00      	cmp	r3, #0
 80005f2:	db2a      	blt.n	800064a <__udivmoddi4+0x182>
 80005f4:	0026      	movs	r6, r4
 80005f6:	409e      	lsls	r6, r3
 80005f8:	0033      	movs	r3, r6
 80005fa:	0026      	movs	r6, r4
 80005fc:	4647      	mov	r7, r8
 80005fe:	40be      	lsls	r6, r7
 8000600:	0032      	movs	r2, r6
 8000602:	1a80      	subs	r0, r0, r2
 8000604:	4199      	sbcs	r1, r3
 8000606:	9000      	str	r0, [sp, #0]
 8000608:	9101      	str	r1, [sp, #4]
 800060a:	e79f      	b.n	800054c <__udivmoddi4+0x84>
 800060c:	42a3      	cmp	r3, r4
 800060e:	d8bc      	bhi.n	800058a <__udivmoddi4+0xc2>
 8000610:	e783      	b.n	800051a <__udivmoddi4+0x52>
 8000612:	4642      	mov	r2, r8
 8000614:	2320      	movs	r3, #32
 8000616:	2100      	movs	r1, #0
 8000618:	1a9b      	subs	r3, r3, r2
 800061a:	2200      	movs	r2, #0
 800061c:	9100      	str	r1, [sp, #0]
 800061e:	9201      	str	r2, [sp, #4]
 8000620:	2201      	movs	r2, #1
 8000622:	40da      	lsrs	r2, r3
 8000624:	9201      	str	r2, [sp, #4]
 8000626:	e786      	b.n	8000536 <__udivmoddi4+0x6e>
 8000628:	4642      	mov	r2, r8
 800062a:	2320      	movs	r3, #32
 800062c:	1a9b      	subs	r3, r3, r2
 800062e:	002a      	movs	r2, r5
 8000630:	4646      	mov	r6, r8
 8000632:	409a      	lsls	r2, r3
 8000634:	0023      	movs	r3, r4
 8000636:	40f3      	lsrs	r3, r6
 8000638:	4644      	mov	r4, r8
 800063a:	4313      	orrs	r3, r2
 800063c:	002a      	movs	r2, r5
 800063e:	40e2      	lsrs	r2, r4
 8000640:	001c      	movs	r4, r3
 8000642:	465b      	mov	r3, fp
 8000644:	0015      	movs	r5, r2
 8000646:	2b00      	cmp	r3, #0
 8000648:	dad4      	bge.n	80005f4 <__udivmoddi4+0x12c>
 800064a:	4642      	mov	r2, r8
 800064c:	002f      	movs	r7, r5
 800064e:	2320      	movs	r3, #32
 8000650:	0026      	movs	r6, r4
 8000652:	4097      	lsls	r7, r2
 8000654:	1a9b      	subs	r3, r3, r2
 8000656:	40de      	lsrs	r6, r3
 8000658:	003b      	movs	r3, r7
 800065a:	4333      	orrs	r3, r6
 800065c:	e7cd      	b.n	80005fa <__udivmoddi4+0x132>
 800065e:	46c0      	nop			; (mov r8, r8)

08000660 <__clzsi2>:
 8000660:	211c      	movs	r1, #28
 8000662:	2301      	movs	r3, #1
 8000664:	041b      	lsls	r3, r3, #16
 8000666:	4298      	cmp	r0, r3
 8000668:	d301      	bcc.n	800066e <__clzsi2+0xe>
 800066a:	0c00      	lsrs	r0, r0, #16
 800066c:	3910      	subs	r1, #16
 800066e:	0a1b      	lsrs	r3, r3, #8
 8000670:	4298      	cmp	r0, r3
 8000672:	d301      	bcc.n	8000678 <__clzsi2+0x18>
 8000674:	0a00      	lsrs	r0, r0, #8
 8000676:	3908      	subs	r1, #8
 8000678:	091b      	lsrs	r3, r3, #4
 800067a:	4298      	cmp	r0, r3
 800067c:	d301      	bcc.n	8000682 <__clzsi2+0x22>
 800067e:	0900      	lsrs	r0, r0, #4
 8000680:	3904      	subs	r1, #4
 8000682:	a202      	add	r2, pc, #8	; (adr r2, 800068c <__clzsi2+0x2c>)
 8000684:	5c10      	ldrb	r0, [r2, r0]
 8000686:	1840      	adds	r0, r0, r1
 8000688:	4770      	bx	lr
 800068a:	46c0      	nop			; (mov r8, r8)
 800068c:	02020304 	.word	0x02020304
 8000690:	01010101 	.word	0x01010101
	...

0800069c <__clzdi2>:
 800069c:	b510      	push	{r4, lr}
 800069e:	2900      	cmp	r1, #0
 80006a0:	d103      	bne.n	80006aa <__clzdi2+0xe>
 80006a2:	f7ff ffdd 	bl	8000660 <__clzsi2>
 80006a6:	3020      	adds	r0, #32
 80006a8:	e002      	b.n	80006b0 <__clzdi2+0x14>
 80006aa:	0008      	movs	r0, r1
 80006ac:	f7ff ffd8 	bl	8000660 <__clzsi2>
 80006b0:	bd10      	pop	{r4, pc}
 80006b2:	46c0      	nop			; (mov r8, r8)

080006b4 <initDrv8830>:
 80006b4:	b57f      	push	{r0, r1, r2, r3, r4, r5, r6, lr}
 80006b6:	2317      	movs	r3, #23
 80006b8:	2280      	movs	r2, #128	; 0x80
 80006ba:	446b      	add	r3, sp
 80006bc:	701a      	strb	r2, [r3, #0]
 80006be:	3a7b      	subs	r2, #123	; 0x7b
 80006c0:	9202      	str	r2, [sp, #8]
 80006c2:	3a04      	subs	r2, #4
 80006c4:	9300      	str	r3, [sp, #0]
 80006c6:	21c0      	movs	r1, #192	; 0xc0
 80006c8:	0013      	movs	r3, r2
 80006ca:	9201      	str	r2, [sp, #4]
 80006cc:	4802      	ldr	r0, [pc, #8]	; (80006d8 <initDrv8830+0x24>)
 80006ce:	f001 f9fd 	bl	8001acc <HAL_I2C_Mem_Write>
 80006d2:	b007      	add	sp, #28
 80006d4:	bd00      	pop	{pc}
 80006d6:	46c0      	nop			; (mov r8, r8)
 80006d8:	20000124 	.word	0x20000124

080006dc <setMotor>:
 80006dc:	2368      	movs	r3, #104	; 0x68
 80006de:	2216      	movs	r2, #22
 80006e0:	b570      	push	{r4, r5, r6, lr}
 80006e2:	2401      	movs	r4, #1
 80006e4:	2505      	movs	r5, #5
 80006e6:	b086      	sub	sp, #24
 80006e8:	4e0d      	ldr	r6, [pc, #52]	; (8000720 <setMotor+0x44>)
 80006ea:	425b      	negs	r3, r3
 80006ec:	446a      	add	r2, sp
 80006ee:	4303      	orrs	r3, r0
 80006f0:	7013      	strb	r3, [r2, #0]
 80006f2:	21c0      	movs	r1, #192	; 0xc0
 80006f4:	0023      	movs	r3, r4
 80006f6:	9502      	str	r5, [sp, #8]
 80006f8:	9200      	str	r2, [sp, #0]
 80006fa:	0030      	movs	r0, r6
 80006fc:	2200      	movs	r2, #0
 80006fe:	9401      	str	r4, [sp, #4]
 8000700:	f001 f9e4 	bl	8001acc <HAL_I2C_Mem_Write>
 8000704:	9502      	str	r5, [sp, #8]
 8000706:	3512      	adds	r5, #18
 8000708:	446d      	add	r5, sp
 800070a:	0023      	movs	r3, r4
 800070c:	0022      	movs	r2, r4
 800070e:	21c0      	movs	r1, #192	; 0xc0
 8000710:	0030      	movs	r0, r6
 8000712:	9401      	str	r4, [sp, #4]
 8000714:	9500      	str	r5, [sp, #0]
 8000716:	f001 fab7 	bl	8001c88 <HAL_I2C_Mem_Read>
 800071a:	7828      	ldrb	r0, [r5, #0]
 800071c:	b006      	add	sp, #24
 800071e:	bd70      	pop	{r4, r5, r6, pc}
 8000720:	20000124 	.word	0x20000124

08000724 <initEns160>:
 8000724:	b57f      	push	{r0, r1, r2, r3, r4, r5, r6, lr}
 8000726:	2217      	movs	r2, #23
 8000728:	2302      	movs	r3, #2
 800072a:	446a      	add	r2, sp
 800072c:	7013      	strb	r3, [r2, #0]
 800072e:	3308      	adds	r3, #8
 8000730:	9302      	str	r3, [sp, #8]
 8000732:	3b09      	subs	r3, #9
 8000734:	9200      	str	r2, [sp, #0]
 8000736:	21a4      	movs	r1, #164	; 0xa4
 8000738:	2210      	movs	r2, #16
 800073a:	9301      	str	r3, [sp, #4]
 800073c:	4802      	ldr	r0, [pc, #8]	; (8000748 <initEns160+0x24>)
 800073e:	f001 f9c5 	bl	8001acc <HAL_I2C_Mem_Write>
 8000742:	b007      	add	sp, #28
 8000744:	bd00      	pop	{pc}
 8000746:	46c0      	nop			; (mov r8, r8)
 8000748:	20000124 	.word	0x20000124

0800074c <BUZ.part.0>:
 800074c:	b510      	push	{r4, lr}
 800074e:	2100      	movs	r1, #0
 8000750:	4801      	ldr	r0, [pc, #4]	; (8000758 <BUZ.part.0+0xc>)
 8000752:	f002 f945 	bl	80029e0 <HAL_TIM_PWM_Start>
 8000756:	bd10      	pop	{r4, pc}
 8000758:	20000178 	.word	0x20000178

0800075c <BUZ_tone>:
 800075c:	0001      	movs	r1, r0
 800075e:	b510      	push	{r4, lr}
 8000760:	4805      	ldr	r0, [pc, #20]	; (8000778 <BUZ_tone+0x1c>)
 8000762:	f7ff fd77 	bl	8000254 <__divsi3>
 8000766:	2380      	movs	r3, #128	; 0x80
 8000768:	3801      	subs	r0, #1
 800076a:	05db      	lsls	r3, r3, #23
 800076c:	62d8      	str	r0, [r3, #44]	; 0x2c
 800076e:	6ada      	ldr	r2, [r3, #44]	; 0x2c
 8000770:	0852      	lsrs	r2, r2, #1
 8000772:	635a      	str	r2, [r3, #52]	; 0x34
 8000774:	bd10      	pop	{r4, pc}
 8000776:	46c0      	nop			; (mov r8, r8)
 8000778:	000f4240 	.word	0x000f4240

0800077c <BUZ>:
 800077c:	0001      	movs	r1, r0
 800077e:	b510      	push	{r4, lr}
 8000780:	2800      	cmp	r0, #0
 8000782:	d002      	beq.n	800078a <BUZ+0xe>
 8000784:	f7ff ffe2 	bl	800074c <BUZ.part.0>
 8000788:	bd10      	pop	{r4, pc}
 800078a:	4802      	ldr	r0, [pc, #8]	; (8000794 <BUZ+0x18>)
 800078c:	f002 f92c 	bl	80029e8 <HAL_TIM_PWM_Stop>
 8000790:	e7fa      	b.n	8000788 <BUZ+0xc>
 8000792:	46c0      	nop			; (mov r8, r8)
 8000794:	20000178 	.word	0x20000178

08000798 <nextion_inst_set>:
 8000798:	b573      	push	{r0, r1, r4, r5, r6, lr}
 800079a:	2503      	movs	r5, #3
 800079c:	0004      	movs	r4, r0
 800079e:	002a      	movs	r2, r5
 80007a0:	490a      	ldr	r1, [pc, #40]	; (80007cc <nextion_inst_set+0x34>)
 80007a2:	a801      	add	r0, sp, #4
 80007a4:	f002 fd6c 	bl	8003280 <memcpy>
 80007a8:	0020      	movs	r0, r4
 80007aa:	f7ff fcad 	bl	8000108 <strlen>
 80007ae:	4e08      	ldr	r6, [pc, #32]	; (80007d0 <nextion_inst_set+0x38>)
 80007b0:	0021      	movs	r1, r4
 80007b2:	b282      	uxth	r2, r0
 80007b4:	2364      	movs	r3, #100	; 0x64
 80007b6:	0030      	movs	r0, r6
 80007b8:	f002 fbbb 	bl	8002f32 <HAL_UART_Transmit>
 80007bc:	002a      	movs	r2, r5
 80007be:	0030      	movs	r0, r6
 80007c0:	2364      	movs	r3, #100	; 0x64
 80007c2:	a901      	add	r1, sp, #4
 80007c4:	f002 fbb5 	bl	8002f32 <HAL_UART_Transmit>
 80007c8:	bd73      	pop	{r0, r1, r4, r5, r6, pc}
 80007ca:	46c0      	nop			; (mov r8, r8)
 80007cc:	08003b82 	.word	0x08003b82
 80007d0:	200001b8 	.word	0x200001b8

080007d4 <get_touch>:
 80007d4:	2300      	movs	r3, #0
 80007d6:	b537      	push	{r0, r1, r2, r4, r5, lr}
 80007d8:	0004      	movs	r4, r0
 80007da:	481b      	ldr	r0, [pc, #108]	; (8000848 <get_touch+0x74>)
 80007dc:	9300      	str	r3, [sp, #0]
 80007de:	9301      	str	r3, [sp, #4]
 80007e0:	f7ff ffda 	bl	8000798 <nextion_inst_set>
 80007e4:	4d19      	ldr	r5, [pc, #100]	; (800084c <get_touch+0x78>)
 80007e6:	2364      	movs	r3, #100	; 0x64
 80007e8:	2208      	movs	r2, #8
 80007ea:	4669      	mov	r1, sp
 80007ec:	0028      	movs	r0, r5
 80007ee:	f002 fc07 	bl	8003000 <HAL_UART_Receive>
 80007f2:	2800      	cmp	r0, #0
 80007f4:	d109      	bne.n	800080a <get_touch+0x36>
 80007f6:	466b      	mov	r3, sp
 80007f8:	781b      	ldrb	r3, [r3, #0]
 80007fa:	2b71      	cmp	r3, #113	; 0x71
 80007fc:	d105      	bne.n	800080a <get_touch+0x36>
 80007fe:	466b      	mov	r3, sp
 8000800:	7859      	ldrb	r1, [r3, #1]
 8000802:	789b      	ldrb	r3, [r3, #2]
 8000804:	021b      	lsls	r3, r3, #8
 8000806:	430b      	orrs	r3, r1
 8000808:	8023      	strh	r3, [r4, #0]
 800080a:	4811      	ldr	r0, [pc, #68]	; (8000850 <get_touch+0x7c>)
 800080c:	f7ff ffc4 	bl	8000798 <nextion_inst_set>
 8000810:	2364      	movs	r3, #100	; 0x64
 8000812:	2208      	movs	r2, #8
 8000814:	4669      	mov	r1, sp
 8000816:	0028      	movs	r0, r5
 8000818:	f002 fbf2 	bl	8003000 <HAL_UART_Receive>
 800081c:	2800      	cmp	r0, #0
 800081e:	d109      	bne.n	8000834 <get_touch+0x60>
 8000820:	466b      	mov	r3, sp
 8000822:	781b      	ldrb	r3, [r3, #0]
 8000824:	2b71      	cmp	r3, #113	; 0x71
 8000826:	d105      	bne.n	8000834 <get_touch+0x60>
 8000828:	466b      	mov	r3, sp
 800082a:	7859      	ldrb	r1, [r3, #1]
 800082c:	789b      	ldrb	r3, [r3, #2]
 800082e:	021b      	lsls	r3, r3, #8
 8000830:	430b      	orrs	r3, r1
 8000832:	8063      	strh	r3, [r4, #2]
 8000834:	2300      	movs	r3, #0
 8000836:	8822      	ldrh	r2, [r4, #0]
 8000838:	429a      	cmp	r2, r3
 800083a:	d003      	beq.n	8000844 <get_touch+0x70>
 800083c:	8863      	ldrh	r3, [r4, #2]
 800083e:	1e5a      	subs	r2, r3, #1
 8000840:	4193      	sbcs	r3, r2
 8000842:	b2db      	uxtb	r3, r3
 8000844:	7123      	strb	r3, [r4, #4]
 8000846:	bd37      	pop	{r0, r1, r2, r4, r5, pc}
 8000848:	08003b86 	.word	0x08003b86
 800084c:	200001b8 	.word	0x200001b8
 8000850:	08003b8f 	.word	0x08003b8f

08000854 <circle_draw>:
 8000854:	b537      	push	{r0, r1, r2, r4, r5, lr}
 8000856:	490e      	ldr	r1, [pc, #56]	; (8000890 <circle_draw+0x3c>)
 8000858:	0004      	movs	r4, r0
 800085a:	8802      	ldrh	r2, [r0, #0]
 800085c:	8843      	ldrh	r3, [r0, #2]
 800085e:	7808      	ldrb	r0, [r1, #0]
 8000860:	490c      	ldr	r1, [pc, #48]	; (8000894 <circle_draw+0x40>)
 8000862:	2800      	cmp	r0, #0
 8000864:	d000      	beq.n	8000868 <circle_draw+0x14>
 8000866:	490c      	ldr	r1, [pc, #48]	; (8000898 <circle_draw+0x44>)
 8000868:	4d0c      	ldr	r5, [pc, #48]	; (800089c <circle_draw+0x48>)
 800086a:	9100      	str	r1, [sp, #0]
 800086c:	0028      	movs	r0, r5
 800086e:	490c      	ldr	r1, [pc, #48]	; (80008a0 <circle_draw+0x4c>)
 8000870:	f002 fd2a 	bl	80032c8 <siprintf>
 8000874:	0028      	movs	r0, r5
 8000876:	f7ff ff8f 	bl	8000798 <nextion_inst_set>
 800087a:	0028      	movs	r0, r5
 800087c:	8863      	ldrh	r3, [r4, #2]
 800087e:	8822      	ldrh	r2, [r4, #0]
 8000880:	4908      	ldr	r1, [pc, #32]	; (80008a4 <circle_draw+0x50>)
 8000882:	f002 fd21 	bl	80032c8 <siprintf>
 8000886:	0028      	movs	r0, r5
 8000888:	f7ff ff86 	bl	8000798 <nextion_inst_set>
 800088c:	bd37      	pop	{r0, r1, r2, r4, r5, pc}
 800088e:	46c0      	nop			; (mov r8, r8)
 8000890:	20000240 	.word	0x20000240
 8000894:	08003b98 	.word	0x08003b98
 8000898:	08003b9d 	.word	0x08003b9d
 800089c:	200000b8 	.word	0x200000b8
 80008a0:	08003ba1 	.word	0x08003ba1
 80008a4:	08003bb1 	.word	0x08003bb1

080008a8 <area_check>:
 80008a8:	b510      	push	{r4, lr}
 80008aa:	8802      	ldrh	r2, [r0, #0]
 80008ac:	880c      	ldrh	r4, [r1, #0]
 80008ae:	0003      	movs	r3, r0
 80008b0:	2000      	movs	r0, #0
 80008b2:	4294      	cmp	r4, r2
 80008b4:	d80a      	bhi.n	80008cc <area_check+0x24>
 80008b6:	888c      	ldrh	r4, [r1, #4]
 80008b8:	4294      	cmp	r4, r2
 80008ba:	d907      	bls.n	80008cc <area_check+0x24>
 80008bc:	885b      	ldrh	r3, [r3, #2]
 80008be:	884a      	ldrh	r2, [r1, #2]
 80008c0:	429a      	cmp	r2, r3
 80008c2:	d803      	bhi.n	80008cc <area_check+0x24>
 80008c4:	88ca      	ldrh	r2, [r1, #6]
 80008c6:	429a      	cmp	r2, r3
 80008c8:	4140      	adcs	r0, r0
 80008ca:	b2c0      	uxtb	r0, r0
 80008cc:	bd10      	pop	{r4, pc}
	...

080008d0 <keypad_init>:
 80008d0:	b5f7      	push	{r0, r1, r2, r4, r5, r6, r7, lr}
 80008d2:	2000      	movs	r0, #0
 80008d4:	4b12      	ldr	r3, [pc, #72]	; (8000920 <keypad_init+0x50>)
 80008d6:	4c13      	ldr	r4, [pc, #76]	; (8000924 <keypad_init+0x54>)
 80008d8:	681b      	ldr	r3, [r3, #0]
 80008da:	9301      	str	r3, [sp, #4]
 80008dc:	230f      	movs	r3, #15
 80008de:	4343      	muls	r3, r0
 80008e0:	b29b      	uxth	r3, r3
 80008e2:	001e      	movs	r6, r3
 80008e4:	9a01      	ldr	r2, [sp, #4]
 80008e6:	0021      	movs	r1, r4
 80008e8:	1815      	adds	r5, r2, r0
 80008ea:	2237      	movs	r2, #55	; 0x37
 80008ec:	365a      	adds	r6, #90	; 0x5a
 80008ee:	3378      	adds	r3, #120	; 0x78
 80008f0:	b2b6      	uxth	r6, r6
 80008f2:	b29b      	uxth	r3, r3
 80008f4:	271e      	movs	r7, #30
 80008f6:	46bc      	mov	ip, r7
 80008f8:	4494      	add	ip, r2
 80008fa:	4667      	mov	r7, ip
 80008fc:	804a      	strh	r2, [r1, #2]
 80008fe:	808e      	strh	r6, [r1, #4]
 8000900:	80cf      	strh	r7, [r1, #6]
 8000902:	810b      	strh	r3, [r1, #8]
 8000904:	782f      	ldrb	r7, [r5, #0]
 8000906:	3232      	adds	r2, #50	; 0x32
 8000908:	b292      	uxth	r2, r2
 800090a:	700f      	strb	r7, [r1, #0]
 800090c:	3501      	adds	r5, #1
 800090e:	310a      	adds	r1, #10
 8000910:	2acd      	cmp	r2, #205	; 0xcd
 8000912:	d1ef      	bne.n	80008f4 <keypad_init+0x24>
 8000914:	3003      	adds	r0, #3
 8000916:	341e      	adds	r4, #30
 8000918:	280c      	cmp	r0, #12
 800091a:	d1df      	bne.n	80008dc <keypad_init+0xc>
 800091c:	bdf7      	pop	{r0, r1, r2, r4, r5, r6, r7, pc}
 800091e:	46c0      	nop			; (mov r8, r8)
 8000920:	20000024 	.word	0x20000024
 8000924:	20000242 	.word	0x20000242

08000928 <keypad_draw>:
 8000928:	b573      	push	{r0, r1, r4, r5, r6, lr}
 800092a:	4c10      	ldr	r4, [pc, #64]	; (800096c <keypad_draw+0x44>)
 800092c:	0026      	movs	r6, r4
 800092e:	3678      	adds	r6, #120	; 0x78
 8000930:	4d0f      	ldr	r5, [pc, #60]	; (8000970 <keypad_draw+0x48>)
 8000932:	7821      	ldrb	r1, [r4, #0]
 8000934:	88a3      	ldrh	r3, [r4, #4]
 8000936:	8862      	ldrh	r2, [r4, #2]
 8000938:	0028      	movs	r0, r5
 800093a:	9100      	str	r1, [sp, #0]
 800093c:	490d      	ldr	r1, [pc, #52]	; (8000974 <keypad_draw+0x4c>)
 800093e:	f002 fcc3 	bl	80032c8 <siprintf>
 8000942:	0028      	movs	r0, r5
 8000944:	f7ff ff28 	bl	8000798 <nextion_inst_set>
 8000948:	8921      	ldrh	r1, [r4, #8]
 800094a:	88a3      	ldrh	r3, [r4, #4]
 800094c:	8862      	ldrh	r2, [r4, #2]
 800094e:	9101      	str	r1, [sp, #4]
 8000950:	88e1      	ldrh	r1, [r4, #6]
 8000952:	0028      	movs	r0, r5
 8000954:	9100      	str	r1, [sp, #0]
 8000956:	4908      	ldr	r1, [pc, #32]	; (8000978 <keypad_draw+0x50>)
 8000958:	f002 fcb6 	bl	80032c8 <siprintf>
 800095c:	340a      	adds	r4, #10
 800095e:	0028      	movs	r0, r5
 8000960:	f7ff ff1a 	bl	8000798 <nextion_inst_set>
 8000964:	42b4      	cmp	r4, r6
 8000966:	d1e3      	bne.n	8000930 <keypad_draw+0x8>
 8000968:	bd73      	pop	{r0, r1, r4, r5, r6, pc}
 800096a:	46c0      	nop			; (mov r8, r8)
 800096c:	20000242 	.word	0x20000242
 8000970:	200000b8 	.word	0x200000b8
 8000974:	08003bc2 	.word	0x08003bc2
 8000978:	08003bec 	.word	0x08003bec

0800097c <button_draw>:
 800097c:	b537      	push	{r0, r1, r2, r4, r5, lr}
 800097e:	0004      	movs	r4, r0
 8000980:	4d0c      	ldr	r5, [pc, #48]	; (80009b4 <button_draw+0x38>)
 8000982:	6881      	ldr	r1, [r0, #8]
 8000984:	8843      	ldrh	r3, [r0, #2]
 8000986:	8802      	ldrh	r2, [r0, #0]
 8000988:	0028      	movs	r0, r5
 800098a:	9100      	str	r1, [sp, #0]
 800098c:	490a      	ldr	r1, [pc, #40]	; (80009b8 <button_draw+0x3c>)
 800098e:	f002 fc9b 	bl	80032c8 <siprintf>
 8000992:	0028      	movs	r0, r5
 8000994:	f7ff ff00 	bl	8000798 <nextion_inst_set>
 8000998:	88e1      	ldrh	r1, [r4, #6]
 800099a:	0028      	movs	r0, r5
 800099c:	9101      	str	r1, [sp, #4]
 800099e:	88a1      	ldrh	r1, [r4, #4]
 80009a0:	8863      	ldrh	r3, [r4, #2]
 80009a2:	8822      	ldrh	r2, [r4, #0]
 80009a4:	9100      	str	r1, [sp, #0]
 80009a6:	4905      	ldr	r1, [pc, #20]	; (80009bc <button_draw+0x40>)
 80009a8:	f002 fc8e 	bl	80032c8 <siprintf>
 80009ac:	0028      	movs	r0, r5
 80009ae:	f7ff fef3 	bl	8000798 <nextion_inst_set>
 80009b2:	bd37      	pop	{r0, r1, r2, r4, r5, pc}
 80009b4:	200000b8 	.word	0x200000b8
 80009b8:	08003c03 	.word	0x08003c03
 80009bc:	08003c2c 	.word	0x08003c2c

080009c0 <basic_screen>:
 80009c0:	b5f0      	push	{r4, r5, r6, r7, lr}
 80009c2:	0014      	movs	r4, r2
 80009c4:	b085      	sub	sp, #20
 80009c6:	4830      	ldr	r0, [pc, #192]	; (8000a88 <basic_screen+0xc8>)
 80009c8:	000f      	movs	r7, r1
 80009ca:	f7ff fee5 	bl	8000798 <nextion_inst_set>
 80009ce:	482f      	ldr	r0, [pc, #188]	; (8000a8c <basic_screen+0xcc>)
 80009d0:	f7ff fee2 	bl	8000798 <nextion_inst_set>
 80009d4:	4d2e      	ldr	r5, [pc, #184]	; (8000a90 <basic_screen+0xd0>)
 80009d6:	0022      	movs	r2, r4
 80009d8:	492e      	ldr	r1, [pc, #184]	; (8000a94 <basic_screen+0xd4>)
 80009da:	0028      	movs	r0, r5
 80009dc:	f002 fc74 	bl	80032c8 <siprintf>
 80009e0:	0028      	movs	r0, r5
 80009e2:	f7ff fed9 	bl	8000798 <nextion_inst_set>
 80009e6:	482c      	ldr	r0, [pc, #176]	; (8000a98 <basic_screen+0xd8>)
 80009e8:	f7ff fed6 	bl	8000798 <nextion_inst_set>
 80009ec:	4a2b      	ldr	r2, [pc, #172]	; (8000a9c <basic_screen+0xdc>)
 80009ee:	492c      	ldr	r1, [pc, #176]	; (8000aa0 <basic_screen+0xe0>)
 80009f0:	7853      	ldrb	r3, [r2, #1]
 80009f2:	0028      	movs	r0, r5
 80009f4:	7812      	ldrb	r2, [r2, #0]
 80009f6:	f002 fc67 	bl	80032c8 <siprintf>
 80009fa:	0028      	movs	r0, r5
 80009fc:	f7ff fecc 	bl	8000798 <nextion_inst_set>
 8000a00:	23a0      	movs	r3, #160	; 0xa0
 8000a02:	05db      	lsls	r3, r3, #23
 8000a04:	691b      	ldr	r3, [r3, #16]
 8000a06:	003a      	movs	r2, r7
 8000a08:	ae01      	add	r6, sp, #4
 8000a0a:	07db      	lsls	r3, r3, #31
 8000a0c:	d50c      	bpl.n	8000a28 <basic_screen+0x68>
 8000a0e:	2400      	movs	r4, #0
 8000a10:	2207      	movs	r2, #7
 8000a12:	0021      	movs	r1, r4
 8000a14:	a802      	add	r0, sp, #8
 8000a16:	9401      	str	r4, [sp, #4]
 8000a18:	f002 fc4e 	bl	80032b8 <memset>
 8000a1c:	0038      	movs	r0, r7
 8000a1e:	f7ff fb73 	bl	8000108 <strlen>
 8000a22:	4284      	cmp	r4, r0
 8000a24:	d32b      	bcc.n	8000a7e <basic_screen+0xbe>
 8000a26:	0032      	movs	r2, r6
 8000a28:	491e      	ldr	r1, [pc, #120]	; (8000aa4 <basic_screen+0xe4>)
 8000a2a:	0028      	movs	r0, r5
 8000a2c:	f002 fc4c 	bl	80032c8 <siprintf>
 8000a30:	0028      	movs	r0, r5
 8000a32:	f7ff feb1 	bl	8000798 <nextion_inst_set>
 8000a36:	481c      	ldr	r0, [pc, #112]	; (8000aa8 <basic_screen+0xe8>)
 8000a38:	f7ff feae 	bl	8000798 <nextion_inst_set>
 8000a3c:	2206      	movs	r2, #6
 8000a3e:	491b      	ldr	r1, [pc, #108]	; (8000aac <basic_screen+0xec>)
 8000a40:	0030      	movs	r0, r6
 8000a42:	f002 fc1d 	bl	8003280 <memcpy>
 8000a46:	0030      	movs	r0, r6
 8000a48:	f7ff ff04 	bl	8000854 <circle_draw>
 8000a4c:	4c18      	ldr	r4, [pc, #96]	; (8000ab0 <basic_screen+0xf0>)
 8000a4e:	0020      	movs	r0, r4
 8000a50:	f7ff ff94 	bl	800097c <button_draw>
 8000a54:	0020      	movs	r0, r4
 8000a56:	300c      	adds	r0, #12
 8000a58:	f7ff ff90 	bl	800097c <button_draw>
 8000a5c:	0020      	movs	r0, r4
 8000a5e:	3018      	adds	r0, #24
 8000a60:	f7ff ff8c 	bl	800097c <button_draw>
 8000a64:	4813      	ldr	r0, [pc, #76]	; (8000ab4 <basic_screen+0xf4>)
 8000a66:	f7ff fe97 	bl	8000798 <nextion_inst_set>
 8000a6a:	4813      	ldr	r0, [pc, #76]	; (8000ab8 <basic_screen+0xf8>)
 8000a6c:	f7ff fe94 	bl	8000798 <nextion_inst_set>
 8000a70:	4812      	ldr	r0, [pc, #72]	; (8000abc <basic_screen+0xfc>)
 8000a72:	f7ff fe91 	bl	8000798 <nextion_inst_set>
 8000a76:	f7ff ff57 	bl	8000928 <keypad_draw>
 8000a7a:	b005      	add	sp, #20
 8000a7c:	bdf0      	pop	{r4, r5, r6, r7, pc}
 8000a7e:	232a      	movs	r3, #42	; 0x2a
 8000a80:	5533      	strb	r3, [r6, r4]
 8000a82:	3401      	adds	r4, #1
 8000a84:	b2e4      	uxtb	r4, r4
 8000a86:	e7c9      	b.n	8000a1c <basic_screen+0x5c>
 8000a88:	08003c43 	.word	0x08003c43
 8000a8c:	08003c5a 	.word	0x08003c5a
 8000a90:	200000b8 	.word	0x200000b8
 8000a94:	08003c73 	.word	0x08003c73
 8000a98:	08003c9c 	.word	0x08003c9c
 8000a9c:	20000028 	.word	0x20000028
 8000aa0:	08003cc7 	.word	0x08003cc7
 8000aa4:	08003cf7 	.word	0x08003cf7
 8000aa8:	08003d22 	.word	0x08003d22
 8000aac:	08003b7c 	.word	0x08003b7c
 8000ab0:	20000000 	.word	0x20000000
 8000ab4:	08003d40 	.word	0x08003d40
 8000ab8:	08003d57 	.word	0x08003d57
 8000abc:	08003d70 	.word	0x08003d70

08000ac0 <log_save>:
 8000ac0:	b570      	push	{r4, r5, r6, lr}
 8000ac2:	4c0c      	ldr	r4, [pc, #48]	; (8000af4 <log_save+0x34>)
 8000ac4:	0005      	movs	r5, r0
 8000ac6:	0022      	movs	r2, r4
 8000ac8:	324e      	adds	r2, #78	; 0x4e
 8000aca:	7813      	ldrb	r3, [r2, #0]
 8000acc:	000e      	movs	r6, r1
 8000ace:	2b05      	cmp	r3, #5
 8000ad0:	d801      	bhi.n	8000ad6 <log_save+0x16>
 8000ad2:	3301      	adds	r3, #1
 8000ad4:	7013      	strb	r3, [r2, #0]
 8000ad6:	0021      	movs	r1, r4
 8000ad8:	2219      	movs	r2, #25
 8000ada:	1d60      	adds	r0, r4, #5
 8000adc:	f002 fbd9 	bl	8003292 <memmove>
 8000ae0:	7833      	ldrb	r3, [r6, #0]
 8000ae2:	0029      	movs	r1, r5
 8000ae4:	7023      	strb	r3, [r4, #0]
 8000ae6:	2202      	movs	r2, #2
 8000ae8:	1c60      	adds	r0, r4, #1
 8000aea:	f002 fbc9 	bl	8003280 <memcpy>
 8000aee:	2301      	movs	r3, #1
 8000af0:	7123      	strb	r3, [r4, #4]
 8000af2:	bd70      	pop	{r4, r5, r6, pc}
 8000af4:	200002ba 	.word	0x200002ba

08000af8 <log_print>:
 8000af8:	b5f0      	push	{r4, r5, r6, r7, lr}
 8000afa:	2700      	movs	r7, #0
 8000afc:	b087      	sub	sp, #28
 8000afe:	9004      	str	r0, [sp, #16]
 8000b00:	9b04      	ldr	r3, [sp, #16]
 8000b02:	334e      	adds	r3, #78	; 0x4e
 8000b04:	781b      	ldrb	r3, [r3, #0]
 8000b06:	42bb      	cmp	r3, r7
 8000b08:	d801      	bhi.n	8000b0e <log_print+0x16>
 8000b0a:	b007      	add	sp, #28
 8000b0c:	bdf0      	pop	{r4, r5, r6, r7, pc}
 8000b0e:	251e      	movs	r5, #30
 8000b10:	2305      	movs	r3, #5
 8000b12:	437d      	muls	r5, r7
 8000b14:	002e      	movs	r6, r5
 8000b16:	437b      	muls	r3, r7
 8000b18:	9a04      	ldr	r2, [sp, #16]
 8000b1a:	362d      	adds	r6, #45	; 0x2d
 8000b1c:	18d2      	adds	r2, r2, r3
 8000b1e:	9203      	str	r2, [sp, #12]
 8000b20:	9a04      	ldr	r2, [sp, #16]
 8000b22:	5cd2      	ldrb	r2, [r2, r3]
 8000b24:	4b36      	ldr	r3, [pc, #216]	; (8000c00 <log_print+0x108>)
 8000b26:	2a01      	cmp	r2, #1
 8000b28:	d000      	beq.n	8000b2c <log_print+0x34>
 8000b2a:	4b36      	ldr	r3, [pc, #216]	; (8000c04 <log_print+0x10c>)
 8000b2c:	4c36      	ldr	r4, [pc, #216]	; (8000c08 <log_print+0x110>)
 8000b2e:	22ff      	movs	r2, #255	; 0xff
 8000b30:	4936      	ldr	r1, [pc, #216]	; (8000c0c <log_print+0x114>)
 8000b32:	9300      	str	r3, [sp, #0]
 8000b34:	0020      	movs	r0, r4
 8000b36:	0033      	movs	r3, r6
 8000b38:	f002 fbc6 	bl	80032c8 <siprintf>
 8000b3c:	0020      	movs	r0, r4
 8000b3e:	f7ff fe2b 	bl	8000798 <nextion_inst_set>
 8000b42:	0033      	movs	r3, r6
 8000b44:	22ff      	movs	r2, #255	; 0xff
 8000b46:	4932      	ldr	r1, [pc, #200]	; (8000c10 <log_print+0x118>)
 8000b48:	0020      	movs	r0, r4
 8000b4a:	f002 fbbd 	bl	80032c8 <siprintf>
 8000b4e:	0020      	movs	r0, r4
 8000b50:	f7ff fe22 	bl	8000798 <nextion_inst_set>
 8000b54:	9a03      	ldr	r2, [sp, #12]
 8000b56:	9b03      	ldr	r3, [sp, #12]
 8000b58:	7810      	ldrb	r0, [r2, #0]
 8000b5a:	7891      	ldrb	r1, [r2, #2]
 8000b5c:	785b      	ldrb	r3, [r3, #1]
 8000b5e:	4a2d      	ldr	r2, [pc, #180]	; (8000c14 <log_print+0x11c>)
 8000b60:	2801      	cmp	r0, #1
 8000b62:	d000      	beq.n	8000b66 <log_print+0x6e>
 8000b64:	4a2c      	ldr	r2, [pc, #176]	; (8000c18 <log_print+0x120>)
 8000b66:	9201      	str	r2, [sp, #4]
 8000b68:	9100      	str	r1, [sp, #0]
 8000b6a:	002a      	movs	r2, r5
 8000b6c:	492b      	ldr	r1, [pc, #172]	; (8000c1c <log_print+0x124>)
 8000b6e:	0020      	movs	r0, r4
 8000b70:	f002 fbaa 	bl	80032c8 <siprintf>
 8000b74:	0020      	movs	r0, r4
 8000b76:	f7ff fe0f 	bl	8000798 <nextion_inst_set>
 8000b7a:	002b      	movs	r3, r5
 8000b7c:	002e      	movs	r6, r5
 8000b7e:	3328      	adds	r3, #40	; 0x28
 8000b80:	9305      	str	r3, [sp, #20]
 8000b82:	9b03      	ldr	r3, [sp, #12]
 8000b84:	3632      	adds	r6, #50	; 0x32
 8000b86:	78da      	ldrb	r2, [r3, #3]
 8000b88:	4b1d      	ldr	r3, [pc, #116]	; (8000c00 <log_print+0x108>)
 8000b8a:	2a01      	cmp	r2, #1
 8000b8c:	d000      	beq.n	8000b90 <log_print+0x98>
 8000b8e:	4b24      	ldr	r3, [pc, #144]	; (8000c20 <log_print+0x128>)
 8000b90:	4c1d      	ldr	r4, [pc, #116]	; (8000c08 <log_print+0x110>)
 8000b92:	9a05      	ldr	r2, [sp, #20]
 8000b94:	4923      	ldr	r1, [pc, #140]	; (8000c24 <log_print+0x12c>)
 8000b96:	9300      	str	r3, [sp, #0]
 8000b98:	0020      	movs	r0, r4
 8000b9a:	0033      	movs	r3, r6
 8000b9c:	f002 fb94 	bl	80032c8 <siprintf>
 8000ba0:	0020      	movs	r0, r4
 8000ba2:	f7ff fdf9 	bl	8000798 <nextion_inst_set>
 8000ba6:	9b03      	ldr	r3, [sp, #12]
 8000ba8:	78da      	ldrb	r2, [r3, #3]
 8000baa:	4b15      	ldr	r3, [pc, #84]	; (8000c00 <log_print+0x108>)
 8000bac:	2a01      	cmp	r2, #1
 8000bae:	d000      	beq.n	8000bb2 <log_print+0xba>
 8000bb0:	4b1b      	ldr	r3, [pc, #108]	; (8000c20 <log_print+0x128>)
 8000bb2:	0032      	movs	r2, r6
 8000bb4:	491c      	ldr	r1, [pc, #112]	; (8000c28 <log_print+0x130>)
 8000bb6:	9300      	str	r3, [sp, #0]
 8000bb8:	0020      	movs	r0, r4
 8000bba:	9b05      	ldr	r3, [sp, #20]
 8000bbc:	f002 fb84 	bl	80032c8 <siprintf>
 8000bc0:	0020      	movs	r0, r4
 8000bc2:	f7ff fde9 	bl	8000798 <nextion_inst_set>
 8000bc6:	9b04      	ldr	r3, [sp, #16]
 8000bc8:	00f9      	lsls	r1, r7, #3
 8000bca:	1859      	adds	r1, r3, r1
 8000bcc:	8c88      	ldrh	r0, [r1, #36]	; 0x24
 8000bce:	8c0b      	ldrh	r3, [r1, #32]
 8000bd0:	8bca      	ldrh	r2, [r1, #30]
 8000bd2:	9001      	str	r0, [sp, #4]
 8000bd4:	8c49      	ldrh	r1, [r1, #34]	; 0x22
 8000bd6:	0020      	movs	r0, r4
 8000bd8:	9100      	str	r1, [sp, #0]
 8000bda:	4914      	ldr	r1, [pc, #80]	; (8000c2c <log_print+0x134>)
 8000bdc:	f002 fb74 	bl	80032c8 <siprintf>
 8000be0:	0020      	movs	r0, r4
 8000be2:	f7ff fdd9 	bl	8000798 <nextion_inst_set>
 8000be6:	002b      	movs	r3, r5
 8000be8:	002a      	movs	r2, r5
 8000bea:	4911      	ldr	r1, [pc, #68]	; (8000c30 <log_print+0x138>)
 8000bec:	0020      	movs	r0, r4
 8000bee:	f002 fb6b 	bl	80032c8 <siprintf>
 8000bf2:	3701      	adds	r7, #1
 8000bf4:	0020      	movs	r0, r4
 8000bf6:	f7ff fdcf 	bl	8000798 <nextion_inst_set>
 8000bfa:	b2ff      	uxtb	r7, r7
 8000bfc:	e780      	b.n	8000b00 <log_print+0x8>
 8000bfe:	46c0      	nop			; (mov r8, r8)
 8000c00:	08003b9d 	.word	0x08003b9d
 8000c04:	08003b98 	.word	0x08003b98
 8000c08:	200000b8 	.word	0x200000b8
 8000c0c:	08003ba1 	.word	0x08003ba1
 8000c10:	08003bb1 	.word	0x08003bb1
 8000c14:	08003d8b 	.word	0x08003d8b
 8000c18:	08003d8e 	.word	0x08003d8e
 8000c1c:	08003d92 	.word	0x08003d92
 8000c20:	08003c6d 	.word	0x08003c6d
 8000c24:	08003dcc 	.word	0x08003dcc
 8000c28:	08003de2 	.word	0x08003de2
 8000c2c:	08003c2c 	.word	0x08003c2c
 8000c30:	08003df8 	.word	0x08003df8

08000c34 <log_sort>:
 8000c34:	b5f8      	push	{r3, r4, r5, r6, r7, lr}
 8000c36:	0005      	movs	r5, r0
 8000c38:	2400      	movs	r4, #0
 8000c3a:	2705      	movs	r7, #5
 8000c3c:	002e      	movs	r6, r5
 8000c3e:	364e      	adds	r6, #78	; 0x4e
 8000c40:	7832      	ldrb	r2, [r6, #0]
 8000c42:	42a2      	cmp	r2, r4
 8000c44:	d800      	bhi.n	8000c48 <log_sort+0x14>
 8000c46:	bdf8      	pop	{r3, r4, r5, r6, r7, pc}
 8000c48:	0039      	movs	r1, r7
 8000c4a:	4361      	muls	r1, r4
 8000c4c:	1868      	adds	r0, r5, r1
 8000c4e:	78c3      	ldrb	r3, [r0, #3]
 8000c50:	2b01      	cmp	r3, #1
 8000c52:	d111      	bne.n	8000c78 <log_sort+0x44>
 8000c54:	1b12      	subs	r2, r2, r4
 8000c56:	3105      	adds	r1, #5
 8000c58:	437a      	muls	r2, r7
 8000c5a:	1869      	adds	r1, r5, r1
 8000c5c:	f002 fb19 	bl	8003292 <memmove>
 8000c60:	7830      	ldrb	r0, [r6, #0]
 8000c62:	003a      	movs	r2, r7
 8000c64:	3801      	subs	r0, #1
 8000c66:	4378      	muls	r0, r7
 8000c68:	2100      	movs	r1, #0
 8000c6a:	1828      	adds	r0, r5, r0
 8000c6c:	f002 fb24 	bl	80032b8 <memset>
 8000c70:	7833      	ldrb	r3, [r6, #0]
 8000c72:	3b01      	subs	r3, #1
 8000c74:	7033      	strb	r3, [r6, #0]
 8000c76:	e7e1      	b.n	8000c3c <log_sort+0x8>
 8000c78:	3401      	adds	r4, #1
 8000c7a:	b2e4      	uxtb	r4, r4
 8000c7c:	e7de      	b.n	8000c3c <log_sort+0x8>
	...

08000c80 <task_fuc>:
 8000c80:	b5f0      	push	{r4, r5, r6, r7, lr}
 8000c82:	2400      	movs	r4, #0
 8000c84:	b085      	sub	sp, #20
 8000c86:	9402      	str	r4, [sp, #8]
 8000c88:	4fc9      	ldr	r7, [pc, #804]	; (8000fb0 <task_fuc+0x330>)
 8000c8a:	0038      	movs	r0, r7
 8000c8c:	f7ff fda2 	bl	80007d4 <get_touch>
 8000c90:	23a0      	movs	r3, #160	; 0xa0
 8000c92:	05db      	lsls	r3, r3, #23
 8000c94:	691a      	ldr	r2, [r3, #16]
 8000c96:	2301      	movs	r3, #1
 8000c98:	4393      	bics	r3, r2
 8000c9a:	9303      	str	r3, [sp, #12]
 8000c9c:	4bc5      	ldr	r3, [pc, #788]	; (8000fb4 <task_fuc+0x334>)
 8000c9e:	781b      	ldrb	r3, [r3, #0]
 8000ca0:	2b00      	cmp	r3, #0
 8000ca2:	d116      	bne.n	8000cd2 <task_fuc+0x52>
 8000ca4:	4bc4      	ldr	r3, [pc, #784]	; (8000fb8 <task_fuc+0x338>)
 8000ca6:	4ac5      	ldr	r2, [pc, #788]	; (8000fbc <task_fuc+0x33c>)
 8000ca8:	781b      	ldrb	r3, [r3, #0]
 8000caa:	7810      	ldrb	r0, [r2, #0]
 8000cac:	2b01      	cmp	r3, #1
 8000cae:	d100      	bne.n	8000cb2 <task_fuc+0x32>
 8000cb0:	e089      	b.n	8000dc6 <task_fuc+0x146>
 8000cb2:	2b02      	cmp	r3, #2
 8000cb4:	d100      	bne.n	8000cb8 <task_fuc+0x38>
 8000cb6:	e08d      	b.n	8000dd4 <task_fuc+0x154>
 8000cb8:	49c1      	ldr	r1, [pc, #772]	; (8000fc0 <task_fuc+0x340>)
 8000cba:	000a      	movs	r2, r1
 8000cbc:	2b00      	cmp	r3, #0
 8000cbe:	d000      	beq.n	8000cc2 <task_fuc+0x42>
 8000cc0:	e082      	b.n	8000dc8 <task_fuc+0x148>
 8000cc2:	f7ff fe7d 	bl	80009c0 <basic_screen>
 8000cc6:	48bf      	ldr	r0, [pc, #764]	; (8000fc4 <task_fuc+0x344>)
 8000cc8:	f7ff ff16 	bl	8000af8 <log_print>
 8000ccc:	2301      	movs	r3, #1
 8000cce:	4ab9      	ldr	r2, [pc, #740]	; (8000fb4 <task_fuc+0x334>)
 8000cd0:	7013      	strb	r3, [r2, #0]
 8000cd2:	793b      	ldrb	r3, [r7, #4]
 8000cd4:	42a3      	cmp	r3, r4
 8000cd6:	d058      	beq.n	8000d8a <task_fuc+0x10a>
 8000cd8:	2b01      	cmp	r3, #1
 8000cda:	d156      	bne.n	8000d8a <task_fuc+0x10a>
 8000cdc:	2400      	movs	r4, #0
 8000cde:	4bb6      	ldr	r3, [pc, #728]	; (8000fb8 <task_fuc+0x338>)
 8000ce0:	4db9      	ldr	r5, [pc, #740]	; (8000fc8 <task_fuc+0x348>)
 8000ce2:	781b      	ldrb	r3, [r3, #0]
 8000ce4:	3502      	adds	r5, #2
 8000ce6:	9301      	str	r3, [sp, #4]
 8000ce8:	9b01      	ldr	r3, [sp, #4]
 8000cea:	b2e6      	uxtb	r6, r4
 8000cec:	2b00      	cmp	r3, #0
 8000cee:	d017      	beq.n	8000d20 <task_fuc+0xa0>
 8000cf0:	0029      	movs	r1, r5
 8000cf2:	0038      	movs	r0, r7
 8000cf4:	f7ff fdd8 	bl	80008a8 <area_check>
 8000cf8:	2800      	cmp	r0, #0
 8000cfa:	d100      	bne.n	8000cfe <task_fuc+0x7e>
 8000cfc:	e117      	b.n	8000f2e <task_fuc+0x2ae>
 8000cfe:	4db3      	ldr	r5, [pc, #716]	; (8000fcc <task_fuc+0x34c>)
 8000d00:	2e0b      	cmp	r6, #11
 8000d02:	d170      	bne.n	8000de6 <task_fuc+0x166>
 8000d04:	9b01      	ldr	r3, [sp, #4]
 8000d06:	2b01      	cmp	r3, #1
 8000d08:	d166      	bne.n	8000dd8 <task_fuc+0x158>
 8000d0a:	0028      	movs	r0, r5
 8000d0c:	0032      	movs	r2, r6
 8000d0e:	2100      	movs	r1, #0
 8000d10:	300b      	adds	r0, #11
 8000d12:	f002 fad1 	bl	80032b8 <memset>
 8000d16:	2300      	movs	r3, #0
 8000d18:	75ab      	strb	r3, [r5, #22]
 8000d1a:	2200      	movs	r2, #0
 8000d1c:	4ba5      	ldr	r3, [pc, #660]	; (8000fb4 <task_fuc+0x334>)
 8000d1e:	701a      	strb	r2, [r3, #0]
 8000d20:	4eab      	ldr	r6, [pc, #684]	; (8000fd0 <task_fuc+0x350>)
 8000d22:	4da3      	ldr	r5, [pc, #652]	; (8000fb0 <task_fuc+0x330>)
 8000d24:	0031      	movs	r1, r6
 8000d26:	0028      	movs	r0, r5
 8000d28:	f7ff fdbe 	bl	80008a8 <area_check>
 8000d2c:	1e04      	subs	r4, r0, #0
 8000d2e:	d100      	bne.n	8000d32 <task_fuc+0xb2>
 8000d30:	e103      	b.n	8000f3a <task_fuc+0x2ba>
 8000d32:	4ba2      	ldr	r3, [pc, #648]	; (8000fbc <task_fuc+0x33c>)
 8000d34:	781b      	ldrb	r3, [r3, #0]
 8000d36:	2b01      	cmp	r3, #1
 8000d38:	d10c      	bne.n	8000d54 <task_fuc+0xd4>
 8000d3a:	4b9f      	ldr	r3, [pc, #636]	; (8000fb8 <task_fuc+0x338>)
 8000d3c:	781c      	ldrb	r4, [r3, #0]
 8000d3e:	2c00      	cmp	r4, #0
 8000d40:	d108      	bne.n	8000d54 <task_fuc+0xd4>
 8000d42:	2202      	movs	r2, #2
 8000d44:	0021      	movs	r1, r4
 8000d46:	701a      	strb	r2, [r3, #0]
 8000d48:	48a0      	ldr	r0, [pc, #640]	; (8000fcc <task_fuc+0x34c>)
 8000d4a:	3209      	adds	r2, #9
 8000d4c:	f002 fab4 	bl	80032b8 <memset>
 8000d50:	4b98      	ldr	r3, [pc, #608]	; (8000fb4 <task_fuc+0x334>)
 8000d52:	701c      	strb	r4, [r3, #0]
 8000d54:	4f9b      	ldr	r7, [pc, #620]	; (8000fc4 <task_fuc+0x344>)
 8000d56:	003b      	movs	r3, r7
 8000d58:	334e      	adds	r3, #78	; 0x4e
 8000d5a:	781b      	ldrb	r3, [r3, #0]
 8000d5c:	9301      	str	r3, [sp, #4]
 8000d5e:	2b00      	cmp	r3, #0
 8000d60:	d013      	beq.n	8000d8a <task_fuc+0x10a>
 8000d62:	003e      	movs	r6, r7
 8000d64:	2400      	movs	r4, #0
 8000d66:	361e      	adds	r6, #30
 8000d68:	0031      	movs	r1, r6
 8000d6a:	0028      	movs	r0, r5
 8000d6c:	f7ff fd9c 	bl	80008a8 <area_check>
 8000d70:	2800      	cmp	r0, #0
 8000d72:	d100      	bne.n	8000d76 <task_fuc+0xf6>
 8000d74:	e10b      	b.n	8000f8e <task_fuc+0x30e>
 8000d76:	2300      	movs	r3, #0
 8000d78:	4a8e      	ldr	r2, [pc, #568]	; (8000fb4 <task_fuc+0x334>)
 8000d7a:	7013      	strb	r3, [r2, #0]
 8000d7c:	3305      	adds	r3, #5
 8000d7e:	435c      	muls	r4, r3
 8000d80:	193c      	adds	r4, r7, r4
 8000d82:	78e2      	ldrb	r2, [r4, #3]
 8000d84:	3b04      	subs	r3, #4
 8000d86:	4053      	eors	r3, r2
 8000d88:	70e3      	strb	r3, [r4, #3]
 8000d8a:	4c8b      	ldr	r4, [pc, #556]	; (8000fb8 <task_fuc+0x338>)
 8000d8c:	4b8b      	ldr	r3, [pc, #556]	; (8000fbc <task_fuc+0x33c>)
 8000d8e:	7822      	ldrb	r2, [r4, #0]
 8000d90:	781b      	ldrb	r3, [r3, #0]
 8000d92:	4313      	orrs	r3, r2
 8000d94:	d10b      	bne.n	8000dae <task_fuc+0x12e>
 8000d96:	2102      	movs	r1, #2
 8000d98:	488e      	ldr	r0, [pc, #568]	; (8000fd4 <task_fuc+0x354>)
 8000d9a:	f000 fd05 	bl	80017a8 <HAL_GPIO_ReadPin>
 8000d9e:	2800      	cmp	r0, #0
 8000da0:	d100      	bne.n	8000da4 <task_fuc+0x124>
 8000da2:	e0fc      	b.n	8000f9e <task_fuc+0x31e>
 8000da4:	2301      	movs	r3, #1
 8000da6:	2200      	movs	r2, #0
 8000da8:	7023      	strb	r3, [r4, #0]
 8000daa:	4b82      	ldr	r3, [pc, #520]	; (8000fb4 <task_fuc+0x334>)
 8000dac:	701a      	strb	r2, [r3, #0]
 8000dae:	9b02      	ldr	r3, [sp, #8]
 8000db0:	9a03      	ldr	r2, [sp, #12]
 8000db2:	4293      	cmp	r3, r2
 8000db4:	d002      	beq.n	8000dbc <task_fuc+0x13c>
 8000db6:	2200      	movs	r2, #0
 8000db8:	4b7e      	ldr	r3, [pc, #504]	; (8000fb4 <task_fuc+0x334>)
 8000dba:	701a      	strb	r2, [r3, #0]
 8000dbc:	4b7c      	ldr	r3, [pc, #496]	; (8000fb0 <task_fuc+0x330>)
 8000dbe:	791c      	ldrb	r4, [r3, #4]
 8000dc0:	9b03      	ldr	r3, [sp, #12]
 8000dc2:	9302      	str	r3, [sp, #8]
 8000dc4:	e760      	b.n	8000c88 <task_fuc+0x8>
 8000dc6:	4a84      	ldr	r2, [pc, #528]	; (8000fd8 <task_fuc+0x358>)
 8000dc8:	4980      	ldr	r1, [pc, #512]	; (8000fcc <task_fuc+0x34c>)
 8000dca:	2800      	cmp	r0, #0
 8000dcc:	d000      	beq.n	8000dd0 <task_fuc+0x150>
 8000dce:	e778      	b.n	8000cc2 <task_fuc+0x42>
 8000dd0:	310b      	adds	r1, #11
 8000dd2:	e776      	b.n	8000cc2 <task_fuc+0x42>
 8000dd4:	4a81      	ldr	r2, [pc, #516]	; (8000fdc <task_fuc+0x35c>)
 8000dd6:	e7f7      	b.n	8000dc8 <task_fuc+0x148>
 8000dd8:	9b01      	ldr	r3, [sp, #4]
 8000dda:	2b02      	cmp	r3, #2
 8000ddc:	d19b      	bne.n	8000d16 <task_fuc+0x96>
 8000dde:	0032      	movs	r2, r6
 8000de0:	2100      	movs	r1, #0
 8000de2:	0028      	movs	r0, r5
 8000de4:	e795      	b.n	8000d12 <task_fuc+0x92>
 8000de6:	2e09      	cmp	r6, #9
 8000de8:	d000      	beq.n	8000dec <task_fuc+0x16c>
 8000dea:	e087      	b.n	8000efc <task_fuc+0x27c>
 8000dec:	4e73      	ldr	r6, [pc, #460]	; (8000fbc <task_fuc+0x33c>)
 8000dee:	7834      	ldrb	r4, [r6, #0]
 8000df0:	2c00      	cmp	r4, #0
 8000df2:	d16d      	bne.n	8000ed0 <task_fuc+0x250>
 8000df4:	0028      	movs	r0, r5
 8000df6:	300b      	adds	r0, #11
 8000df8:	f7ff f986 	bl	8000108 <strlen>
 8000dfc:	0007      	movs	r7, r0
 8000dfe:	0028      	movs	r0, r5
 8000e00:	f7ff f982 	bl	8000108 <strlen>
 8000e04:	b2fb      	uxtb	r3, r7
 8000e06:	b2c2      	uxtb	r2, r0
 8000e08:	4293      	cmp	r3, r2
 8000e0a:	d341      	bcc.n	8000e90 <task_fuc+0x210>
 8000e0c:	210b      	movs	r1, #11
 8000e0e:	002b      	movs	r3, r5
 8000e10:	1a08      	subs	r0, r1, r0
 8000e12:	4294      	cmp	r4, r2
 8000e14:	d12f      	bne.n	8000e76 <task_fuc+0x1f6>
 8000e16:	2400      	movs	r4, #0
 8000e18:	2701      	movs	r7, #1
 8000e1a:	4b67      	ldr	r3, [pc, #412]	; (8000fb8 <task_fuc+0x338>)
 8000e1c:	7037      	strb	r7, [r6, #0]
 8000e1e:	701c      	strb	r4, [r3, #0]
 8000e20:	75ac      	strb	r4, [r5, #22]
 8000e22:	f7ff fc93 	bl	800074c <BUZ.part.0>
 8000e26:	20fa      	movs	r0, #250	; 0xfa
 8000e28:	0080      	lsls	r0, r0, #2
 8000e2a:	f7ff fc97 	bl	800075c <BUZ_tone>
 8000e2e:	2096      	movs	r0, #150	; 0x96
 8000e30:	0040      	lsls	r0, r0, #1
 8000e32:	f000 fb9f 	bl	8001574 <HAL_Delay>
 8000e36:	486a      	ldr	r0, [pc, #424]	; (8000fe0 <task_fuc+0x360>)
 8000e38:	f7ff fc90 	bl	800075c <BUZ_tone>
 8000e3c:	2096      	movs	r0, #150	; 0x96
 8000e3e:	0040      	lsls	r0, r0, #1
 8000e40:	f000 fb98 	bl	8001574 <HAL_Delay>
 8000e44:	2096      	movs	r0, #150	; 0x96
 8000e46:	00c0      	lsls	r0, r0, #3
 8000e48:	f7ff fc88 	bl	800075c <BUZ_tone>
 8000e4c:	20fa      	movs	r0, #250	; 0xfa
 8000e4e:	0040      	lsls	r0, r0, #1
 8000e50:	f000 fb90 	bl	8001574 <HAL_Delay>
 8000e54:	0020      	movs	r0, r4
 8000e56:	f7ff fc91 	bl	800077c <BUZ>
 8000e5a:	0038      	movs	r0, r7
 8000e5c:	f7ff fc3e 	bl	80006dc <setMotor>
 8000e60:	4860      	ldr	r0, [pc, #384]	; (8000fe4 <task_fuc+0x364>)
 8000e62:	f000 fb87 	bl	8001574 <HAL_Delay>
 8000e66:	0020      	movs	r0, r4
 8000e68:	f7ff fc38 	bl	80006dc <setMotor>
 8000e6c:	0031      	movs	r1, r6
 8000e6e:	485e      	ldr	r0, [pc, #376]	; (8000fe8 <task_fuc+0x368>)
 8000e70:	f7ff fe26 	bl	8000ac0 <log_save>
 8000e74:	e751      	b.n	8000d1a <task_fuc+0x9a>
 8000e76:	18f9      	adds	r1, r7, r3
 8000e78:	5c09      	ldrb	r1, [r1, r0]
 8000e7a:	3301      	adds	r3, #1
 8000e7c:	9101      	str	r1, [sp, #4]
 8000e7e:	1e59      	subs	r1, r3, #1
 8000e80:	7809      	ldrb	r1, [r1, #0]
 8000e82:	468c      	mov	ip, r1
 8000e84:	9901      	ldr	r1, [sp, #4]
 8000e86:	458c      	cmp	ip, r1
 8000e88:	d102      	bne.n	8000e90 <task_fuc+0x210>
 8000e8a:	3401      	adds	r4, #1
 8000e8c:	b2e4      	uxtb	r4, r4
 8000e8e:	e7c0      	b.n	8000e12 <task_fuc+0x192>
 8000e90:	0028      	movs	r0, r5
 8000e92:	220b      	movs	r2, #11
 8000e94:	2100      	movs	r1, #0
 8000e96:	300b      	adds	r0, #11
 8000e98:	f002 fa0e 	bl	80032b8 <memset>
 8000e9c:	2400      	movs	r4, #0
 8000e9e:	20fa      	movs	r0, #250	; 0xfa
 8000ea0:	0100      	lsls	r0, r0, #4
 8000ea2:	75ac      	strb	r4, [r5, #22]
 8000ea4:	f7ff fc5a 	bl	800075c <BUZ_tone>
 8000ea8:	f7ff fc50 	bl	800074c <BUZ.part.0>
 8000eac:	2064      	movs	r0, #100	; 0x64
 8000eae:	f000 fb61 	bl	8001574 <HAL_Delay>
 8000eb2:	0020      	movs	r0, r4
 8000eb4:	f7ff fc62 	bl	800077c <BUZ>
 8000eb8:	2064      	movs	r0, #100	; 0x64
 8000eba:	f000 fb5b 	bl	8001574 <HAL_Delay>
 8000ebe:	f7ff fc45 	bl	800074c <BUZ.part.0>
 8000ec2:	2064      	movs	r0, #100	; 0x64
 8000ec4:	f000 fb56 	bl	8001574 <HAL_Delay>
 8000ec8:	0020      	movs	r0, r4
 8000eca:	f7ff fc57 	bl	800077c <BUZ>
 8000ece:	e724      	b.n	8000d1a <task_fuc+0x9a>
 8000ed0:	7dab      	ldrb	r3, [r5, #22]
 8000ed2:	2400      	movs	r4, #0
 8000ed4:	2b03      	cmp	r3, #3
 8000ed6:	d807      	bhi.n	8000ee8 <task_fuc+0x268>
 8000ed8:	4b36      	ldr	r3, [pc, #216]	; (8000fb4 <task_fuc+0x334>)
 8000eda:	220b      	movs	r2, #11
 8000edc:	0021      	movs	r1, r4
 8000ede:	0028      	movs	r0, r5
 8000ee0:	701c      	strb	r4, [r3, #0]
 8000ee2:	f002 f9e9 	bl	80032b8 <memset>
 8000ee6:	e7da      	b.n	8000e9e <task_fuc+0x21e>
 8000ee8:	20fa      	movs	r0, #250	; 0xfa
 8000eea:	4b32      	ldr	r3, [pc, #200]	; (8000fb4 <task_fuc+0x334>)
 8000eec:	0100      	lsls	r0, r0, #4
 8000eee:	701c      	strb	r4, [r3, #0]
 8000ef0:	4b31      	ldr	r3, [pc, #196]	; (8000fb8 <task_fuc+0x338>)
 8000ef2:	75ac      	strb	r4, [r5, #22]
 8000ef4:	701c      	strb	r4, [r3, #0]
 8000ef6:	f7ff fc31 	bl	800075c <BUZ_tone>
 8000efa:	e7e0      	b.n	8000ebe <task_fuc+0x23e>
 8000efc:	7dab      	ldrb	r3, [r5, #22]
 8000efe:	2b09      	cmp	r3, #9
 8000f00:	d900      	bls.n	8000f04 <task_fuc+0x284>
 8000f02:	e70a      	b.n	8000d1a <task_fuc+0x9a>
 8000f04:	210a      	movs	r1, #10
 8000f06:	434c      	muls	r4, r1
 8000f08:	492f      	ldr	r1, [pc, #188]	; (8000fc8 <task_fuc+0x348>)
 8000f0a:	1c5a      	adds	r2, r3, #1
 8000f0c:	5c60      	ldrb	r0, [r4, r1]
 8000f0e:	492b      	ldr	r1, [pc, #172]	; (8000fbc <task_fuc+0x33c>)
 8000f10:	b2d2      	uxtb	r2, r2
 8000f12:	7809      	ldrb	r1, [r1, #0]
 8000f14:	2900      	cmp	r1, #0
 8000f16:	d106      	bne.n	8000f26 <task_fuc+0x2a6>
 8000f18:	9901      	ldr	r1, [sp, #4]
 8000f1a:	2901      	cmp	r1, #1
 8000f1c:	d103      	bne.n	8000f26 <task_fuc+0x2a6>
 8000f1e:	75aa      	strb	r2, [r5, #22]
 8000f20:	18ed      	adds	r5, r5, r3
 8000f22:	72e8      	strb	r0, [r5, #11]
 8000f24:	e6f9      	b.n	8000d1a <task_fuc+0x9a>
 8000f26:	4929      	ldr	r1, [pc, #164]	; (8000fcc <task_fuc+0x34c>)
 8000f28:	758a      	strb	r2, [r1, #22]
 8000f2a:	54c8      	strb	r0, [r1, r3]
 8000f2c:	e6f5      	b.n	8000d1a <task_fuc+0x9a>
 8000f2e:	3401      	adds	r4, #1
 8000f30:	350a      	adds	r5, #10
 8000f32:	2c0c      	cmp	r4, #12
 8000f34:	d000      	beq.n	8000f38 <task_fuc+0x2b8>
 8000f36:	e6d7      	b.n	8000ce8 <task_fuc+0x68>
 8000f38:	e6f2      	b.n	8000d20 <task_fuc+0xa0>
 8000f3a:	0031      	movs	r1, r6
 8000f3c:	0028      	movs	r0, r5
 8000f3e:	310c      	adds	r1, #12
 8000f40:	f7ff fcb2 	bl	80008a8 <area_check>
 8000f44:	1e07      	subs	r7, r0, #0
 8000f46:	d014      	beq.n	8000f72 <task_fuc+0x2f2>
 8000f48:	4e1c      	ldr	r6, [pc, #112]	; (8000fbc <task_fuc+0x33c>)
 8000f4a:	7833      	ldrb	r3, [r6, #0]
 8000f4c:	2b01      	cmp	r3, #1
 8000f4e:	d000      	beq.n	8000f52 <task_fuc+0x2d2>
 8000f50:	e700      	b.n	8000d54 <task_fuc+0xd4>
 8000f52:	220b      	movs	r2, #11
 8000f54:	4b17      	ldr	r3, [pc, #92]	; (8000fb4 <task_fuc+0x334>)
 8000f56:	481d      	ldr	r0, [pc, #116]	; (8000fcc <task_fuc+0x34c>)
 8000f58:	701c      	strb	r4, [r3, #0]
 8000f5a:	4b17      	ldr	r3, [pc, #92]	; (8000fb8 <task_fuc+0x338>)
 8000f5c:	0021      	movs	r1, r4
 8000f5e:	1880      	adds	r0, r0, r2
 8000f60:	7034      	strb	r4, [r6, #0]
 8000f62:	701c      	strb	r4, [r3, #0]
 8000f64:	f002 f9a8 	bl	80032b8 <memset>
 8000f68:	0031      	movs	r1, r6
 8000f6a:	481f      	ldr	r0, [pc, #124]	; (8000fe8 <task_fuc+0x368>)
 8000f6c:	f7ff fda8 	bl	8000ac0 <log_save>
 8000f70:	e6f0      	b.n	8000d54 <task_fuc+0xd4>
 8000f72:	0031      	movs	r1, r6
 8000f74:	0028      	movs	r0, r5
 8000f76:	3118      	adds	r1, #24
 8000f78:	f7ff fc96 	bl	80008a8 <area_check>
 8000f7c:	2800      	cmp	r0, #0
 8000f7e:	d100      	bne.n	8000f82 <task_fuc+0x302>
 8000f80:	e6e8      	b.n	8000d54 <task_fuc+0xd4>
 8000f82:	4b0c      	ldr	r3, [pc, #48]	; (8000fb4 <task_fuc+0x334>)
 8000f84:	480f      	ldr	r0, [pc, #60]	; (8000fc4 <task_fuc+0x344>)
 8000f86:	701f      	strb	r7, [r3, #0]
 8000f88:	f7ff fe54 	bl	8000c34 <log_sort>
 8000f8c:	e6e2      	b.n	8000d54 <task_fuc+0xd4>
 8000f8e:	3401      	adds	r4, #1
 8000f90:	9a01      	ldr	r2, [sp, #4]
 8000f92:	b2e3      	uxtb	r3, r4
 8000f94:	3608      	adds	r6, #8
 8000f96:	429a      	cmp	r2, r3
 8000f98:	d900      	bls.n	8000f9c <task_fuc+0x31c>
 8000f9a:	e6e5      	b.n	8000d68 <task_fuc+0xe8>
 8000f9c:	e6f5      	b.n	8000d8a <task_fuc+0x10a>
 8000f9e:	2108      	movs	r1, #8
 8000fa0:	480c      	ldr	r0, [pc, #48]	; (8000fd4 <task_fuc+0x354>)
 8000fa2:	f000 fc01 	bl	80017a8 <HAL_GPIO_ReadPin>
 8000fa6:	2800      	cmp	r0, #0
 8000fa8:	d000      	beq.n	8000fac <task_fuc+0x32c>
 8000faa:	e6fb      	b.n	8000da4 <task_fuc+0x124>
 8000fac:	e6ff      	b.n	8000dae <task_fuc+0x12e>
 8000fae:	46c0      	nop			; (mov r8, r8)
 8000fb0:	2000011e 	.word	0x2000011e
 8000fb4:	20000321 	.word	0x20000321
 8000fb8:	20000241 	.word	0x20000241
 8000fbc:	20000240 	.word	0x20000240
 8000fc0:	08003e8c 	.word	0x08003e8c
 8000fc4:	200002ba 	.word	0x200002ba
 8000fc8:	20000242 	.word	0x20000242
 8000fcc:	2000030a 	.word	0x2000030a
 8000fd0:	20000000 	.word	0x20000000
 8000fd4:	50000400 	.word	0x50000400
 8000fd8:	08003e17 	.word	0x08003e17
 8000fdc:	08003e26 	.word	0x08003e26
 8000fe0:	0000044c 	.word	0x0000044c
 8000fe4:	00001388 	.word	0x00001388
 8000fe8:	20000028 	.word	0x20000028

08000fec <HAL_SYSTICK_Callback>:
 8000fec:	21fa      	movs	r1, #250	; 0xfa
 8000fee:	4a0f      	ldr	r2, [pc, #60]	; (800102c <HAL_SYSTICK_Callback+0x40>)
 8000ff0:	0089      	lsls	r1, r1, #2
 8000ff2:	8813      	ldrh	r3, [r2, #0]
 8000ff4:	3301      	adds	r3, #1
 8000ff6:	b29b      	uxth	r3, r3
 8000ff8:	8013      	strh	r3, [r2, #0]
 8000ffa:	428b      	cmp	r3, r1
 8000ffc:	d30a      	bcc.n	8001014 <HAL_SYSTICK_Callback+0x28>
 8000ffe:	2100      	movs	r1, #0
 8001000:	4b0b      	ldr	r3, [pc, #44]	; (8001030 <HAL_SYSTICK_Callback+0x44>)
 8001002:	8011      	strh	r1, [r2, #0]
 8001004:	7019      	strb	r1, [r3, #0]
 8001006:	4b0b      	ldr	r3, [pc, #44]	; (8001034 <HAL_SYSTICK_Callback+0x48>)
 8001008:	785a      	ldrb	r2, [r3, #1]
 800100a:	3201      	adds	r2, #1
 800100c:	b2d2      	uxtb	r2, r2
 800100e:	2a3b      	cmp	r2, #59	; 0x3b
 8001010:	d801      	bhi.n	8001016 <HAL_SYSTICK_Callback+0x2a>
 8001012:	705a      	strb	r2, [r3, #1]
 8001014:	4770      	bx	lr
 8001016:	781a      	ldrb	r2, [r3, #0]
 8001018:	7059      	strb	r1, [r3, #1]
 800101a:	3201      	adds	r2, #1
 800101c:	b2d2      	uxtb	r2, r2
 800101e:	2a3b      	cmp	r2, #59	; 0x3b
 8001020:	d801      	bhi.n	8001026 <HAL_SYSTICK_Callback+0x3a>
 8001022:	701a      	strb	r2, [r3, #0]
 8001024:	e7f6      	b.n	8001014 <HAL_SYSTICK_Callback+0x28>
 8001026:	7019      	strb	r1, [r3, #0]
 8001028:	e7f4      	b.n	8001014 <HAL_SYSTICK_Callback+0x28>
 800102a:	46c0      	nop			; (mov r8, r8)
 800102c:	2000011c 	.word	0x2000011c
 8001030:	20000321 	.word	0x20000321
 8001034:	20000028 	.word	0x20000028

08001038 <SystemClock_Config>:
 8001038:	b510      	push	{r4, lr}
 800103a:	b09c      	sub	sp, #112	; 0x70
 800103c:	2224      	movs	r2, #36	; 0x24
 800103e:	2100      	movs	r1, #0
 8001040:	a80f      	add	r0, sp, #60	; 0x3c
 8001042:	f002 f939 	bl	80032b8 <memset>
 8001046:	2214      	movs	r2, #20
 8001048:	2100      	movs	r1, #0
 800104a:	a801      	add	r0, sp, #4
 800104c:	f002 f934 	bl	80032b8 <memset>
 8001050:	2220      	movs	r2, #32
 8001052:	2100      	movs	r1, #0
 8001054:	a806      	add	r0, sp, #24
 8001056:	f002 f92f 	bl	80032b8 <memset>
 800105a:	491d      	ldr	r1, [pc, #116]	; (80010d0 <SystemClock_Config+0x98>)
 800105c:	4a1d      	ldr	r2, [pc, #116]	; (80010d4 <SystemClock_Config+0x9c>)
 800105e:	680b      	ldr	r3, [r1, #0]
 8001060:	2401      	movs	r4, #1
 8001062:	401a      	ands	r2, r3
 8001064:	2380      	movs	r3, #128	; 0x80
 8001066:	011b      	lsls	r3, r3, #4
 8001068:	4313      	orrs	r3, r2
 800106a:	600b      	str	r3, [r1, #0]
 800106c:	2302      	movs	r3, #2
 800106e:	930e      	str	r3, [sp, #56]	; 0x38
 8001070:	9318      	str	r3, [sp, #96]	; 0x60
 8001072:	2300      	movs	r3, #0
 8001074:	9319      	str	r3, [sp, #100]	; 0x64
 8001076:	2380      	movs	r3, #128	; 0x80
 8001078:	02db      	lsls	r3, r3, #11
 800107a:	931a      	str	r3, [sp, #104]	; 0x68
 800107c:	2380      	movs	r3, #128	; 0x80
 800107e:	2210      	movs	r2, #16
 8001080:	03db      	lsls	r3, r3, #15
 8001082:	a80e      	add	r0, sp, #56	; 0x38
 8001084:	9411      	str	r4, [sp, #68]	; 0x44
 8001086:	9212      	str	r2, [sp, #72]	; 0x48
 8001088:	931b      	str	r3, [sp, #108]	; 0x6c
 800108a:	f000 ff71 	bl	8001f70 <HAL_RCC_OscConfig>
 800108e:	2800      	cmp	r0, #0
 8001090:	d001      	beq.n	8001096 <SystemClock_Config+0x5e>
 8001092:	b672      	cpsid	i
 8001094:	e7fe      	b.n	8001094 <SystemClock_Config+0x5c>
 8001096:	230f      	movs	r3, #15
 8001098:	9003      	str	r0, [sp, #12]
 800109a:	9301      	str	r3, [sp, #4]
 800109c:	9004      	str	r0, [sp, #16]
 800109e:	3b0c      	subs	r3, #12
 80010a0:	9005      	str	r0, [sp, #20]
 80010a2:	0021      	movs	r1, r4
 80010a4:	a801      	add	r0, sp, #4
 80010a6:	9302      	str	r3, [sp, #8]
 80010a8:	f001 f9e4 	bl	8002474 <HAL_RCC_ClockConfig>
 80010ac:	2800      	cmp	r0, #0
 80010ae:	d001      	beq.n	80010b4 <SystemClock_Config+0x7c>
 80010b0:	b672      	cpsid	i
 80010b2:	e7fe      	b.n	80010b2 <SystemClock_Config+0x7a>
 80010b4:	2309      	movs	r3, #9
 80010b6:	9008      	str	r0, [sp, #32]
 80010b8:	900b      	str	r0, [sp, #44]	; 0x2c
 80010ba:	a806      	add	r0, sp, #24
 80010bc:	9306      	str	r3, [sp, #24]
 80010be:	f001 fac7 	bl	8002650 <HAL_RCCEx_PeriphCLKConfig>
 80010c2:	2800      	cmp	r0, #0
 80010c4:	d001      	beq.n	80010ca <SystemClock_Config+0x92>
 80010c6:	b672      	cpsid	i
 80010c8:	e7fe      	b.n	80010c8 <SystemClock_Config+0x90>
 80010ca:	b01c      	add	sp, #112	; 0x70
 80010cc:	bd10      	pop	{r4, pc}
 80010ce:	46c0      	nop			; (mov r8, r8)
 80010d0:	40007000 	.word	0x40007000
 80010d4:	ffffe7ff 	.word	0xffffe7ff

080010d8 <main>:
 80010d8:	b5f0      	push	{r4, r5, r6, r7, lr}
 80010da:	2401      	movs	r4, #1
 80010dc:	b08b      	sub	sp, #44	; 0x2c
 80010de:	f000 fa23 	bl	8001528 <HAL_Init>
 80010e2:	f7ff ffa9 	bl	8001038 <SystemClock_Config>
 80010e6:	2214      	movs	r2, #20
 80010e8:	2100      	movs	r1, #0
 80010ea:	a805      	add	r0, sp, #20
 80010ec:	f002 f8e4 	bl	80032b8 <memset>
 80010f0:	2102      	movs	r1, #2
 80010f2:	20a0      	movs	r0, #160	; 0xa0
 80010f4:	4b75      	ldr	r3, [pc, #468]	; (80012cc <main+0x1f4>)
 80010f6:	05c0      	lsls	r0, r0, #23
 80010f8:	6ada      	ldr	r2, [r3, #44]	; 0x2c
 80010fa:	2500      	movs	r5, #0
 80010fc:	4322      	orrs	r2, r4
 80010fe:	62da      	str	r2, [r3, #44]	; 0x2c
 8001100:	6ada      	ldr	r2, [r3, #44]	; 0x2c
 8001102:	4e73      	ldr	r6, [pc, #460]	; (80012d0 <main+0x1f8>)
 8001104:	4022      	ands	r2, r4
 8001106:	9201      	str	r2, [sp, #4]
 8001108:	9a01      	ldr	r2, [sp, #4]
 800110a:	6ada      	ldr	r2, [r3, #44]	; 0x2c
 800110c:	430a      	orrs	r2, r1
 800110e:	62da      	str	r2, [r3, #44]	; 0x2c
 8001110:	6adb      	ldr	r3, [r3, #44]	; 0x2c
 8001112:	2200      	movs	r2, #0
 8001114:	400b      	ands	r3, r1
 8001116:	9302      	str	r3, [sp, #8]
 8001118:	3136      	adds	r1, #54	; 0x36
 800111a:	9b02      	ldr	r3, [sp, #8]
 800111c:	f000 fb4a 	bl	80017b4 <HAL_GPIO_WritePin>
 8001120:	20a0      	movs	r0, #160	; 0xa0
 8001122:	2307      	movs	r3, #7
 8001124:	a905      	add	r1, sp, #20
 8001126:	05c0      	lsls	r0, r0, #23
 8001128:	9305      	str	r3, [sp, #20]
 800112a:	9506      	str	r5, [sp, #24]
 800112c:	9407      	str	r4, [sp, #28]
 800112e:	f000 fa7b 	bl	8001628 <HAL_GPIO_Init>
 8001132:	20a0      	movs	r0, #160	; 0xa0
 8001134:	2338      	movs	r3, #56	; 0x38
 8001136:	a905      	add	r1, sp, #20
 8001138:	05c0      	lsls	r0, r0, #23
 800113a:	9305      	str	r3, [sp, #20]
 800113c:	9406      	str	r4, [sp, #24]
 800113e:	9507      	str	r5, [sp, #28]
 8001140:	9508      	str	r5, [sp, #32]
 8001142:	f000 fa71 	bl	8001628 <HAL_GPIO_Init>
 8001146:	230a      	movs	r3, #10
 8001148:	4862      	ldr	r0, [pc, #392]	; (80012d4 <main+0x1fc>)
 800114a:	a905      	add	r1, sp, #20
 800114c:	9305      	str	r3, [sp, #20]
 800114e:	9506      	str	r5, [sp, #24]
 8001150:	9507      	str	r5, [sp, #28]
 8001152:	f000 fa69 	bl	8001628 <HAL_GPIO_Init>
 8001156:	2396      	movs	r3, #150	; 0x96
 8001158:	485f      	ldr	r0, [pc, #380]	; (80012d8 <main+0x200>)
 800115a:	019b      	lsls	r3, r3, #6
 800115c:	6043      	str	r3, [r0, #4]
 800115e:	230c      	movs	r3, #12
 8001160:	6006      	str	r6, [r0, #0]
 8001162:	6085      	str	r5, [r0, #8]
 8001164:	60c5      	str	r5, [r0, #12]
 8001166:	6105      	str	r5, [r0, #16]
 8001168:	6143      	str	r3, [r0, #20]
 800116a:	6185      	str	r5, [r0, #24]
 800116c:	61c5      	str	r5, [r0, #28]
 800116e:	6205      	str	r5, [r0, #32]
 8001170:	6245      	str	r5, [r0, #36]	; 0x24
 8001172:	f002 f829 	bl	80031c8 <HAL_UART_Init>
 8001176:	0007      	movs	r7, r0
 8001178:	42a8      	cmp	r0, r5
 800117a:	d001      	beq.n	8001180 <main+0xa8>
 800117c:	b672      	cpsid	i
 800117e:	e7fe      	b.n	800117e <main+0xa6>
 8001180:	0001      	movs	r1, r0
 8001182:	2208      	movs	r2, #8
 8001184:	a803      	add	r0, sp, #12
 8001186:	f002 f897 	bl	80032b8 <memset>
 800118a:	2210      	movs	r2, #16
 800118c:	0039      	movs	r1, r7
 800118e:	a805      	add	r0, sp, #20
 8001190:	f002 f892 	bl	80032b8 <memset>
 8001194:	2380      	movs	r3, #128	; 0x80
 8001196:	4d51      	ldr	r5, [pc, #324]	; (80012dc <main+0x204>)
 8001198:	05db      	lsls	r3, r3, #23
 800119a:	602b      	str	r3, [r5, #0]
 800119c:	231f      	movs	r3, #31
 800119e:	0028      	movs	r0, r5
 80011a0:	606b      	str	r3, [r5, #4]
 80011a2:	33da      	adds	r3, #218	; 0xda
 80011a4:	60af      	str	r7, [r5, #8]
 80011a6:	60eb      	str	r3, [r5, #12]
 80011a8:	612f      	str	r7, [r5, #16]
 80011aa:	616f      	str	r7, [r5, #20]
 80011ac:	f001 fbf4 	bl	8002998 <HAL_TIM_PWM_Init>
 80011b0:	2800      	cmp	r0, #0
 80011b2:	d001      	beq.n	80011b8 <main+0xe0>
 80011b4:	b672      	cpsid	i
 80011b6:	e7fe      	b.n	80011b6 <main+0xde>
 80011b8:	9003      	str	r0, [sp, #12]
 80011ba:	9004      	str	r0, [sp, #16]
 80011bc:	a903      	add	r1, sp, #12
 80011be:	0028      	movs	r0, r5
 80011c0:	f001 fca4 	bl	8002b0c <HAL_TIMEx_MasterConfigSynchronization>
 80011c4:	1e02      	subs	r2, r0, #0
 80011c6:	d001      	beq.n	80011cc <main+0xf4>
 80011c8:	b672      	cpsid	i
 80011ca:	e7fe      	b.n	80011ca <main+0xf2>
 80011cc:	2360      	movs	r3, #96	; 0x60
 80011ce:	9007      	str	r0, [sp, #28]
 80011d0:	9305      	str	r3, [sp, #20]
 80011d2:	9008      	str	r0, [sp, #32]
 80011d4:	331c      	adds	r3, #28
 80011d6:	0028      	movs	r0, r5
 80011d8:	a905      	add	r1, sp, #20
 80011da:	9306      	str	r3, [sp, #24]
 80011dc:	f001 fc08 	bl	80029f0 <HAL_TIM_PWM_ConfigChannel>
 80011e0:	1e07      	subs	r7, r0, #0
 80011e2:	d001      	beq.n	80011e8 <main+0x110>
 80011e4:	b672      	cpsid	i
 80011e6:	e7fe      	b.n	80011e6 <main+0x10e>
 80011e8:	0028      	movs	r0, r5
 80011ea:	f000 f8cf 	bl	800138c <HAL_TIM_MspPostInit>
 80011ee:	4d3c      	ldr	r5, [pc, #240]	; (80012e0 <main+0x208>)
 80011f0:	4b3c      	ldr	r3, [pc, #240]	; (80012e4 <main+0x20c>)
 80011f2:	0028      	movs	r0, r5
 80011f4:	602b      	str	r3, [r5, #0]
 80011f6:	4b3c      	ldr	r3, [pc, #240]	; (80012e8 <main+0x210>)
 80011f8:	60af      	str	r7, [r5, #8]
 80011fa:	606b      	str	r3, [r5, #4]
 80011fc:	60ec      	str	r4, [r5, #12]
 80011fe:	612f      	str	r7, [r5, #16]
 8001200:	616f      	str	r7, [r5, #20]
 8001202:	61af      	str	r7, [r5, #24]
 8001204:	61ef      	str	r7, [r5, #28]
 8001206:	622f      	str	r7, [r5, #32]
 8001208:	f000 fc0a 	bl	8001a20 <HAL_I2C_Init>
 800120c:	1e01      	subs	r1, r0, #0
 800120e:	d001      	beq.n	8001214 <main+0x13c>
 8001210:	b672      	cpsid	i
 8001212:	e7fe      	b.n	8001212 <main+0x13a>
 8001214:	0028      	movs	r0, r5
 8001216:	f000 fe19 	bl	8001e4c <HAL_I2CEx_ConfigAnalogFilter>
 800121a:	1e01      	subs	r1, r0, #0
 800121c:	d001      	beq.n	8001222 <main+0x14a>
 800121e:	b672      	cpsid	i
 8001220:	e7fe      	b.n	8001220 <main+0x148>
 8001222:	0028      	movs	r0, r5
 8001224:	f000 fe38 	bl	8001e98 <HAL_I2CEx_ConfigDigitalFilter>
 8001228:	2800      	cmp	r0, #0
 800122a:	d001      	beq.n	8001230 <main+0x158>
 800122c:	b672      	cpsid	i
 800122e:	e7fe      	b.n	800122e <main+0x156>
 8001230:	f7ff fa78 	bl	8000724 <initEns160>
 8001234:	f7ff fa3e 	bl	80006b4 <initDrv8830>
 8001238:	20a0      	movs	r0, #160	; 0xa0
 800123a:	0022      	movs	r2, r4
 800123c:	2108      	movs	r1, #8
 800123e:	05c0      	lsls	r0, r0, #23
 8001240:	f000 fab8 	bl	80017b4 <HAL_GPIO_WritePin>
 8001244:	20a0      	movs	r0, #160	; 0xa0
 8001246:	0022      	movs	r2, r4
 8001248:	2110      	movs	r1, #16
 800124a:	05c0      	lsls	r0, r0, #23
 800124c:	f000 fab2 	bl	80017b4 <HAL_GPIO_WritePin>
 8001250:	20a0      	movs	r0, #160	; 0xa0
 8001252:	0022      	movs	r2, r4
 8001254:	2120      	movs	r1, #32
 8001256:	05c0      	lsls	r0, r0, #23
 8001258:	f000 faac 	bl	80017b4 <HAL_GPIO_WritePin>
 800125c:	4d23      	ldr	r5, [pc, #140]	; (80012ec <main+0x214>)
 800125e:	0028      	movs	r0, r5
 8001260:	f7ff fa9a 	bl	8000798 <nextion_inst_set>
 8001264:	0028      	movs	r0, r5
 8001266:	f7ff fa97 	bl	8000798 <nextion_inst_set>
 800126a:	0028      	movs	r0, r5
 800126c:	f7ff fa94 	bl	8000798 <nextion_inst_set>
 8001270:	2032      	movs	r0, #50	; 0x32
 8001272:	f000 f97f 	bl	8001574 <HAL_Delay>
 8001276:	6833      	ldr	r3, [r6, #0]
 8001278:	20fa      	movs	r0, #250	; 0xfa
 800127a:	43a3      	bics	r3, r4
 800127c:	6033      	str	r3, [r6, #0]
 800127e:	2323      	movs	r3, #35	; 0x23
 8001280:	60f3      	str	r3, [r6, #12]
 8001282:	6833      	ldr	r3, [r6, #0]
 8001284:	0080      	lsls	r0, r0, #2
 8001286:	431c      	orrs	r4, r3
 8001288:	6034      	str	r4, [r6, #0]
 800128a:	f000 f973 	bl	8001574 <HAL_Delay>
 800128e:	f7ff fb1f 	bl	80008d0 <keypad_init>
 8001292:	2230      	movs	r2, #48	; 0x30
 8001294:	4b16      	ldr	r3, [pc, #88]	; (80012f0 <main+0x218>)
 8001296:	24e6      	movs	r4, #230	; 0xe6
 8001298:	20eb      	movs	r0, #235	; 0xeb
 800129a:	701a      	strb	r2, [r3, #0]
 800129c:	705a      	strb	r2, [r3, #1]
 800129e:	709a      	strb	r2, [r3, #2]
 80012a0:	70da      	strb	r2, [r3, #3]
 80012a2:	2328      	movs	r3, #40	; 0x28
 80012a4:	4a13      	ldr	r2, [pc, #76]	; (80012f4 <main+0x21c>)
 80012a6:	0064      	lsls	r4, r4, #1
 80012a8:	0040      	lsls	r0, r0, #1
 80012aa:	0019      	movs	r1, r3
 80012ac:	8413      	strh	r3, [r2, #32]
 80012ae:	331e      	adds	r3, #30
 80012b0:	310a      	adds	r1, #10
 80012b2:	b29b      	uxth	r3, r3
 80012b4:	83d4      	strh	r4, [r2, #30]
 80012b6:	8450      	strh	r0, [r2, #34]	; 0x22
 80012b8:	8491      	strh	r1, [r2, #36]	; 0x24
 80012ba:	3208      	adds	r2, #8
 80012bc:	2bdc      	cmp	r3, #220	; 0xdc
 80012be:	d1f4      	bne.n	80012aa <main+0x1d2>
 80012c0:	2000      	movs	r0, #0
 80012c2:	f7ff fa0b 	bl	80006dc <setMotor>
 80012c6:	f7ff fcdb 	bl	8000c80 <task_fuc>
 80012ca:	46c0      	nop			; (mov r8, r8)
 80012cc:	40021000 	.word	0x40021000
 80012d0:	40013800 	.word	0x40013800
 80012d4:	50000400 	.word	0x50000400
 80012d8:	200001b8 	.word	0x200001b8
 80012dc:	20000178 	.word	0x20000178
 80012e0:	20000124 	.word	0x20000124
 80012e4:	40005400 	.word	0x40005400
 80012e8:	00300f38 	.word	0x00300f38
 80012ec:	08003e34 	.word	0x08003e34
 80012f0:	2000030a 	.word	0x2000030a
 80012f4:	200002ba 	.word	0x200002ba

080012f8 <HAL_MspInit>:
 80012f8:	2201      	movs	r2, #1
 80012fa:	4b05      	ldr	r3, [pc, #20]	; (8001310 <HAL_MspInit+0x18>)
 80012fc:	6b59      	ldr	r1, [r3, #52]	; 0x34
 80012fe:	430a      	orrs	r2, r1
 8001300:	635a      	str	r2, [r3, #52]	; 0x34
 8001302:	2280      	movs	r2, #128	; 0x80
 8001304:	6b99      	ldr	r1, [r3, #56]	; 0x38
 8001306:	0552      	lsls	r2, r2, #21
 8001308:	430a      	orrs	r2, r1
 800130a:	639a      	str	r2, [r3, #56]	; 0x38
 800130c:	4770      	bx	lr
 800130e:	46c0      	nop			; (mov r8, r8)
 8001310:	40021000 	.word	0x40021000

08001314 <HAL_I2C_MspInit>:
 8001314:	b510      	push	{r4, lr}
 8001316:	0004      	movs	r4, r0
 8001318:	b086      	sub	sp, #24
 800131a:	2214      	movs	r2, #20
 800131c:	2100      	movs	r1, #0
 800131e:	a801      	add	r0, sp, #4
 8001320:	f001 ffca 	bl	80032b8 <memset>
 8001324:	4b0f      	ldr	r3, [pc, #60]	; (8001364 <HAL_I2C_MspInit+0x50>)
 8001326:	6822      	ldr	r2, [r4, #0]
 8001328:	429a      	cmp	r2, r3
 800132a:	d119      	bne.n	8001360 <HAL_I2C_MspInit+0x4c>
 800132c:	2102      	movs	r1, #2
 800132e:	4c0e      	ldr	r4, [pc, #56]	; (8001368 <HAL_I2C_MspInit+0x54>)
 8001330:	480e      	ldr	r0, [pc, #56]	; (800136c <HAL_I2C_MspInit+0x58>)
 8001332:	6ae2      	ldr	r2, [r4, #44]	; 0x2c
 8001334:	430a      	orrs	r2, r1
 8001336:	62e2      	str	r2, [r4, #44]	; 0x2c
 8001338:	6ae3      	ldr	r3, [r4, #44]	; 0x2c
 800133a:	400b      	ands	r3, r1
 800133c:	9300      	str	r3, [sp, #0]
 800133e:	9b00      	ldr	r3, [sp, #0]
 8001340:	23c0      	movs	r3, #192	; 0xc0
 8001342:	9301      	str	r3, [sp, #4]
 8001344:	3bae      	subs	r3, #174	; 0xae
 8001346:	9302      	str	r3, [sp, #8]
 8001348:	3b0f      	subs	r3, #15
 800134a:	9304      	str	r3, [sp, #16]
 800134c:	a901      	add	r1, sp, #4
 800134e:	3b02      	subs	r3, #2
 8001350:	9305      	str	r3, [sp, #20]
 8001352:	f000 f969 	bl	8001628 <HAL_GPIO_Init>
 8001356:	2380      	movs	r3, #128	; 0x80
 8001358:	6ba2      	ldr	r2, [r4, #56]	; 0x38
 800135a:	039b      	lsls	r3, r3, #14
 800135c:	4313      	orrs	r3, r2
 800135e:	63a3      	str	r3, [r4, #56]	; 0x38
 8001360:	b006      	add	sp, #24
 8001362:	bd10      	pop	{r4, pc}
 8001364:	40005400 	.word	0x40005400
 8001368:	40021000 	.word	0x40021000
 800136c:	50000400 	.word	0x50000400

08001370 <HAL_TIM_PWM_MspInit>:
 8001370:	2380      	movs	r3, #128	; 0x80
 8001372:	6802      	ldr	r2, [r0, #0]
 8001374:	05db      	lsls	r3, r3, #23
 8001376:	429a      	cmp	r2, r3
 8001378:	d104      	bne.n	8001384 <HAL_TIM_PWM_MspInit+0x14>
 800137a:	2301      	movs	r3, #1
 800137c:	4a02      	ldr	r2, [pc, #8]	; (8001388 <HAL_TIM_PWM_MspInit+0x18>)
 800137e:	6b91      	ldr	r1, [r2, #56]	; 0x38
 8001380:	430b      	orrs	r3, r1
 8001382:	6393      	str	r3, [r2, #56]	; 0x38
 8001384:	4770      	bx	lr
 8001386:	46c0      	nop			; (mov r8, r8)
 8001388:	40021000 	.word	0x40021000

0800138c <HAL_TIM_MspPostInit>:
 800138c:	b510      	push	{r4, lr}
 800138e:	0004      	movs	r4, r0
 8001390:	b086      	sub	sp, #24
 8001392:	2214      	movs	r2, #20
 8001394:	2100      	movs	r1, #0
 8001396:	a801      	add	r0, sp, #4
 8001398:	f001 ff8e 	bl	80032b8 <memset>
 800139c:	2380      	movs	r3, #128	; 0x80
 800139e:	6822      	ldr	r2, [r4, #0]
 80013a0:	05db      	lsls	r3, r3, #23
 80013a2:	429a      	cmp	r2, r3
 80013a4:	d114      	bne.n	80013d0 <HAL_TIM_MspPostInit+0x44>
 80013a6:	2001      	movs	r0, #1
 80013a8:	4a0a      	ldr	r2, [pc, #40]	; (80013d4 <HAL_TIM_MspPostInit+0x48>)
 80013aa:	6ad1      	ldr	r1, [r2, #44]	; 0x2c
 80013ac:	4301      	orrs	r1, r0
 80013ae:	62d1      	str	r1, [r2, #44]	; 0x2c
 80013b0:	6ad3      	ldr	r3, [r2, #44]	; 0x2c
 80013b2:	a901      	add	r1, sp, #4
 80013b4:	4003      	ands	r3, r0
 80013b6:	9300      	str	r3, [sp, #0]
 80013b8:	9b00      	ldr	r3, [sp, #0]
 80013ba:	2380      	movs	r3, #128	; 0x80
 80013bc:	021b      	lsls	r3, r3, #8
 80013be:	20a0      	movs	r0, #160	; 0xa0
 80013c0:	9301      	str	r3, [sp, #4]
 80013c2:	2302      	movs	r3, #2
 80013c4:	05c0      	lsls	r0, r0, #23
 80013c6:	9302      	str	r3, [sp, #8]
 80013c8:	3303      	adds	r3, #3
 80013ca:	9305      	str	r3, [sp, #20]
 80013cc:	f000 f92c 	bl	8001628 <HAL_GPIO_Init>
 80013d0:	b006      	add	sp, #24
 80013d2:	bd10      	pop	{r4, pc}
 80013d4:	40021000 	.word	0x40021000

080013d8 <HAL_UART_MspInit>:
 80013d8:	b510      	push	{r4, lr}
 80013da:	0004      	movs	r4, r0
 80013dc:	b086      	sub	sp, #24
 80013de:	2214      	movs	r2, #20
 80013e0:	2100      	movs	r1, #0
 80013e2:	a801      	add	r0, sp, #4
 80013e4:	f001 ff68 	bl	80032b8 <memset>
 80013e8:	4b10      	ldr	r3, [pc, #64]	; (800142c <HAL_UART_MspInit+0x54>)
 80013ea:	6822      	ldr	r2, [r4, #0]
 80013ec:	429a      	cmp	r2, r3
 80013ee:	d11b      	bne.n	8001428 <HAL_UART_MspInit+0x50>
 80013f0:	2280      	movs	r2, #128	; 0x80
 80013f2:	4b0f      	ldr	r3, [pc, #60]	; (8001430 <HAL_UART_MspInit+0x58>)
 80013f4:	01d2      	lsls	r2, r2, #7
 80013f6:	6b59      	ldr	r1, [r3, #52]	; 0x34
 80013f8:	20a0      	movs	r0, #160	; 0xa0
 80013fa:	430a      	orrs	r2, r1
 80013fc:	2101      	movs	r1, #1
 80013fe:	635a      	str	r2, [r3, #52]	; 0x34
 8001400:	6ada      	ldr	r2, [r3, #44]	; 0x2c
 8001402:	05c0      	lsls	r0, r0, #23
 8001404:	430a      	orrs	r2, r1
 8001406:	62da      	str	r2, [r3, #44]	; 0x2c
 8001408:	6adb      	ldr	r3, [r3, #44]	; 0x2c
 800140a:	400b      	ands	r3, r1
 800140c:	9300      	str	r3, [sp, #0]
 800140e:	9b00      	ldr	r3, [sp, #0]
 8001410:	23c0      	movs	r3, #192	; 0xc0
 8001412:	00db      	lsls	r3, r3, #3
 8001414:	9301      	str	r3, [sp, #4]
 8001416:	2302      	movs	r3, #2
 8001418:	9302      	str	r3, [sp, #8]
 800141a:	185b      	adds	r3, r3, r1
 800141c:	9304      	str	r3, [sp, #16]
 800141e:	185b      	adds	r3, r3, r1
 8001420:	a901      	add	r1, sp, #4
 8001422:	9305      	str	r3, [sp, #20]
 8001424:	f000 f900 	bl	8001628 <HAL_GPIO_Init>
 8001428:	b006      	add	sp, #24
 800142a:	bd10      	pop	{r4, pc}
 800142c:	40013800 	.word	0x40013800
 8001430:	40021000 	.word	0x40021000

08001434 <NMI_Handler>:
 8001434:	e7fe      	b.n	8001434 <NMI_Handler>

08001436 <HardFault_Handler>:
 8001436:	e7fe      	b.n	8001436 <HardFault_Handler>

08001438 <SVC_Handler>:
 8001438:	4770      	bx	lr

0800143a <PendSV_Handler>:
 800143a:	4770      	bx	lr

0800143c <SysTick_Handler>:
 800143c:	b510      	push	{r4, lr}
 800143e:	f000 f887 	bl	8001550 <HAL_IncTick>
 8001442:	f000 f8ed 	bl	8001620 <HAL_SYSTICK_IRQHandler>
 8001446:	bd10      	pop	{r4, pc}

08001448 <_sbrk>:
 8001448:	4a0b      	ldr	r2, [pc, #44]	; (8001478 <_sbrk+0x30>)
 800144a:	490c      	ldr	r1, [pc, #48]	; (800147c <_sbrk+0x34>)
 800144c:	0003      	movs	r3, r0
 800144e:	1a89      	subs	r1, r1, r2
 8001450:	4a0b      	ldr	r2, [pc, #44]	; (8001480 <_sbrk+0x38>)
 8001452:	b510      	push	{r4, lr}
 8001454:	6810      	ldr	r0, [r2, #0]
 8001456:	2800      	cmp	r0, #0
 8001458:	d101      	bne.n	800145e <_sbrk+0x16>
 800145a:	480a      	ldr	r0, [pc, #40]	; (8001484 <_sbrk+0x3c>)
 800145c:	6010      	str	r0, [r2, #0]
 800145e:	6810      	ldr	r0, [r2, #0]
 8001460:	18c3      	adds	r3, r0, r3
 8001462:	428b      	cmp	r3, r1
 8001464:	d906      	bls.n	8001474 <_sbrk+0x2c>
 8001466:	f001 fee1 	bl	800322c <__errno>
 800146a:	230c      	movs	r3, #12
 800146c:	6003      	str	r3, [r0, #0]
 800146e:	2001      	movs	r0, #1
 8001470:	4240      	negs	r0, r0
 8001472:	bd10      	pop	{r4, pc}
 8001474:	6013      	str	r3, [r2, #0]
 8001476:	e7fc      	b.n	8001472 <_sbrk+0x2a>
 8001478:	00000400 	.word	0x00000400
 800147c:	20002000 	.word	0x20002000
 8001480:	20000324 	.word	0x20000324
 8001484:	20000340 	.word	0x20000340

08001488 <SystemInit>:
 8001488:	4770      	bx	lr
	...

0800148c <Reset_Handler>:
 800148c:	480d      	ldr	r0, [pc, #52]	; (80014c4 <LoopForever+0x2>)
 800148e:	4685      	mov	sp, r0
 8001490:	f7ff fffa 	bl	8001488 <SystemInit>
 8001494:	480c      	ldr	r0, [pc, #48]	; (80014c8 <LoopForever+0x6>)
 8001496:	490d      	ldr	r1, [pc, #52]	; (80014cc <LoopForever+0xa>)
 8001498:	4a0d      	ldr	r2, [pc, #52]	; (80014d0 <LoopForever+0xe>)
 800149a:	2300      	movs	r3, #0
 800149c:	e002      	b.n	80014a4 <LoopCopyDataInit>

0800149e <CopyDataInit>:
 800149e:	58d4      	ldr	r4, [r2, r3]
 80014a0:	50c4      	str	r4, [r0, r3]
 80014a2:	3304      	adds	r3, #4

080014a4 <LoopCopyDataInit>:
 80014a4:	18c4      	adds	r4, r0, r3
 80014a6:	428c      	cmp	r4, r1
 80014a8:	d3f9      	bcc.n	800149e <CopyDataInit>
 80014aa:	4a0a      	ldr	r2, [pc, #40]	; (80014d4 <LoopForever+0x12>)
 80014ac:	4c0a      	ldr	r4, [pc, #40]	; (80014d8 <LoopForever+0x16>)
 80014ae:	2300      	movs	r3, #0
 80014b0:	e001      	b.n	80014b6 <LoopFillZerobss>

080014b2 <FillZerobss>:
 80014b2:	6013      	str	r3, [r2, #0]
 80014b4:	3204      	adds	r2, #4

080014b6 <LoopFillZerobss>:
 80014b6:	42a2      	cmp	r2, r4
 80014b8:	d3fb      	bcc.n	80014b2 <FillZerobss>
 80014ba:	f001 febd 	bl	8003238 <__libc_init_array>
 80014be:	f7ff fe0b 	bl	80010d8 <main>

080014c2 <LoopForever>:
 80014c2:	e7fe      	b.n	80014c2 <LoopForever>
 80014c4:	20002000 	.word	0x20002000
 80014c8:	20000000 	.word	0x20000000
 80014cc:	2000009c 	.word	0x2000009c
 80014d0:	08003ecc 	.word	0x08003ecc
 80014d4:	2000009c 	.word	0x2000009c
 80014d8:	2000033c 	.word	0x2000033c

080014dc <ADC1_COMP_IRQHandler>:
 80014dc:	e7fe      	b.n	80014dc <ADC1_COMP_IRQHandler>
	...

080014e0 <HAL_InitTick>:
 80014e0:	b570      	push	{r4, r5, r6, lr}
 80014e2:	0005      	movs	r5, r0
 80014e4:	20fa      	movs	r0, #250	; 0xfa
 80014e6:	4b0d      	ldr	r3, [pc, #52]	; (800151c <HAL_InitTick+0x3c>)
 80014e8:	0080      	lsls	r0, r0, #2
 80014ea:	7819      	ldrb	r1, [r3, #0]
 80014ec:	f7fe fe28 	bl	8000140 <__udivsi3>
 80014f0:	4b0b      	ldr	r3, [pc, #44]	; (8001520 <HAL_InitTick+0x40>)
 80014f2:	0001      	movs	r1, r0
 80014f4:	6818      	ldr	r0, [r3, #0]
 80014f6:	f7fe fe23 	bl	8000140 <__udivsi3>
 80014fa:	f000 f877 	bl	80015ec <HAL_SYSTICK_Config>
 80014fe:	0004      	movs	r4, r0
 8001500:	2001      	movs	r0, #1
 8001502:	2c00      	cmp	r4, #0
 8001504:	d109      	bne.n	800151a <HAL_InitTick+0x3a>
 8001506:	2d03      	cmp	r5, #3
 8001508:	d807      	bhi.n	800151a <HAL_InitTick+0x3a>
 800150a:	3802      	subs	r0, #2
 800150c:	0022      	movs	r2, r4
 800150e:	0029      	movs	r1, r5
 8001510:	f000 f842 	bl	8001598 <HAL_NVIC_SetPriority>
 8001514:	0020      	movs	r0, r4
 8001516:	4b03      	ldr	r3, [pc, #12]	; (8001524 <HAL_InitTick+0x44>)
 8001518:	601d      	str	r5, [r3, #0]
 800151a:	bd70      	pop	{r4, r5, r6, pc}
 800151c:	20000030 	.word	0x20000030
 8001520:	2000002c 	.word	0x2000002c
 8001524:	20000034 	.word	0x20000034

08001528 <HAL_Init>:
 8001528:	2340      	movs	r3, #64	; 0x40
 800152a:	4a08      	ldr	r2, [pc, #32]	; (800154c <HAL_Init+0x24>)
 800152c:	b510      	push	{r4, lr}
 800152e:	6811      	ldr	r1, [r2, #0]
 8001530:	2003      	movs	r0, #3
 8001532:	430b      	orrs	r3, r1
 8001534:	6013      	str	r3, [r2, #0]
 8001536:	f7ff ffd3 	bl	80014e0 <HAL_InitTick>
 800153a:	1e04      	subs	r4, r0, #0
 800153c:	d103      	bne.n	8001546 <HAL_Init+0x1e>
 800153e:	f7ff fedb 	bl	80012f8 <HAL_MspInit>
 8001542:	0020      	movs	r0, r4
 8001544:	bd10      	pop	{r4, pc}
 8001546:	2401      	movs	r4, #1
 8001548:	e7fb      	b.n	8001542 <HAL_Init+0x1a>
 800154a:	46c0      	nop			; (mov r8, r8)
 800154c:	40022000 	.word	0x40022000

08001550 <HAL_IncTick>:
 8001550:	4a03      	ldr	r2, [pc, #12]	; (8001560 <HAL_IncTick+0x10>)
 8001552:	4b04      	ldr	r3, [pc, #16]	; (8001564 <HAL_IncTick+0x14>)
 8001554:	6811      	ldr	r1, [r2, #0]
 8001556:	781b      	ldrb	r3, [r3, #0]
 8001558:	185b      	adds	r3, r3, r1
 800155a:	6013      	str	r3, [r2, #0]
 800155c:	4770      	bx	lr
 800155e:	46c0      	nop			; (mov r8, r8)
 8001560:	20000328 	.word	0x20000328
 8001564:	20000030 	.word	0x20000030

08001568 <HAL_GetTick>:
 8001568:	4b01      	ldr	r3, [pc, #4]	; (8001570 <HAL_GetTick+0x8>)
 800156a:	6818      	ldr	r0, [r3, #0]
 800156c:	4770      	bx	lr
 800156e:	46c0      	nop			; (mov r8, r8)
 8001570:	20000328 	.word	0x20000328

08001574 <HAL_Delay>:
 8001574:	b570      	push	{r4, r5, r6, lr}
 8001576:	0004      	movs	r4, r0
 8001578:	f7ff fff6 	bl	8001568 <HAL_GetTick>
 800157c:	0005      	movs	r5, r0
 800157e:	1c63      	adds	r3, r4, #1
 8001580:	d002      	beq.n	8001588 <HAL_Delay+0x14>
 8001582:	4b04      	ldr	r3, [pc, #16]	; (8001594 <HAL_Delay+0x20>)
 8001584:	781b      	ldrb	r3, [r3, #0]
 8001586:	18e4      	adds	r4, r4, r3
 8001588:	f7ff ffee 	bl	8001568 <HAL_GetTick>
 800158c:	1b40      	subs	r0, r0, r5
 800158e:	42a0      	cmp	r0, r4
 8001590:	d3fa      	bcc.n	8001588 <HAL_Delay+0x14>
 8001592:	bd70      	pop	{r4, r5, r6, pc}
 8001594:	20000030 	.word	0x20000030

08001598 <HAL_NVIC_SetPriority>:
 8001598:	b530      	push	{r4, r5, lr}
 800159a:	25ff      	movs	r5, #255	; 0xff
 800159c:	2403      	movs	r4, #3
 800159e:	002a      	movs	r2, r5
 80015a0:	4004      	ands	r4, r0
 80015a2:	00e4      	lsls	r4, r4, #3
 80015a4:	40a2      	lsls	r2, r4
 80015a6:	0189      	lsls	r1, r1, #6
 80015a8:	4029      	ands	r1, r5
 80015aa:	43d2      	mvns	r2, r2
 80015ac:	40a1      	lsls	r1, r4
 80015ae:	b2c3      	uxtb	r3, r0
 80015b0:	2800      	cmp	r0, #0
 80015b2:	db0a      	blt.n	80015ca <HAL_NVIC_SetPriority+0x32>
 80015b4:	24c0      	movs	r4, #192	; 0xc0
 80015b6:	4b0b      	ldr	r3, [pc, #44]	; (80015e4 <HAL_NVIC_SetPriority+0x4c>)
 80015b8:	0880      	lsrs	r0, r0, #2
 80015ba:	0080      	lsls	r0, r0, #2
 80015bc:	18c0      	adds	r0, r0, r3
 80015be:	00a4      	lsls	r4, r4, #2
 80015c0:	5903      	ldr	r3, [r0, r4]
 80015c2:	401a      	ands	r2, r3
 80015c4:	4311      	orrs	r1, r2
 80015c6:	5101      	str	r1, [r0, r4]
 80015c8:	bd30      	pop	{r4, r5, pc}
 80015ca:	200f      	movs	r0, #15
 80015cc:	4003      	ands	r3, r0
 80015ce:	3b08      	subs	r3, #8
 80015d0:	4805      	ldr	r0, [pc, #20]	; (80015e8 <HAL_NVIC_SetPriority+0x50>)
 80015d2:	089b      	lsrs	r3, r3, #2
 80015d4:	009b      	lsls	r3, r3, #2
 80015d6:	181b      	adds	r3, r3, r0
 80015d8:	69d8      	ldr	r0, [r3, #28]
 80015da:	4002      	ands	r2, r0
 80015dc:	4311      	orrs	r1, r2
 80015de:	61d9      	str	r1, [r3, #28]
 80015e0:	e7f2      	b.n	80015c8 <HAL_NVIC_SetPriority+0x30>
 80015e2:	46c0      	nop			; (mov r8, r8)
 80015e4:	e000e100 	.word	0xe000e100
 80015e8:	e000ed00 	.word	0xe000ed00

080015ec <HAL_SYSTICK_Config>:
 80015ec:	2280      	movs	r2, #128	; 0x80
 80015ee:	1e43      	subs	r3, r0, #1
 80015f0:	0452      	lsls	r2, r2, #17
 80015f2:	2001      	movs	r0, #1
 80015f4:	4293      	cmp	r3, r2
 80015f6:	d20d      	bcs.n	8001614 <HAL_SYSTICK_Config+0x28>
 80015f8:	21c0      	movs	r1, #192	; 0xc0
 80015fa:	4a07      	ldr	r2, [pc, #28]	; (8001618 <HAL_SYSTICK_Config+0x2c>)
 80015fc:	4807      	ldr	r0, [pc, #28]	; (800161c <HAL_SYSTICK_Config+0x30>)
 80015fe:	6053      	str	r3, [r2, #4]
 8001600:	6a03      	ldr	r3, [r0, #32]
 8001602:	0609      	lsls	r1, r1, #24
 8001604:	021b      	lsls	r3, r3, #8
 8001606:	0a1b      	lsrs	r3, r3, #8
 8001608:	430b      	orrs	r3, r1
 800160a:	6203      	str	r3, [r0, #32]
 800160c:	2000      	movs	r0, #0
 800160e:	2307      	movs	r3, #7
 8001610:	6090      	str	r0, [r2, #8]
 8001612:	6013      	str	r3, [r2, #0]
 8001614:	4770      	bx	lr
 8001616:	46c0      	nop			; (mov r8, r8)
 8001618:	e000e010 	.word	0xe000e010
 800161c:	e000ed00 	.word	0xe000ed00

08001620 <HAL_SYSTICK_IRQHandler>:
 8001620:	b510      	push	{r4, lr}
 8001622:	f7ff fce3 	bl	8000fec <HAL_SYSTICK_Callback>
 8001626:	bd10      	pop	{r4, pc}

08001628 <HAL_GPIO_Init>:
 8001628:	4a58      	ldr	r2, [pc, #352]	; (800178c <HAL_GPIO_Init+0x164>)
 800162a:	b5f0      	push	{r4, r5, r6, r7, lr}
 800162c:	1882      	adds	r2, r0, r2
 800162e:	1e54      	subs	r4, r2, #1
 8001630:	41a2      	sbcs	r2, r4
 8001632:	2300      	movs	r3, #0
 8001634:	b087      	sub	sp, #28
 8001636:	3205      	adds	r2, #5
 8001638:	9103      	str	r1, [sp, #12]
 800163a:	9205      	str	r2, [sp, #20]
 800163c:	9a03      	ldr	r2, [sp, #12]
 800163e:	6812      	ldr	r2, [r2, #0]
 8001640:	0014      	movs	r4, r2
 8001642:	40dc      	lsrs	r4, r3
 8001644:	d101      	bne.n	800164a <HAL_GPIO_Init+0x22>
 8001646:	b007      	add	sp, #28
 8001648:	bdf0      	pop	{r4, r5, r6, r7, pc}
 800164a:	2101      	movs	r1, #1
 800164c:	000d      	movs	r5, r1
 800164e:	0014      	movs	r4, r2
 8001650:	409d      	lsls	r5, r3
 8001652:	402c      	ands	r4, r5
 8001654:	468c      	mov	ip, r1
 8001656:	9402      	str	r4, [sp, #8]
 8001658:	422a      	tst	r2, r5
 800165a:	d100      	bne.n	800165e <HAL_GPIO_Init+0x36>
 800165c:	e094      	b.n	8001788 <HAL_GPIO_Init+0x160>
 800165e:	2403      	movs	r4, #3
 8001660:	9a03      	ldr	r2, [sp, #12]
 8001662:	005e      	lsls	r6, r3, #1
 8001664:	6852      	ldr	r2, [r2, #4]
 8001666:	9201      	str	r2, [sp, #4]
 8001668:	4022      	ands	r2, r4
 800166a:	40b4      	lsls	r4, r6
 800166c:	43e1      	mvns	r1, r4
 800166e:	1e54      	subs	r4, r2, #1
 8001670:	9104      	str	r1, [sp, #16]
 8001672:	4564      	cmp	r4, ip
 8001674:	d82a      	bhi.n	80016cc <HAL_GPIO_Init+0xa4>
 8001676:	6887      	ldr	r7, [r0, #8]
 8001678:	400f      	ands	r7, r1
 800167a:	9903      	ldr	r1, [sp, #12]
 800167c:	68cc      	ldr	r4, [r1, #12]
 800167e:	9901      	ldr	r1, [sp, #4]
 8001680:	40b4      	lsls	r4, r6
 8001682:	433c      	orrs	r4, r7
 8001684:	6084      	str	r4, [r0, #8]
 8001686:	6844      	ldr	r4, [r0, #4]
 8001688:	43ac      	bics	r4, r5
 800168a:	0025      	movs	r5, r4
 800168c:	090c      	lsrs	r4, r1, #4
 800168e:	4661      	mov	r1, ip
 8001690:	400c      	ands	r4, r1
 8001692:	409c      	lsls	r4, r3
 8001694:	432c      	orrs	r4, r5
 8001696:	6044      	str	r4, [r0, #4]
 8001698:	68c5      	ldr	r5, [r0, #12]
 800169a:	9904      	ldr	r1, [sp, #16]
 800169c:	400d      	ands	r5, r1
 800169e:	9903      	ldr	r1, [sp, #12]
 80016a0:	688c      	ldr	r4, [r1, #8]
 80016a2:	40b4      	lsls	r4, r6
 80016a4:	432c      	orrs	r4, r5
 80016a6:	60c4      	str	r4, [r0, #12]
 80016a8:	2a02      	cmp	r2, #2
 80016aa:	d111      	bne.n	80016d0 <HAL_GPIO_Init+0xa8>
 80016ac:	2507      	movs	r5, #7
 80016ae:	210f      	movs	r1, #15
 80016b0:	401d      	ands	r5, r3
 80016b2:	00ad      	lsls	r5, r5, #2
 80016b4:	40a9      	lsls	r1, r5
 80016b6:	08dc      	lsrs	r4, r3, #3
 80016b8:	00a4      	lsls	r4, r4, #2
 80016ba:	1904      	adds	r4, r0, r4
 80016bc:	6a27      	ldr	r7, [r4, #32]
 80016be:	438f      	bics	r7, r1
 80016c0:	9903      	ldr	r1, [sp, #12]
 80016c2:	6909      	ldr	r1, [r1, #16]
 80016c4:	40a9      	lsls	r1, r5
 80016c6:	430f      	orrs	r7, r1
 80016c8:	6227      	str	r7, [r4, #32]
 80016ca:	e001      	b.n	80016d0 <HAL_GPIO_Init+0xa8>
 80016cc:	2a03      	cmp	r2, #3
 80016ce:	d1e3      	bne.n	8001698 <HAL_GPIO_Init+0x70>
 80016d0:	40b2      	lsls	r2, r6
 80016d2:	6804      	ldr	r4, [r0, #0]
 80016d4:	9904      	ldr	r1, [sp, #16]
 80016d6:	4021      	ands	r1, r4
 80016d8:	430a      	orrs	r2, r1
 80016da:	6002      	str	r2, [r0, #0]
 80016dc:	22c0      	movs	r2, #192	; 0xc0
 80016de:	9901      	ldr	r1, [sp, #4]
 80016e0:	0292      	lsls	r2, r2, #10
 80016e2:	4211      	tst	r1, r2
 80016e4:	d050      	beq.n	8001788 <HAL_GPIO_Init+0x160>
 80016e6:	2701      	movs	r7, #1
 80016e8:	4c29      	ldr	r4, [pc, #164]	; (8001790 <HAL_GPIO_Init+0x168>)
 80016ea:	2603      	movs	r6, #3
 80016ec:	6b62      	ldr	r2, [r4, #52]	; 0x34
 80016ee:	001d      	movs	r5, r3
 80016f0:	433a      	orrs	r2, r7
 80016f2:	6362      	str	r2, [r4, #52]	; 0x34
 80016f4:	4a27      	ldr	r2, [pc, #156]	; (8001794 <HAL_GPIO_Init+0x16c>)
 80016f6:	089c      	lsrs	r4, r3, #2
 80016f8:	00a4      	lsls	r4, r4, #2
 80016fa:	18a4      	adds	r4, r4, r2
 80016fc:	68a2      	ldr	r2, [r4, #8]
 80016fe:	4035      	ands	r5, r6
 8001700:	4694      	mov	ip, r2
 8001702:	220f      	movs	r2, #15
 8001704:	00ad      	lsls	r5, r5, #2
 8001706:	40aa      	lsls	r2, r5
 8001708:	4661      	mov	r1, ip
 800170a:	4391      	bics	r1, r2
 800170c:	22a0      	movs	r2, #160	; 0xa0
 800170e:	05d2      	lsls	r2, r2, #23
 8001710:	4694      	mov	ip, r2
 8001712:	2200      	movs	r2, #0
 8001714:	4560      	cmp	r0, ip
 8001716:	d00d      	beq.n	8001734 <HAL_GPIO_Init+0x10c>
 8001718:	4a1f      	ldr	r2, [pc, #124]	; (8001798 <HAL_GPIO_Init+0x170>)
 800171a:	4694      	mov	ip, r2
 800171c:	003a      	movs	r2, r7
 800171e:	4560      	cmp	r0, ip
 8001720:	d008      	beq.n	8001734 <HAL_GPIO_Init+0x10c>
 8001722:	4f1e      	ldr	r7, [pc, #120]	; (800179c <HAL_GPIO_Init+0x174>)
 8001724:	1892      	adds	r2, r2, r2
 8001726:	42b8      	cmp	r0, r7
 8001728:	d004      	beq.n	8001734 <HAL_GPIO_Init+0x10c>
 800172a:	4f1d      	ldr	r7, [pc, #116]	; (80017a0 <HAL_GPIO_Init+0x178>)
 800172c:	0032      	movs	r2, r6
 800172e:	42b8      	cmp	r0, r7
 8001730:	d000      	beq.n	8001734 <HAL_GPIO_Init+0x10c>
 8001732:	9a05      	ldr	r2, [sp, #20]
 8001734:	40aa      	lsls	r2, r5
 8001736:	430a      	orrs	r2, r1
 8001738:	9902      	ldr	r1, [sp, #8]
 800173a:	60a2      	str	r2, [r4, #8]
 800173c:	000d      	movs	r5, r1
 800173e:	4a19      	ldr	r2, [pc, #100]	; (80017a4 <HAL_GPIO_Init+0x17c>)
 8001740:	43cc      	mvns	r4, r1
 8001742:	6896      	ldr	r6, [r2, #8]
 8001744:	9901      	ldr	r1, [sp, #4]
 8001746:	4335      	orrs	r5, r6
 8001748:	02c9      	lsls	r1, r1, #11
 800174a:	d401      	bmi.n	8001750 <HAL_GPIO_Init+0x128>
 800174c:	0035      	movs	r5, r6
 800174e:	4025      	ands	r5, r4
 8001750:	6095      	str	r5, [r2, #8]
 8001752:	68d6      	ldr	r6, [r2, #12]
 8001754:	9d02      	ldr	r5, [sp, #8]
 8001756:	9901      	ldr	r1, [sp, #4]
 8001758:	4335      	orrs	r5, r6
 800175a:	0289      	lsls	r1, r1, #10
 800175c:	d401      	bmi.n	8001762 <HAL_GPIO_Init+0x13a>
 800175e:	0035      	movs	r5, r6
 8001760:	4025      	ands	r5, r4
 8001762:	60d5      	str	r5, [r2, #12]
 8001764:	6856      	ldr	r6, [r2, #4]
 8001766:	9d02      	ldr	r5, [sp, #8]
 8001768:	9901      	ldr	r1, [sp, #4]
 800176a:	4335      	orrs	r5, r6
 800176c:	0389      	lsls	r1, r1, #14
 800176e:	d401      	bmi.n	8001774 <HAL_GPIO_Init+0x14c>
 8001770:	0035      	movs	r5, r6
 8001772:	4025      	ands	r5, r4
 8001774:	6055      	str	r5, [r2, #4]
 8001776:	6815      	ldr	r5, [r2, #0]
 8001778:	9e02      	ldr	r6, [sp, #8]
 800177a:	9901      	ldr	r1, [sp, #4]
 800177c:	432e      	orrs	r6, r5
 800177e:	03c9      	lsls	r1, r1, #15
 8001780:	d401      	bmi.n	8001786 <HAL_GPIO_Init+0x15e>
 8001782:	4025      	ands	r5, r4
 8001784:	002e      	movs	r6, r5
 8001786:	6016      	str	r6, [r2, #0]
 8001788:	3301      	adds	r3, #1
 800178a:	e757      	b.n	800163c <HAL_GPIO_Init+0x14>
 800178c:	afffe400 	.word	0xafffe400
 8001790:	40021000 	.word	0x40021000
 8001794:	40010000 	.word	0x40010000
 8001798:	50000400 	.word	0x50000400
 800179c:	50000800 	.word	0x50000800
 80017a0:	50000c00 	.word	0x50000c00
 80017a4:	40010400 	.word	0x40010400

080017a8 <HAL_GPIO_ReadPin>:
 80017a8:	6900      	ldr	r0, [r0, #16]
 80017aa:	4008      	ands	r0, r1
 80017ac:	1e43      	subs	r3, r0, #1
 80017ae:	4198      	sbcs	r0, r3
 80017b0:	b2c0      	uxtb	r0, r0
 80017b2:	4770      	bx	lr

080017b4 <HAL_GPIO_WritePin>:
 80017b4:	2a00      	cmp	r2, #0
 80017b6:	d001      	beq.n	80017bc <HAL_GPIO_WritePin+0x8>
 80017b8:	6181      	str	r1, [r0, #24]
 80017ba:	4770      	bx	lr
 80017bc:	6281      	str	r1, [r0, #40]	; 0x28
 80017be:	e7fc      	b.n	80017ba <HAL_GPIO_WritePin+0x6>

080017c0 <I2C_Flush_TXDR>:
 80017c0:	6803      	ldr	r3, [r0, #0]
 80017c2:	699a      	ldr	r2, [r3, #24]
 80017c4:	0792      	lsls	r2, r2, #30
 80017c6:	d501      	bpl.n	80017cc <I2C_Flush_TXDR+0xc>
 80017c8:	2200      	movs	r2, #0
 80017ca:	629a      	str	r2, [r3, #40]	; 0x28
 80017cc:	2201      	movs	r2, #1
 80017ce:	6999      	ldr	r1, [r3, #24]
 80017d0:	4211      	tst	r1, r2
 80017d2:	d102      	bne.n	80017da <I2C_Flush_TXDR+0x1a>
 80017d4:	6999      	ldr	r1, [r3, #24]
 80017d6:	430a      	orrs	r2, r1
 80017d8:	619a      	str	r2, [r3, #24]
 80017da:	4770      	bx	lr

080017dc <I2C_TransferConfig>:
 80017dc:	b530      	push	{r4, r5, lr}
 80017de:	9c03      	ldr	r4, [sp, #12]
 80017e0:	6800      	ldr	r0, [r0, #0]
 80017e2:	4323      	orrs	r3, r4
 80017e4:	0412      	lsls	r2, r2, #16
 80017e6:	0589      	lsls	r1, r1, #22
 80017e8:	431a      	orrs	r2, r3
 80017ea:	0d89      	lsrs	r1, r1, #22
 80017ec:	4b05      	ldr	r3, [pc, #20]	; (8001804 <I2C_TransferConfig+0x28>)
 80017ee:	6845      	ldr	r5, [r0, #4]
 80017f0:	430a      	orrs	r2, r1
 80017f2:	0d64      	lsrs	r4, r4, #21
 80017f4:	431c      	orrs	r4, r3
 80017f6:	0052      	lsls	r2, r2, #1
 80017f8:	43a5      	bics	r5, r4
 80017fa:	0852      	lsrs	r2, r2, #1
 80017fc:	432a      	orrs	r2, r5
 80017fe:	6042      	str	r2, [r0, #4]
 8001800:	bd30      	pop	{r4, r5, pc}
 8001802:	46c0      	nop			; (mov r8, r8)
 8001804:	03ff63ff 	.word	0x03ff63ff

08001808 <I2C_IsErrorOccurred>:
 8001808:	b5f7      	push	{r0, r1, r2, r4, r5, r6, r7, lr}
 800180a:	0015      	movs	r5, r2
 800180c:	6802      	ldr	r2, [r0, #0]
 800180e:	000e      	movs	r6, r1
 8001810:	6991      	ldr	r1, [r2, #24]
 8001812:	2310      	movs	r3, #16
 8001814:	000f      	movs	r7, r1
 8001816:	0004      	movs	r4, r0
 8001818:	401f      	ands	r7, r3
 800181a:	2000      	movs	r0, #0
 800181c:	4219      	tst	r1, r3
 800181e:	d00e      	beq.n	800183e <I2C_IsErrorOccurred+0x36>
 8001820:	2720      	movs	r7, #32
 8001822:	61d3      	str	r3, [r2, #28]
 8001824:	9000      	str	r0, [sp, #0]
 8001826:	9001      	str	r0, [sp, #4]
 8001828:	6823      	ldr	r3, [r4, #0]
 800182a:	699a      	ldr	r2, [r3, #24]
 800182c:	423a      	tst	r2, r7
 800182e:	d164      	bne.n	80018fa <I2C_IsErrorOccurred+0xf2>
 8001830:	9a01      	ldr	r2, [sp, #4]
 8001832:	2a00      	cmp	r2, #0
 8001834:	d032      	beq.n	800189c <I2C_IsErrorOccurred+0x94>
 8001836:	2704      	movs	r7, #4
 8001838:	2001      	movs	r0, #1
 800183a:	9b00      	ldr	r3, [sp, #0]
 800183c:	431f      	orrs	r7, r3
 800183e:	2180      	movs	r1, #128	; 0x80
 8001840:	6823      	ldr	r3, [r4, #0]
 8001842:	0049      	lsls	r1, r1, #1
 8001844:	699a      	ldr	r2, [r3, #24]
 8001846:	420a      	tst	r2, r1
 8001848:	d002      	beq.n	8001850 <I2C_IsErrorOccurred+0x48>
 800184a:	2001      	movs	r0, #1
 800184c:	61d9      	str	r1, [r3, #28]
 800184e:	4307      	orrs	r7, r0
 8001850:	2180      	movs	r1, #128	; 0x80
 8001852:	00c9      	lsls	r1, r1, #3
 8001854:	420a      	tst	r2, r1
 8001856:	d003      	beq.n	8001860 <I2C_IsErrorOccurred+0x58>
 8001858:	2008      	movs	r0, #8
 800185a:	61d9      	str	r1, [r3, #28]
 800185c:	4307      	orrs	r7, r0
 800185e:	3807      	subs	r0, #7
 8001860:	2180      	movs	r1, #128	; 0x80
 8001862:	0089      	lsls	r1, r1, #2
 8001864:	420a      	tst	r2, r1
 8001866:	d04d      	beq.n	8001904 <I2C_IsErrorOccurred+0xfc>
 8001868:	2202      	movs	r2, #2
 800186a:	61d9      	str	r1, [r3, #28]
 800186c:	4317      	orrs	r7, r2
 800186e:	0020      	movs	r0, r4
 8001870:	f7ff ffa6 	bl	80017c0 <I2C_Flush_TXDR>
 8001874:	6822      	ldr	r2, [r4, #0]
 8001876:	4925      	ldr	r1, [pc, #148]	; (800190c <I2C_IsErrorOccurred+0x104>)
 8001878:	6853      	ldr	r3, [r2, #4]
 800187a:	400b      	ands	r3, r1
 800187c:	6053      	str	r3, [r2, #4]
 800187e:	0023      	movs	r3, r4
 8001880:	2220      	movs	r2, #32
 8001882:	6c60      	ldr	r0, [r4, #68]	; 0x44
 8001884:	3341      	adds	r3, #65	; 0x41
 8001886:	4307      	orrs	r7, r0
 8001888:	6467      	str	r7, [r4, #68]	; 0x44
 800188a:	701a      	strb	r2, [r3, #0]
 800188c:	0022      	movs	r2, r4
 800188e:	2300      	movs	r3, #0
 8001890:	3242      	adds	r2, #66	; 0x42
 8001892:	3440      	adds	r4, #64	; 0x40
 8001894:	7013      	strb	r3, [r2, #0]
 8001896:	2001      	movs	r0, #1
 8001898:	7023      	strb	r3, [r4, #0]
 800189a:	e035      	b.n	8001908 <I2C_IsErrorOccurred+0x100>
 800189c:	1c72      	adds	r2, r6, #1
 800189e:	d0c4      	beq.n	800182a <I2C_IsErrorOccurred+0x22>
 80018a0:	f7ff fe62 	bl	8001568 <HAL_GetTick>
 80018a4:	1b40      	subs	r0, r0, r5
 80018a6:	42b0      	cmp	r0, r6
 80018a8:	d801      	bhi.n	80018ae <I2C_IsErrorOccurred+0xa6>
 80018aa:	2e00      	cmp	r6, #0
 80018ac:	d1bc      	bne.n	8001828 <I2C_IsErrorOccurred+0x20>
 80018ae:	0022      	movs	r2, r4
 80018b0:	6823      	ldr	r3, [r4, #0]
 80018b2:	3242      	adds	r2, #66	; 0x42
 80018b4:	6858      	ldr	r0, [r3, #4]
 80018b6:	7811      	ldrb	r1, [r2, #0]
 80018b8:	b2ca      	uxtb	r2, r1
 80018ba:	2180      	movs	r1, #128	; 0x80
 80018bc:	4694      	mov	ip, r2
 80018be:	699a      	ldr	r2, [r3, #24]
 80018c0:	0209      	lsls	r1, r1, #8
 80018c2:	420a      	tst	r2, r1
 80018c4:	d00c      	beq.n	80018e0 <I2C_IsErrorOccurred+0xd8>
 80018c6:	2280      	movs	r2, #128	; 0x80
 80018c8:	01d2      	lsls	r2, r2, #7
 80018ca:	4210      	tst	r0, r2
 80018cc:	d108      	bne.n	80018e0 <I2C_IsErrorOccurred+0xd8>
 80018ce:	4661      	mov	r1, ip
 80018d0:	2920      	cmp	r1, #32
 80018d2:	d005      	beq.n	80018e0 <I2C_IsErrorOccurred+0xd8>
 80018d4:	6859      	ldr	r1, [r3, #4]
 80018d6:	430a      	orrs	r2, r1
 80018d8:	605a      	str	r2, [r3, #4]
 80018da:	f7ff fe45 	bl	8001568 <HAL_GetTick>
 80018de:	0005      	movs	r5, r0
 80018e0:	6823      	ldr	r3, [r4, #0]
 80018e2:	699b      	ldr	r3, [r3, #24]
 80018e4:	423b      	tst	r3, r7
 80018e6:	d19f      	bne.n	8001828 <I2C_IsErrorOccurred+0x20>
 80018e8:	f7ff fe3e 	bl	8001568 <HAL_GetTick>
 80018ec:	1b40      	subs	r0, r0, r5
 80018ee:	2819      	cmp	r0, #25
 80018f0:	d9f6      	bls.n	80018e0 <I2C_IsErrorOccurred+0xd8>
 80018f2:	2301      	movs	r3, #1
 80018f4:	9700      	str	r7, [sp, #0]
 80018f6:	9301      	str	r3, [sp, #4]
 80018f8:	e796      	b.n	8001828 <I2C_IsErrorOccurred+0x20>
 80018fa:	9a01      	ldr	r2, [sp, #4]
 80018fc:	2a00      	cmp	r2, #0
 80018fe:	d19a      	bne.n	8001836 <I2C_IsErrorOccurred+0x2e>
 8001900:	61df      	str	r7, [r3, #28]
 8001902:	e798      	b.n	8001836 <I2C_IsErrorOccurred+0x2e>
 8001904:	2800      	cmp	r0, #0
 8001906:	d1b2      	bne.n	800186e <I2C_IsErrorOccurred+0x66>
 8001908:	bdfe      	pop	{r1, r2, r3, r4, r5, r6, r7, pc}
 800190a:	46c0      	nop			; (mov r8, r8)
 800190c:	fe00e800 	.word	0xfe00e800

08001910 <I2C_WaitOnTXISFlagUntilTimeout>:
 8001910:	b5f8      	push	{r3, r4, r5, r6, r7, lr}
 8001912:	0004      	movs	r4, r0
 8001914:	000d      	movs	r5, r1
 8001916:	0016      	movs	r6, r2
 8001918:	2702      	movs	r7, #2
 800191a:	6823      	ldr	r3, [r4, #0]
 800191c:	699b      	ldr	r3, [r3, #24]
 800191e:	423b      	tst	r3, r7
 8001920:	d001      	beq.n	8001926 <I2C_WaitOnTXISFlagUntilTimeout+0x16>
 8001922:	2000      	movs	r0, #0
 8001924:	bdf8      	pop	{r3, r4, r5, r6, r7, pc}
 8001926:	0032      	movs	r2, r6
 8001928:	0029      	movs	r1, r5
 800192a:	0020      	movs	r0, r4
 800192c:	f7ff ff6c 	bl	8001808 <I2C_IsErrorOccurred>
 8001930:	2800      	cmp	r0, #0
 8001932:	d118      	bne.n	8001966 <I2C_WaitOnTXISFlagUntilTimeout+0x56>
 8001934:	1c6b      	adds	r3, r5, #1
 8001936:	d0f0      	beq.n	800191a <I2C_WaitOnTXISFlagUntilTimeout+0xa>
 8001938:	f7ff fe16 	bl	8001568 <HAL_GetTick>
 800193c:	1b80      	subs	r0, r0, r6
 800193e:	42a8      	cmp	r0, r5
 8001940:	d801      	bhi.n	8001946 <I2C_WaitOnTXISFlagUntilTimeout+0x36>
 8001942:	2d00      	cmp	r5, #0
 8001944:	d1e9      	bne.n	800191a <I2C_WaitOnTXISFlagUntilTimeout+0xa>
 8001946:	6823      	ldr	r3, [r4, #0]
 8001948:	699b      	ldr	r3, [r3, #24]
 800194a:	001a      	movs	r2, r3
 800194c:	403a      	ands	r2, r7
 800194e:	423b      	tst	r3, r7
 8001950:	d1e3      	bne.n	800191a <I2C_WaitOnTXISFlagUntilTimeout+0xa>
 8001952:	2120      	movs	r1, #32
 8001954:	6c63      	ldr	r3, [r4, #68]	; 0x44
 8001956:	430b      	orrs	r3, r1
 8001958:	6463      	str	r3, [r4, #68]	; 0x44
 800195a:	0023      	movs	r3, r4
 800195c:	3440      	adds	r4, #64	; 0x40
 800195e:	3341      	adds	r3, #65	; 0x41
 8001960:	7019      	strb	r1, [r3, #0]
 8001962:	705a      	strb	r2, [r3, #1]
 8001964:	7022      	strb	r2, [r4, #0]
 8001966:	2001      	movs	r0, #1
 8001968:	e7dc      	b.n	8001924 <I2C_WaitOnTXISFlagUntilTimeout+0x14>

0800196a <I2C_WaitOnFlagUntilTimeout>:
 800196a:	b5f8      	push	{r3, r4, r5, r6, r7, lr}
 800196c:	0004      	movs	r4, r0
 800196e:	000d      	movs	r5, r1
 8001970:	0017      	movs	r7, r2
 8001972:	001e      	movs	r6, r3
 8001974:	6822      	ldr	r2, [r4, #0]
 8001976:	6993      	ldr	r3, [r2, #24]
 8001978:	402b      	ands	r3, r5
 800197a:	1b5b      	subs	r3, r3, r5
 800197c:	4259      	negs	r1, r3
 800197e:	414b      	adcs	r3, r1
 8001980:	42bb      	cmp	r3, r7
 8001982:	d001      	beq.n	8001988 <I2C_WaitOnFlagUntilTimeout+0x1e>
 8001984:	2000      	movs	r0, #0
 8001986:	e01f      	b.n	80019c8 <I2C_WaitOnFlagUntilTimeout+0x5e>
 8001988:	1c73      	adds	r3, r6, #1
 800198a:	d0f4      	beq.n	8001976 <I2C_WaitOnFlagUntilTimeout+0xc>
 800198c:	f7ff fdec 	bl	8001568 <HAL_GetTick>
 8001990:	9b06      	ldr	r3, [sp, #24]
 8001992:	1ac0      	subs	r0, r0, r3
 8001994:	42b0      	cmp	r0, r6
 8001996:	d801      	bhi.n	800199c <I2C_WaitOnFlagUntilTimeout+0x32>
 8001998:	2e00      	cmp	r6, #0
 800199a:	d1eb      	bne.n	8001974 <I2C_WaitOnFlagUntilTimeout+0xa>
 800199c:	6823      	ldr	r3, [r4, #0]
 800199e:	699b      	ldr	r3, [r3, #24]
 80019a0:	402b      	ands	r3, r5
 80019a2:	1b5b      	subs	r3, r3, r5
 80019a4:	425a      	negs	r2, r3
 80019a6:	4153      	adcs	r3, r2
 80019a8:	42bb      	cmp	r3, r7
 80019aa:	d1e3      	bne.n	8001974 <I2C_WaitOnFlagUntilTimeout+0xa>
 80019ac:	2220      	movs	r2, #32
 80019ae:	6c63      	ldr	r3, [r4, #68]	; 0x44
 80019b0:	2001      	movs	r0, #1
 80019b2:	4313      	orrs	r3, r2
 80019b4:	6463      	str	r3, [r4, #68]	; 0x44
 80019b6:	0023      	movs	r3, r4
 80019b8:	3341      	adds	r3, #65	; 0x41
 80019ba:	701a      	strb	r2, [r3, #0]
 80019bc:	0022      	movs	r2, r4
 80019be:	2300      	movs	r3, #0
 80019c0:	3242      	adds	r2, #66	; 0x42
 80019c2:	3440      	adds	r4, #64	; 0x40
 80019c4:	7013      	strb	r3, [r2, #0]
 80019c6:	7023      	strb	r3, [r4, #0]
 80019c8:	bdf8      	pop	{r3, r4, r5, r6, r7, pc}

080019ca <I2C_WaitOnSTOPFlagUntilTimeout>:
 80019ca:	b5f8      	push	{r3, r4, r5, r6, r7, lr}
 80019cc:	0004      	movs	r4, r0
 80019ce:	000e      	movs	r6, r1
 80019d0:	0017      	movs	r7, r2
 80019d2:	2520      	movs	r5, #32
 80019d4:	6823      	ldr	r3, [r4, #0]
 80019d6:	699b      	ldr	r3, [r3, #24]
 80019d8:	422b      	tst	r3, r5
 80019da:	d001      	beq.n	80019e0 <I2C_WaitOnSTOPFlagUntilTimeout+0x16>
 80019dc:	2000      	movs	r0, #0
 80019de:	bdf8      	pop	{r3, r4, r5, r6, r7, pc}
 80019e0:	003a      	movs	r2, r7
 80019e2:	0031      	movs	r1, r6
 80019e4:	0020      	movs	r0, r4
 80019e6:	f7ff ff0f 	bl	8001808 <I2C_IsErrorOccurred>
 80019ea:	2800      	cmp	r0, #0
 80019ec:	d115      	bne.n	8001a1a <I2C_WaitOnSTOPFlagUntilTimeout+0x50>
 80019ee:	f7ff fdbb 	bl	8001568 <HAL_GetTick>
 80019f2:	1bc0      	subs	r0, r0, r7
 80019f4:	42b0      	cmp	r0, r6
 80019f6:	d801      	bhi.n	80019fc <I2C_WaitOnSTOPFlagUntilTimeout+0x32>
 80019f8:	2e00      	cmp	r6, #0
 80019fa:	d1eb      	bne.n	80019d4 <I2C_WaitOnSTOPFlagUntilTimeout+0xa>
 80019fc:	6823      	ldr	r3, [r4, #0]
 80019fe:	699b      	ldr	r3, [r3, #24]
 8001a00:	001a      	movs	r2, r3
 8001a02:	402a      	ands	r2, r5
 8001a04:	422b      	tst	r3, r5
 8001a06:	d1e5      	bne.n	80019d4 <I2C_WaitOnSTOPFlagUntilTimeout+0xa>
 8001a08:	6c63      	ldr	r3, [r4, #68]	; 0x44
 8001a0a:	432b      	orrs	r3, r5
 8001a0c:	6463      	str	r3, [r4, #68]	; 0x44
 8001a0e:	0023      	movs	r3, r4
 8001a10:	3440      	adds	r4, #64	; 0x40
 8001a12:	3341      	adds	r3, #65	; 0x41
 8001a14:	701d      	strb	r5, [r3, #0]
 8001a16:	705a      	strb	r2, [r3, #1]
 8001a18:	7022      	strb	r2, [r4, #0]
 8001a1a:	2001      	movs	r0, #1
 8001a1c:	e7df      	b.n	80019de <I2C_WaitOnSTOPFlagUntilTimeout+0x14>
	...

08001a20 <HAL_I2C_Init>:
 8001a20:	b570      	push	{r4, r5, r6, lr}
 8001a22:	0004      	movs	r4, r0
 8001a24:	2001      	movs	r0, #1
 8001a26:	2c00      	cmp	r4, #0
 8001a28:	d03f      	beq.n	8001aaa <HAL_I2C_Init+0x8a>
 8001a2a:	0025      	movs	r5, r4
 8001a2c:	3541      	adds	r5, #65	; 0x41
 8001a2e:	782b      	ldrb	r3, [r5, #0]
 8001a30:	b2da      	uxtb	r2, r3
 8001a32:	2b00      	cmp	r3, #0
 8001a34:	d105      	bne.n	8001a42 <HAL_I2C_Init+0x22>
 8001a36:	0023      	movs	r3, r4
 8001a38:	3340      	adds	r3, #64	; 0x40
 8001a3a:	0020      	movs	r0, r4
 8001a3c:	701a      	strb	r2, [r3, #0]
 8001a3e:	f7ff fc69 	bl	8001314 <HAL_I2C_MspInit>
 8001a42:	2324      	movs	r3, #36	; 0x24
 8001a44:	2101      	movs	r1, #1
 8001a46:	702b      	strb	r3, [r5, #0]
 8001a48:	6823      	ldr	r3, [r4, #0]
 8001a4a:	481d      	ldr	r0, [pc, #116]	; (8001ac0 <HAL_I2C_Init+0xa0>)
 8001a4c:	681a      	ldr	r2, [r3, #0]
 8001a4e:	68a6      	ldr	r6, [r4, #8]
 8001a50:	438a      	bics	r2, r1
 8001a52:	601a      	str	r2, [r3, #0]
 8001a54:	6861      	ldr	r1, [r4, #4]
 8001a56:	4a1b      	ldr	r2, [pc, #108]	; (8001ac4 <HAL_I2C_Init+0xa4>)
 8001a58:	400a      	ands	r2, r1
 8001a5a:	611a      	str	r2, [r3, #16]
 8001a5c:	689a      	ldr	r2, [r3, #8]
 8001a5e:	4002      	ands	r2, r0
 8001a60:	609a      	str	r2, [r3, #8]
 8001a62:	68e2      	ldr	r2, [r4, #12]
 8001a64:	2a01      	cmp	r2, #1
 8001a66:	d121      	bne.n	8001aac <HAL_I2C_Init+0x8c>
 8001a68:	2180      	movs	r1, #128	; 0x80
 8001a6a:	0209      	lsls	r1, r1, #8
 8001a6c:	4331      	orrs	r1, r6
 8001a6e:	6099      	str	r1, [r3, #8]
 8001a70:	685a      	ldr	r2, [r3, #4]
 8001a72:	4915      	ldr	r1, [pc, #84]	; (8001ac8 <HAL_I2C_Init+0xa8>)
 8001a74:	4311      	orrs	r1, r2
 8001a76:	6059      	str	r1, [r3, #4]
 8001a78:	68da      	ldr	r2, [r3, #12]
 8001a7a:	6961      	ldr	r1, [r4, #20]
 8001a7c:	4002      	ands	r2, r0
 8001a7e:	60da      	str	r2, [r3, #12]
 8001a80:	6922      	ldr	r2, [r4, #16]
 8001a82:	2000      	movs	r0, #0
 8001a84:	430a      	orrs	r2, r1
 8001a86:	69a1      	ldr	r1, [r4, #24]
 8001a88:	0209      	lsls	r1, r1, #8
 8001a8a:	430a      	orrs	r2, r1
 8001a8c:	60da      	str	r2, [r3, #12]
 8001a8e:	6a21      	ldr	r1, [r4, #32]
 8001a90:	69e2      	ldr	r2, [r4, #28]
 8001a92:	430a      	orrs	r2, r1
 8001a94:	601a      	str	r2, [r3, #0]
 8001a96:	2201      	movs	r2, #1
 8001a98:	6819      	ldr	r1, [r3, #0]
 8001a9a:	430a      	orrs	r2, r1
 8001a9c:	601a      	str	r2, [r3, #0]
 8001a9e:	2320      	movs	r3, #32
 8001aa0:	6460      	str	r0, [r4, #68]	; 0x44
 8001aa2:	702b      	strb	r3, [r5, #0]
 8001aa4:	6320      	str	r0, [r4, #48]	; 0x30
 8001aa6:	3442      	adds	r4, #66	; 0x42
 8001aa8:	7020      	strb	r0, [r4, #0]
 8001aaa:	bd70      	pop	{r4, r5, r6, pc}
 8001aac:	2184      	movs	r1, #132	; 0x84
 8001aae:	0209      	lsls	r1, r1, #8
 8001ab0:	4331      	orrs	r1, r6
 8001ab2:	6099      	str	r1, [r3, #8]
 8001ab4:	2a02      	cmp	r2, #2
 8001ab6:	d1db      	bne.n	8001a70 <HAL_I2C_Init+0x50>
 8001ab8:	2280      	movs	r2, #128	; 0x80
 8001aba:	0112      	lsls	r2, r2, #4
 8001abc:	605a      	str	r2, [r3, #4]
 8001abe:	e7d7      	b.n	8001a70 <HAL_I2C_Init+0x50>
 8001ac0:	ffff7fff 	.word	0xffff7fff
 8001ac4:	f0ffffff 	.word	0xf0ffffff
 8001ac8:	02008000 	.word	0x02008000

08001acc <HAL_I2C_Mem_Write>:
 8001acc:	b5f0      	push	{r4, r5, r6, r7, lr}
 8001ace:	b089      	sub	sp, #36	; 0x24
 8001ad0:	9304      	str	r3, [sp, #16]
 8001ad2:	ab0e      	add	r3, sp, #56	; 0x38
 8001ad4:	9203      	str	r2, [sp, #12]
 8001ad6:	cb04      	ldmia	r3!, {r2}
 8001ad8:	0004      	movs	r4, r0
 8001ada:	881b      	ldrh	r3, [r3, #0]
 8001adc:	9205      	str	r2, [sp, #20]
 8001ade:	9306      	str	r3, [sp, #24]
 8001ae0:	0003      	movs	r3, r0
 8001ae2:	3341      	adds	r3, #65	; 0x41
 8001ae4:	9307      	str	r3, [sp, #28]
 8001ae6:	781b      	ldrb	r3, [r3, #0]
 8001ae8:	000f      	movs	r7, r1
 8001aea:	2002      	movs	r0, #2
 8001aec:	9e10      	ldr	r6, [sp, #64]	; 0x40
 8001aee:	2b20      	cmp	r3, #32
 8001af0:	d108      	bne.n	8001b04 <HAL_I2C_Mem_Write+0x38>
 8001af2:	2a00      	cmp	r2, #0
 8001af4:	d002      	beq.n	8001afc <HAL_I2C_Mem_Write+0x30>
 8001af6:	9b06      	ldr	r3, [sp, #24]
 8001af8:	2b00      	cmp	r3, #0
 8001afa:	d105      	bne.n	8001b08 <HAL_I2C_Mem_Write+0x3c>
 8001afc:	2380      	movs	r3, #128	; 0x80
 8001afe:	009b      	lsls	r3, r3, #2
 8001b00:	6463      	str	r3, [r4, #68]	; 0x44
 8001b02:	2001      	movs	r0, #1
 8001b04:	b009      	add	sp, #36	; 0x24
 8001b06:	bdf0      	pop	{r4, r5, r6, r7, pc}
 8001b08:	0023      	movs	r3, r4
 8001b0a:	3340      	adds	r3, #64	; 0x40
 8001b0c:	781a      	ldrb	r2, [r3, #0]
 8001b0e:	2002      	movs	r0, #2
 8001b10:	2a01      	cmp	r2, #1
 8001b12:	d0f7      	beq.n	8001b04 <HAL_I2C_Mem_Write+0x38>
 8001b14:	2201      	movs	r2, #1
 8001b16:	701a      	strb	r2, [r3, #0]
 8001b18:	f7ff fd26 	bl	8001568 <HAL_GetTick>
 8001b1c:	2180      	movs	r1, #128	; 0x80
 8001b1e:	0005      	movs	r5, r0
 8001b20:	9000      	str	r0, [sp, #0]
 8001b22:	2319      	movs	r3, #25
 8001b24:	2201      	movs	r2, #1
 8001b26:	0020      	movs	r0, r4
 8001b28:	0209      	lsls	r1, r1, #8
 8001b2a:	f7ff ff1e 	bl	800196a <I2C_WaitOnFlagUntilTimeout>
 8001b2e:	2800      	cmp	r0, #0
 8001b30:	d1e7      	bne.n	8001b02 <HAL_I2C_Mem_Write+0x36>
 8001b32:	2321      	movs	r3, #33	; 0x21
 8001b34:	9a07      	ldr	r2, [sp, #28]
 8001b36:	0039      	movs	r1, r7
 8001b38:	7013      	strb	r3, [r2, #0]
 8001b3a:	0023      	movs	r3, r4
 8001b3c:	3342      	adds	r3, #66	; 0x42
 8001b3e:	9307      	str	r3, [sp, #28]
 8001b40:	2340      	movs	r3, #64	; 0x40
 8001b42:	9a07      	ldr	r2, [sp, #28]
 8001b44:	7013      	strb	r3, [r2, #0]
 8001b46:	9b05      	ldr	r3, [sp, #20]
 8001b48:	6460      	str	r0, [r4, #68]	; 0x44
 8001b4a:	6263      	str	r3, [r4, #36]	; 0x24
 8001b4c:	9b06      	ldr	r3, [sp, #24]
 8001b4e:	6360      	str	r0, [r4, #52]	; 0x34
 8001b50:	8563      	strh	r3, [r4, #42]	; 0x2a
 8001b52:	466b      	mov	r3, sp
 8001b54:	7c1a      	ldrb	r2, [r3, #16]
 8001b56:	4b4a      	ldr	r3, [pc, #296]	; (8001c80 <HAL_I2C_Mem_Write+0x1b4>)
 8001b58:	0020      	movs	r0, r4
 8001b5a:	9300      	str	r3, [sp, #0]
 8001b5c:	2380      	movs	r3, #128	; 0x80
 8001b5e:	045b      	lsls	r3, r3, #17
 8001b60:	f7ff fe3c 	bl	80017dc <I2C_TransferConfig>
 8001b64:	002a      	movs	r2, r5
 8001b66:	0031      	movs	r1, r6
 8001b68:	0020      	movs	r0, r4
 8001b6a:	f7ff fed1 	bl	8001910 <I2C_WaitOnTXISFlagUntilTimeout>
 8001b6e:	2800      	cmp	r0, #0
 8001b70:	d126      	bne.n	8001bc0 <HAL_I2C_Mem_Write+0xf4>
 8001b72:	9a04      	ldr	r2, [sp, #16]
 8001b74:	6823      	ldr	r3, [r4, #0]
 8001b76:	2a01      	cmp	r2, #1
 8001b78:	d116      	bne.n	8001ba8 <HAL_I2C_Mem_Write+0xdc>
 8001b7a:	466a      	mov	r2, sp
 8001b7c:	7b12      	ldrb	r2, [r2, #12]
 8001b7e:	2180      	movs	r1, #128	; 0x80
 8001b80:	629a      	str	r2, [r3, #40]	; 0x28
 8001b82:	0020      	movs	r0, r4
 8001b84:	0033      	movs	r3, r6
 8001b86:	2200      	movs	r2, #0
 8001b88:	9500      	str	r5, [sp, #0]
 8001b8a:	f7ff feee 	bl	800196a <I2C_WaitOnFlagUntilTimeout>
 8001b8e:	2800      	cmp	r0, #0
 8001b90:	d116      	bne.n	8001bc0 <HAL_I2C_Mem_Write+0xf4>
 8001b92:	8d63      	ldrh	r3, [r4, #42]	; 0x2a
 8001b94:	2bff      	cmp	r3, #255	; 0xff
 8001b96:	d817      	bhi.n	8001bc8 <HAL_I2C_Mem_Write+0xfc>
 8001b98:	2380      	movs	r3, #128	; 0x80
 8001b9a:	8d62      	ldrh	r2, [r4, #42]	; 0x2a
 8001b9c:	049b      	lsls	r3, r3, #18
 8001b9e:	b292      	uxth	r2, r2
 8001ba0:	8522      	strh	r2, [r4, #40]	; 0x28
 8001ba2:	b2d2      	uxtb	r2, r2
 8001ba4:	9000      	str	r0, [sp, #0]
 8001ba6:	e014      	b.n	8001bd2 <HAL_I2C_Mem_Write+0x106>
 8001ba8:	9a03      	ldr	r2, [sp, #12]
 8001baa:	0031      	movs	r1, r6
 8001bac:	0a12      	lsrs	r2, r2, #8
 8001bae:	629a      	str	r2, [r3, #40]	; 0x28
 8001bb0:	0020      	movs	r0, r4
 8001bb2:	002a      	movs	r2, r5
 8001bb4:	f7ff feac 	bl	8001910 <I2C_WaitOnTXISFlagUntilTimeout>
 8001bb8:	2800      	cmp	r0, #0
 8001bba:	d101      	bne.n	8001bc0 <HAL_I2C_Mem_Write+0xf4>
 8001bbc:	6823      	ldr	r3, [r4, #0]
 8001bbe:	e7dc      	b.n	8001b7a <HAL_I2C_Mem_Write+0xae>
 8001bc0:	2300      	movs	r3, #0
 8001bc2:	3440      	adds	r4, #64	; 0x40
 8001bc4:	7023      	strb	r3, [r4, #0]
 8001bc6:	e79c      	b.n	8001b02 <HAL_I2C_Mem_Write+0x36>
 8001bc8:	22ff      	movs	r2, #255	; 0xff
 8001bca:	2380      	movs	r3, #128	; 0x80
 8001bcc:	8522      	strh	r2, [r4, #40]	; 0x28
 8001bce:	045b      	lsls	r3, r3, #17
 8001bd0:	9000      	str	r0, [sp, #0]
 8001bd2:	0039      	movs	r1, r7
 8001bd4:	0020      	movs	r0, r4
 8001bd6:	f7ff fe01 	bl	80017dc <I2C_TransferConfig>
 8001bda:	002a      	movs	r2, r5
 8001bdc:	0031      	movs	r1, r6
 8001bde:	0020      	movs	r0, r4
 8001be0:	f7ff fe96 	bl	8001910 <I2C_WaitOnTXISFlagUntilTimeout>
 8001be4:	2800      	cmp	r0, #0
 8001be6:	d000      	beq.n	8001bea <HAL_I2C_Mem_Write+0x11e>
 8001be8:	e78b      	b.n	8001b02 <HAL_I2C_Mem_Write+0x36>
 8001bea:	6a63      	ldr	r3, [r4, #36]	; 0x24
 8001bec:	6822      	ldr	r2, [r4, #0]
 8001bee:	7819      	ldrb	r1, [r3, #0]
 8001bf0:	3301      	adds	r3, #1
 8001bf2:	6291      	str	r1, [r2, #40]	; 0x28
 8001bf4:	6263      	str	r3, [r4, #36]	; 0x24
 8001bf6:	8d63      	ldrh	r3, [r4, #42]	; 0x2a
 8001bf8:	8d22      	ldrh	r2, [r4, #40]	; 0x28
 8001bfa:	3b01      	subs	r3, #1
 8001bfc:	b29b      	uxth	r3, r3
 8001bfe:	8563      	strh	r3, [r4, #42]	; 0x2a
 8001c00:	3a01      	subs	r2, #1
 8001c02:	8d63      	ldrh	r3, [r4, #42]	; 0x2a
 8001c04:	b292      	uxth	r2, r2
 8001c06:	8522      	strh	r2, [r4, #40]	; 0x28
 8001c08:	2b00      	cmp	r3, #0
 8001c0a:	d017      	beq.n	8001c3c <HAL_I2C_Mem_Write+0x170>
 8001c0c:	2a00      	cmp	r2, #0
 8001c0e:	d115      	bne.n	8001c3c <HAL_I2C_Mem_Write+0x170>
 8001c10:	0033      	movs	r3, r6
 8001c12:	2180      	movs	r1, #128	; 0x80
 8001c14:	0020      	movs	r0, r4
 8001c16:	9500      	str	r5, [sp, #0]
 8001c18:	f7ff fea7 	bl	800196a <I2C_WaitOnFlagUntilTimeout>
 8001c1c:	2800      	cmp	r0, #0
 8001c1e:	d000      	beq.n	8001c22 <HAL_I2C_Mem_Write+0x156>
 8001c20:	e76f      	b.n	8001b02 <HAL_I2C_Mem_Write+0x36>
 8001c22:	8d63      	ldrh	r3, [r4, #42]	; 0x2a
 8001c24:	2bff      	cmp	r3, #255	; 0xff
 8001c26:	d923      	bls.n	8001c70 <HAL_I2C_Mem_Write+0x1a4>
 8001c28:	23ff      	movs	r3, #255	; 0xff
 8001c2a:	8523      	strh	r3, [r4, #40]	; 0x28
 8001c2c:	2380      	movs	r3, #128	; 0x80
 8001c2e:	22ff      	movs	r2, #255	; 0xff
 8001c30:	9000      	str	r0, [sp, #0]
 8001c32:	045b      	lsls	r3, r3, #17
 8001c34:	0039      	movs	r1, r7
 8001c36:	0020      	movs	r0, r4
 8001c38:	f7ff fdd0 	bl	80017dc <I2C_TransferConfig>
 8001c3c:	8d63      	ldrh	r3, [r4, #42]	; 0x2a
 8001c3e:	2b00      	cmp	r3, #0
 8001c40:	d1cb      	bne.n	8001bda <HAL_I2C_Mem_Write+0x10e>
 8001c42:	002a      	movs	r2, r5
 8001c44:	0031      	movs	r1, r6
 8001c46:	0020      	movs	r0, r4
 8001c48:	f7ff febf 	bl	80019ca <I2C_WaitOnSTOPFlagUntilTimeout>
 8001c4c:	2800      	cmp	r0, #0
 8001c4e:	d000      	beq.n	8001c52 <HAL_I2C_Mem_Write+0x186>
 8001c50:	e757      	b.n	8001b02 <HAL_I2C_Mem_Write+0x36>
 8001c52:	2120      	movs	r1, #32
 8001c54:	6823      	ldr	r3, [r4, #0]
 8001c56:	4d0b      	ldr	r5, [pc, #44]	; (8001c84 <HAL_I2C_Mem_Write+0x1b8>)
 8001c58:	61d9      	str	r1, [r3, #28]
 8001c5a:	685a      	ldr	r2, [r3, #4]
 8001c5c:	402a      	ands	r2, r5
 8001c5e:	605a      	str	r2, [r3, #4]
 8001c60:	0023      	movs	r3, r4
 8001c62:	3341      	adds	r3, #65	; 0x41
 8001c64:	7019      	strb	r1, [r3, #0]
 8001c66:	9b07      	ldr	r3, [sp, #28]
 8001c68:	3440      	adds	r4, #64	; 0x40
 8001c6a:	7018      	strb	r0, [r3, #0]
 8001c6c:	7020      	strb	r0, [r4, #0]
 8001c6e:	e749      	b.n	8001b04 <HAL_I2C_Mem_Write+0x38>
 8001c70:	2380      	movs	r3, #128	; 0x80
 8001c72:	8d62      	ldrh	r2, [r4, #42]	; 0x2a
 8001c74:	049b      	lsls	r3, r3, #18
 8001c76:	b292      	uxth	r2, r2
 8001c78:	8522      	strh	r2, [r4, #40]	; 0x28
 8001c7a:	b2d2      	uxtb	r2, r2
 8001c7c:	9000      	str	r0, [sp, #0]
 8001c7e:	e7d9      	b.n	8001c34 <HAL_I2C_Mem_Write+0x168>
 8001c80:	80002000 	.word	0x80002000
 8001c84:	fe00e800 	.word	0xfe00e800

08001c88 <HAL_I2C_Mem_Read>:
 8001c88:	b5f0      	push	{r4, r5, r6, r7, lr}
 8001c8a:	b089      	sub	sp, #36	; 0x24
 8001c8c:	9304      	str	r3, [sp, #16]
 8001c8e:	ab0e      	add	r3, sp, #56	; 0x38
 8001c90:	9203      	str	r2, [sp, #12]
 8001c92:	cb04      	ldmia	r3!, {r2}
 8001c94:	0004      	movs	r4, r0
 8001c96:	881b      	ldrh	r3, [r3, #0]
 8001c98:	9205      	str	r2, [sp, #20]
 8001c9a:	9306      	str	r3, [sp, #24]
 8001c9c:	0003      	movs	r3, r0
 8001c9e:	3341      	adds	r3, #65	; 0x41
 8001ca0:	9307      	str	r3, [sp, #28]
 8001ca2:	781b      	ldrb	r3, [r3, #0]
 8001ca4:	000f      	movs	r7, r1
 8001ca6:	2002      	movs	r0, #2
 8001ca8:	9e10      	ldr	r6, [sp, #64]	; 0x40
 8001caa:	2b20      	cmp	r3, #32
 8001cac:	d108      	bne.n	8001cc0 <HAL_I2C_Mem_Read+0x38>
 8001cae:	2a00      	cmp	r2, #0
 8001cb0:	d002      	beq.n	8001cb8 <HAL_I2C_Mem_Read+0x30>
 8001cb2:	9b06      	ldr	r3, [sp, #24]
 8001cb4:	2b00      	cmp	r3, #0
 8001cb6:	d105      	bne.n	8001cc4 <HAL_I2C_Mem_Read+0x3c>
 8001cb8:	2380      	movs	r3, #128	; 0x80
 8001cba:	009b      	lsls	r3, r3, #2
 8001cbc:	6463      	str	r3, [r4, #68]	; 0x44
 8001cbe:	2001      	movs	r0, #1
 8001cc0:	b009      	add	sp, #36	; 0x24
 8001cc2:	bdf0      	pop	{r4, r5, r6, r7, pc}
 8001cc4:	0023      	movs	r3, r4
 8001cc6:	3340      	adds	r3, #64	; 0x40
 8001cc8:	781a      	ldrb	r2, [r3, #0]
 8001cca:	2002      	movs	r0, #2
 8001ccc:	2a01      	cmp	r2, #1
 8001cce:	d0f7      	beq.n	8001cc0 <HAL_I2C_Mem_Read+0x38>
 8001cd0:	2201      	movs	r2, #1
 8001cd2:	701a      	strb	r2, [r3, #0]
 8001cd4:	f7ff fc48 	bl	8001568 <HAL_GetTick>
 8001cd8:	2180      	movs	r1, #128	; 0x80
 8001cda:	2319      	movs	r3, #25
 8001cdc:	9000      	str	r0, [sp, #0]
 8001cde:	0005      	movs	r5, r0
 8001ce0:	2201      	movs	r2, #1
 8001ce2:	0020      	movs	r0, r4
 8001ce4:	0209      	lsls	r1, r1, #8
 8001ce6:	f7ff fe40 	bl	800196a <I2C_WaitOnFlagUntilTimeout>
 8001cea:	1e03      	subs	r3, r0, #0
 8001cec:	d1e7      	bne.n	8001cbe <HAL_I2C_Mem_Read+0x36>
 8001cee:	2222      	movs	r2, #34	; 0x22
 8001cf0:	9907      	ldr	r1, [sp, #28]
 8001cf2:	700a      	strb	r2, [r1, #0]
 8001cf4:	0022      	movs	r2, r4
 8001cf6:	3242      	adds	r2, #66	; 0x42
 8001cf8:	9207      	str	r2, [sp, #28]
 8001cfa:	2240      	movs	r2, #64	; 0x40
 8001cfc:	9907      	ldr	r1, [sp, #28]
 8001cfe:	700a      	strb	r2, [r1, #0]
 8001d00:	9a05      	ldr	r2, [sp, #20]
 8001d02:	6460      	str	r0, [r4, #68]	; 0x44
 8001d04:	6262      	str	r2, [r4, #36]	; 0x24
 8001d06:	9a06      	ldr	r2, [sp, #24]
 8001d08:	494d      	ldr	r1, [pc, #308]	; (8001e40 <HAL_I2C_Mem_Read+0x1b8>)
 8001d0a:	8562      	strh	r2, [r4, #42]	; 0x2a
 8001d0c:	466a      	mov	r2, sp
 8001d0e:	6360      	str	r0, [r4, #52]	; 0x34
 8001d10:	7c12      	ldrb	r2, [r2, #16]
 8001d12:	0020      	movs	r0, r4
 8001d14:	9100      	str	r1, [sp, #0]
 8001d16:	0039      	movs	r1, r7
 8001d18:	f7ff fd60 	bl	80017dc <I2C_TransferConfig>
 8001d1c:	002a      	movs	r2, r5
 8001d1e:	0031      	movs	r1, r6
 8001d20:	0020      	movs	r0, r4
 8001d22:	f7ff fdf5 	bl	8001910 <I2C_WaitOnTXISFlagUntilTimeout>
 8001d26:	2800      	cmp	r0, #0
 8001d28:	d127      	bne.n	8001d7a <HAL_I2C_Mem_Read+0xf2>
 8001d2a:	9a04      	ldr	r2, [sp, #16]
 8001d2c:	6823      	ldr	r3, [r4, #0]
 8001d2e:	2a01      	cmp	r2, #1
 8001d30:	d117      	bne.n	8001d62 <HAL_I2C_Mem_Read+0xda>
 8001d32:	466a      	mov	r2, sp
 8001d34:	7b12      	ldrb	r2, [r2, #12]
 8001d36:	2140      	movs	r1, #64	; 0x40
 8001d38:	629a      	str	r2, [r3, #40]	; 0x28
 8001d3a:	0020      	movs	r0, r4
 8001d3c:	0033      	movs	r3, r6
 8001d3e:	2200      	movs	r2, #0
 8001d40:	9500      	str	r5, [sp, #0]
 8001d42:	f7ff fe12 	bl	800196a <I2C_WaitOnFlagUntilTimeout>
 8001d46:	2800      	cmp	r0, #0
 8001d48:	d117      	bne.n	8001d7a <HAL_I2C_Mem_Read+0xf2>
 8001d4a:	8d62      	ldrh	r2, [r4, #42]	; 0x2a
 8001d4c:	4b3d      	ldr	r3, [pc, #244]	; (8001e44 <HAL_I2C_Mem_Read+0x1bc>)
 8001d4e:	2aff      	cmp	r2, #255	; 0xff
 8001d50:	d817      	bhi.n	8001d82 <HAL_I2C_Mem_Read+0xfa>
 8001d52:	8d62      	ldrh	r2, [r4, #42]	; 0x2a
 8001d54:	b292      	uxth	r2, r2
 8001d56:	8522      	strh	r2, [r4, #40]	; 0x28
 8001d58:	9300      	str	r3, [sp, #0]
 8001d5a:	2380      	movs	r3, #128	; 0x80
 8001d5c:	b2d2      	uxtb	r2, r2
 8001d5e:	049b      	lsls	r3, r3, #18
 8001d60:	e014      	b.n	8001d8c <HAL_I2C_Mem_Read+0x104>
 8001d62:	9a03      	ldr	r2, [sp, #12]
 8001d64:	0031      	movs	r1, r6
 8001d66:	0a12      	lsrs	r2, r2, #8
 8001d68:	629a      	str	r2, [r3, #40]	; 0x28
 8001d6a:	0020      	movs	r0, r4
 8001d6c:	002a      	movs	r2, r5
 8001d6e:	f7ff fdcf 	bl	8001910 <I2C_WaitOnTXISFlagUntilTimeout>
 8001d72:	2800      	cmp	r0, #0
 8001d74:	d101      	bne.n	8001d7a <HAL_I2C_Mem_Read+0xf2>
 8001d76:	6823      	ldr	r3, [r4, #0]
 8001d78:	e7db      	b.n	8001d32 <HAL_I2C_Mem_Read+0xaa>
 8001d7a:	2300      	movs	r3, #0
 8001d7c:	3440      	adds	r4, #64	; 0x40
 8001d7e:	7023      	strb	r3, [r4, #0]
 8001d80:	e79d      	b.n	8001cbe <HAL_I2C_Mem_Read+0x36>
 8001d82:	22ff      	movs	r2, #255	; 0xff
 8001d84:	8522      	strh	r2, [r4, #40]	; 0x28
 8001d86:	9300      	str	r3, [sp, #0]
 8001d88:	2380      	movs	r3, #128	; 0x80
 8001d8a:	045b      	lsls	r3, r3, #17
 8001d8c:	0039      	movs	r1, r7
 8001d8e:	0020      	movs	r0, r4
 8001d90:	f7ff fd24 	bl	80017dc <I2C_TransferConfig>
 8001d94:	0033      	movs	r3, r6
 8001d96:	2200      	movs	r2, #0
 8001d98:	2104      	movs	r1, #4
 8001d9a:	0020      	movs	r0, r4
 8001d9c:	9500      	str	r5, [sp, #0]
 8001d9e:	f7ff fde4 	bl	800196a <I2C_WaitOnFlagUntilTimeout>
 8001da2:	2800      	cmp	r0, #0
 8001da4:	d000      	beq.n	8001da8 <HAL_I2C_Mem_Read+0x120>
 8001da6:	e78a      	b.n	8001cbe <HAL_I2C_Mem_Read+0x36>
 8001da8:	6823      	ldr	r3, [r4, #0]
 8001daa:	6a62      	ldr	r2, [r4, #36]	; 0x24
 8001dac:	6a5b      	ldr	r3, [r3, #36]	; 0x24
 8001dae:	7013      	strb	r3, [r2, #0]
 8001db0:	6a63      	ldr	r3, [r4, #36]	; 0x24
 8001db2:	8d22      	ldrh	r2, [r4, #40]	; 0x28
 8001db4:	3301      	adds	r3, #1
 8001db6:	6263      	str	r3, [r4, #36]	; 0x24
 8001db8:	8d63      	ldrh	r3, [r4, #42]	; 0x2a
 8001dba:	3a01      	subs	r2, #1
 8001dbc:	3b01      	subs	r3, #1
 8001dbe:	b29b      	uxth	r3, r3
 8001dc0:	8563      	strh	r3, [r4, #42]	; 0x2a
 8001dc2:	8d63      	ldrh	r3, [r4, #42]	; 0x2a
 8001dc4:	b292      	uxth	r2, r2
 8001dc6:	8522      	strh	r2, [r4, #40]	; 0x28
 8001dc8:	2b00      	cmp	r3, #0
 8001dca:	d017      	beq.n	8001dfc <HAL_I2C_Mem_Read+0x174>
 8001dcc:	2a00      	cmp	r2, #0
 8001dce:	d115      	bne.n	8001dfc <HAL_I2C_Mem_Read+0x174>
 8001dd0:	0033      	movs	r3, r6
 8001dd2:	2180      	movs	r1, #128	; 0x80
 8001dd4:	0020      	movs	r0, r4
 8001dd6:	9500      	str	r5, [sp, #0]
 8001dd8:	f7ff fdc7 	bl	800196a <I2C_WaitOnFlagUntilTimeout>
 8001ddc:	2800      	cmp	r0, #0
 8001dde:	d000      	beq.n	8001de2 <HAL_I2C_Mem_Read+0x15a>
 8001de0:	e76d      	b.n	8001cbe <HAL_I2C_Mem_Read+0x36>
 8001de2:	8d63      	ldrh	r3, [r4, #42]	; 0x2a
 8001de4:	2bff      	cmp	r3, #255	; 0xff
 8001de6:	d923      	bls.n	8001e30 <HAL_I2C_Mem_Read+0x1a8>
 8001de8:	23ff      	movs	r3, #255	; 0xff
 8001dea:	8523      	strh	r3, [r4, #40]	; 0x28
 8001dec:	2380      	movs	r3, #128	; 0x80
 8001dee:	22ff      	movs	r2, #255	; 0xff
 8001df0:	9000      	str	r0, [sp, #0]
 8001df2:	045b      	lsls	r3, r3, #17
 8001df4:	0039      	movs	r1, r7
 8001df6:	0020      	movs	r0, r4
 8001df8:	f7ff fcf0 	bl	80017dc <I2C_TransferConfig>
 8001dfc:	8d63      	ldrh	r3, [r4, #42]	; 0x2a
 8001dfe:	2b00      	cmp	r3, #0
 8001e00:	d1c8      	bne.n	8001d94 <HAL_I2C_Mem_Read+0x10c>
 8001e02:	002a      	movs	r2, r5
 8001e04:	0031      	movs	r1, r6
 8001e06:	0020      	movs	r0, r4
 8001e08:	f7ff fddf 	bl	80019ca <I2C_WaitOnSTOPFlagUntilTimeout>
 8001e0c:	2800      	cmp	r0, #0
 8001e0e:	d000      	beq.n	8001e12 <HAL_I2C_Mem_Read+0x18a>
 8001e10:	e755      	b.n	8001cbe <HAL_I2C_Mem_Read+0x36>
 8001e12:	2120      	movs	r1, #32
 8001e14:	6823      	ldr	r3, [r4, #0]
 8001e16:	4d0c      	ldr	r5, [pc, #48]	; (8001e48 <HAL_I2C_Mem_Read+0x1c0>)
 8001e18:	61d9      	str	r1, [r3, #28]
 8001e1a:	685a      	ldr	r2, [r3, #4]
 8001e1c:	402a      	ands	r2, r5
 8001e1e:	605a      	str	r2, [r3, #4]
 8001e20:	0023      	movs	r3, r4
 8001e22:	3341      	adds	r3, #65	; 0x41
 8001e24:	7019      	strb	r1, [r3, #0]
 8001e26:	9b07      	ldr	r3, [sp, #28]
 8001e28:	3440      	adds	r4, #64	; 0x40
 8001e2a:	7018      	strb	r0, [r3, #0]
 8001e2c:	7020      	strb	r0, [r4, #0]
 8001e2e:	e747      	b.n	8001cc0 <HAL_I2C_Mem_Read+0x38>
 8001e30:	2380      	movs	r3, #128	; 0x80
 8001e32:	8d62      	ldrh	r2, [r4, #42]	; 0x2a
 8001e34:	049b      	lsls	r3, r3, #18
 8001e36:	b292      	uxth	r2, r2
 8001e38:	8522      	strh	r2, [r4, #40]	; 0x28
 8001e3a:	b2d2      	uxtb	r2, r2
 8001e3c:	9000      	str	r0, [sp, #0]
 8001e3e:	e7d9      	b.n	8001df4 <HAL_I2C_Mem_Read+0x16c>
 8001e40:	80002000 	.word	0x80002000
 8001e44:	80002400 	.word	0x80002400
 8001e48:	fe00e800 	.word	0xfe00e800

08001e4c <HAL_I2CEx_ConfigAnalogFilter>:
 8001e4c:	b5f0      	push	{r4, r5, r6, r7, lr}
 8001e4e:	0004      	movs	r4, r0
 8001e50:	3441      	adds	r4, #65	; 0x41
 8001e52:	7822      	ldrb	r2, [r4, #0]
 8001e54:	0003      	movs	r3, r0
 8001e56:	000f      	movs	r7, r1
 8001e58:	2002      	movs	r0, #2
 8001e5a:	b2d6      	uxtb	r6, r2
 8001e5c:	2a20      	cmp	r2, #32
 8001e5e:	d118      	bne.n	8001e92 <HAL_I2CEx_ConfigAnalogFilter+0x46>
 8001e60:	001d      	movs	r5, r3
 8001e62:	3540      	adds	r5, #64	; 0x40
 8001e64:	782a      	ldrb	r2, [r5, #0]
 8001e66:	2a01      	cmp	r2, #1
 8001e68:	d013      	beq.n	8001e92 <HAL_I2CEx_ConfigAnalogFilter+0x46>
 8001e6a:	2224      	movs	r2, #36	; 0x24
 8001e6c:	7022      	strb	r2, [r4, #0]
 8001e6e:	681b      	ldr	r3, [r3, #0]
 8001e70:	3a23      	subs	r2, #35	; 0x23
 8001e72:	6819      	ldr	r1, [r3, #0]
 8001e74:	4807      	ldr	r0, [pc, #28]	; (8001e94 <HAL_I2CEx_ConfigAnalogFilter+0x48>)
 8001e76:	4391      	bics	r1, r2
 8001e78:	6019      	str	r1, [r3, #0]
 8001e7a:	6819      	ldr	r1, [r3, #0]
 8001e7c:	4001      	ands	r1, r0
 8001e7e:	2000      	movs	r0, #0
 8001e80:	6019      	str	r1, [r3, #0]
 8001e82:	6819      	ldr	r1, [r3, #0]
 8001e84:	4339      	orrs	r1, r7
 8001e86:	6019      	str	r1, [r3, #0]
 8001e88:	6819      	ldr	r1, [r3, #0]
 8001e8a:	430a      	orrs	r2, r1
 8001e8c:	601a      	str	r2, [r3, #0]
 8001e8e:	7026      	strb	r6, [r4, #0]
 8001e90:	7028      	strb	r0, [r5, #0]
 8001e92:	bdf0      	pop	{r4, r5, r6, r7, pc}
 8001e94:	ffffefff 	.word	0xffffefff

08001e98 <HAL_I2CEx_ConfigDigitalFilter>:
 8001e98:	0002      	movs	r2, r0
 8001e9a:	b5f0      	push	{r4, r5, r6, r7, lr}
 8001e9c:	3241      	adds	r2, #65	; 0x41
 8001e9e:	7814      	ldrb	r4, [r2, #0]
 8001ea0:	0003      	movs	r3, r0
 8001ea2:	b2e5      	uxtb	r5, r4
 8001ea4:	2002      	movs	r0, #2
 8001ea6:	2c20      	cmp	r4, #32
 8001ea8:	d117      	bne.n	8001eda <HAL_I2CEx_ConfigDigitalFilter+0x42>
 8001eaa:	001c      	movs	r4, r3
 8001eac:	3440      	adds	r4, #64	; 0x40
 8001eae:	7826      	ldrb	r6, [r4, #0]
 8001eb0:	2e01      	cmp	r6, #1
 8001eb2:	d012      	beq.n	8001eda <HAL_I2CEx_ConfigDigitalFilter+0x42>
 8001eb4:	3022      	adds	r0, #34	; 0x22
 8001eb6:	7010      	strb	r0, [r2, #0]
 8001eb8:	681b      	ldr	r3, [r3, #0]
 8001eba:	3823      	subs	r0, #35	; 0x23
 8001ebc:	681e      	ldr	r6, [r3, #0]
 8001ebe:	4f07      	ldr	r7, [pc, #28]	; (8001edc <HAL_I2CEx_ConfigDigitalFilter+0x44>)
 8001ec0:	4386      	bics	r6, r0
 8001ec2:	601e      	str	r6, [r3, #0]
 8001ec4:	681e      	ldr	r6, [r3, #0]
 8001ec6:	0209      	lsls	r1, r1, #8
 8001ec8:	403e      	ands	r6, r7
 8001eca:	4331      	orrs	r1, r6
 8001ecc:	6019      	str	r1, [r3, #0]
 8001ece:	6819      	ldr	r1, [r3, #0]
 8001ed0:	4308      	orrs	r0, r1
 8001ed2:	6018      	str	r0, [r3, #0]
 8001ed4:	2000      	movs	r0, #0
 8001ed6:	7015      	strb	r5, [r2, #0]
 8001ed8:	7020      	strb	r0, [r4, #0]
 8001eda:	bdf0      	pop	{r4, r5, r6, r7, pc}
 8001edc:	fffff0ff 	.word	0xfffff0ff

08001ee0 <HAL_RCC_GetSysClockFreq>:
 8001ee0:	220c      	movs	r2, #12
 8001ee2:	4b1d      	ldr	r3, [pc, #116]	; (8001f58 <HAL_RCC_GetSysClockFreq+0x78>)
 8001ee4:	b570      	push	{r4, r5, r6, lr}
 8001ee6:	68dc      	ldr	r4, [r3, #12]
 8001ee8:	4022      	ands	r2, r4
 8001eea:	2a08      	cmp	r2, #8
 8001eec:	d031      	beq.n	8001f52 <HAL_RCC_GetSysClockFreq+0x72>
 8001eee:	2a0c      	cmp	r2, #12
 8001ef0:	d009      	beq.n	8001f06 <HAL_RCC_GetSysClockFreq+0x26>
 8001ef2:	2a04      	cmp	r2, #4
 8001ef4:	d125      	bne.n	8001f42 <HAL_RCC_GetSysClockFreq+0x62>
 8001ef6:	6818      	ldr	r0, [r3, #0]
 8001ef8:	4b18      	ldr	r3, [pc, #96]	; (8001f5c <HAL_RCC_GetSysClockFreq+0x7c>)
 8001efa:	06c0      	lsls	r0, r0, #27
 8001efc:	17c0      	asrs	r0, r0, #31
 8001efe:	4018      	ands	r0, r3
 8001f00:	4b17      	ldr	r3, [pc, #92]	; (8001f60 <HAL_RCC_GetSysClockFreq+0x80>)
 8001f02:	18c0      	adds	r0, r0, r3
 8001f04:	bd70      	pop	{r4, r5, r6, pc}
 8001f06:	02a2      	lsls	r2, r4, #10
 8001f08:	4816      	ldr	r0, [pc, #88]	; (8001f64 <HAL_RCC_GetSysClockFreq+0x84>)
 8001f0a:	0f12      	lsrs	r2, r2, #28
 8001f0c:	5c80      	ldrb	r0, [r0, r2]
 8001f0e:	2280      	movs	r2, #128	; 0x80
 8001f10:	0224      	lsls	r4, r4, #8
 8001f12:	68d9      	ldr	r1, [r3, #12]
 8001f14:	0fa4      	lsrs	r4, r4, #30
 8001f16:	0252      	lsls	r2, r2, #9
 8001f18:	3401      	adds	r4, #1
 8001f1a:	4211      	tst	r1, r2
 8001f1c:	d009      	beq.n	8001f32 <HAL_RCC_GetSysClockFreq+0x52>
 8001f1e:	4a12      	ldr	r2, [pc, #72]	; (8001f68 <HAL_RCC_GetSysClockFreq+0x88>)
 8001f20:	2300      	movs	r3, #0
 8001f22:	2100      	movs	r1, #0
 8001f24:	f7fe faa2 	bl	800046c <__aeabi_lmul>
 8001f28:	0022      	movs	r2, r4
 8001f2a:	2300      	movs	r3, #0
 8001f2c:	f7fe fa7e 	bl	800042c <__aeabi_uldivmod>
 8001f30:	e7e8      	b.n	8001f04 <HAL_RCC_GetSysClockFreq+0x24>
 8001f32:	681a      	ldr	r2, [r3, #0]
 8001f34:	2310      	movs	r3, #16
 8001f36:	421a      	tst	r2, r3
 8001f38:	d001      	beq.n	8001f3e <HAL_RCC_GetSysClockFreq+0x5e>
 8001f3a:	4a0c      	ldr	r2, [pc, #48]	; (8001f6c <HAL_RCC_GetSysClockFreq+0x8c>)
 8001f3c:	e7f0      	b.n	8001f20 <HAL_RCC_GetSysClockFreq+0x40>
 8001f3e:	4a08      	ldr	r2, [pc, #32]	; (8001f60 <HAL_RCC_GetSysClockFreq+0x80>)
 8001f40:	e7ee      	b.n	8001f20 <HAL_RCC_GetSysClockFreq+0x40>
 8001f42:	2080      	movs	r0, #128	; 0x80
 8001f44:	685b      	ldr	r3, [r3, #4]
 8001f46:	0200      	lsls	r0, r0, #8
 8001f48:	041b      	lsls	r3, r3, #16
 8001f4a:	0f5b      	lsrs	r3, r3, #29
 8001f4c:	3301      	adds	r3, #1
 8001f4e:	4098      	lsls	r0, r3
 8001f50:	e7d8      	b.n	8001f04 <HAL_RCC_GetSysClockFreq+0x24>
 8001f52:	4805      	ldr	r0, [pc, #20]	; (8001f68 <HAL_RCC_GetSysClockFreq+0x88>)
 8001f54:	e7d6      	b.n	8001f04 <HAL_RCC_GetSysClockFreq+0x24>
 8001f56:	46c0      	nop			; (mov r8, r8)
 8001f58:	40021000 	.word	0x40021000
 8001f5c:	ff48e500 	.word	0xff48e500
 8001f60:	00f42400 	.word	0x00f42400
 8001f64:	08003e6e 	.word	0x08003e6e
 8001f68:	007a1200 	.word	0x007a1200
 8001f6c:	003d0900 	.word	0x003d0900

08001f70 <HAL_RCC_OscConfig>:
 8001f70:	b5f0      	push	{r4, r5, r6, r7, lr}
 8001f72:	0005      	movs	r5, r0
 8001f74:	b085      	sub	sp, #20
 8001f76:	2800      	cmp	r0, #0
 8001f78:	d05a      	beq.n	8002030 <HAL_RCC_OscConfig+0xc0>
 8001f7a:	230c      	movs	r3, #12
 8001f7c:	4cbe      	ldr	r4, [pc, #760]	; (8002278 <HAL_RCC_OscConfig+0x308>)
 8001f7e:	6802      	ldr	r2, [r0, #0]
 8001f80:	68e6      	ldr	r6, [r4, #12]
 8001f82:	68e7      	ldr	r7, [r4, #12]
 8001f84:	401e      	ands	r6, r3
 8001f86:	2380      	movs	r3, #128	; 0x80
 8001f88:	025b      	lsls	r3, r3, #9
 8001f8a:	0019      	movs	r1, r3
 8001f8c:	401f      	ands	r7, r3
 8001f8e:	07d2      	lsls	r2, r2, #31
 8001f90:	d442      	bmi.n	8002018 <HAL_RCC_OscConfig+0xa8>
 8001f92:	682b      	ldr	r3, [r5, #0]
 8001f94:	079b      	lsls	r3, r3, #30
 8001f96:	d500      	bpl.n	8001f9a <HAL_RCC_OscConfig+0x2a>
 8001f98:	e08b      	b.n	80020b2 <HAL_RCC_OscConfig+0x142>
 8001f9a:	682b      	ldr	r3, [r5, #0]
 8001f9c:	06db      	lsls	r3, r3, #27
 8001f9e:	d529      	bpl.n	8001ff4 <HAL_RCC_OscConfig+0x84>
 8001fa0:	2e00      	cmp	r6, #0
 8001fa2:	d000      	beq.n	8001fa6 <HAL_RCC_OscConfig+0x36>
 8001fa4:	e0dc      	b.n	8002160 <HAL_RCC_OscConfig+0x1f0>
 8001fa6:	6823      	ldr	r3, [r4, #0]
 8001fa8:	059b      	lsls	r3, r3, #22
 8001faa:	d502      	bpl.n	8001fb2 <HAL_RCC_OscConfig+0x42>
 8001fac:	69eb      	ldr	r3, [r5, #28]
 8001fae:	2b00      	cmp	r3, #0
 8001fb0:	d03e      	beq.n	8002030 <HAL_RCC_OscConfig+0xc0>
 8001fb2:	6862      	ldr	r2, [r4, #4]
 8001fb4:	49b1      	ldr	r1, [pc, #708]	; (800227c <HAL_RCC_OscConfig+0x30c>)
 8001fb6:	6a6b      	ldr	r3, [r5, #36]	; 0x24
 8001fb8:	400a      	ands	r2, r1
 8001fba:	431a      	orrs	r2, r3
 8001fbc:	6062      	str	r2, [r4, #4]
 8001fbe:	6861      	ldr	r1, [r4, #4]
 8001fc0:	6a2a      	ldr	r2, [r5, #32]
 8001fc2:	0209      	lsls	r1, r1, #8
 8001fc4:	0a09      	lsrs	r1, r1, #8
 8001fc6:	0612      	lsls	r2, r2, #24
 8001fc8:	430a      	orrs	r2, r1
 8001fca:	6062      	str	r2, [r4, #4]
 8001fcc:	2280      	movs	r2, #128	; 0x80
 8001fce:	0b5b      	lsrs	r3, r3, #13
 8001fd0:	3301      	adds	r3, #1
 8001fd2:	0212      	lsls	r2, r2, #8
 8001fd4:	409a      	lsls	r2, r3
 8001fd6:	0013      	movs	r3, r2
 8001fd8:	68e1      	ldr	r1, [r4, #12]
 8001fda:	060a      	lsls	r2, r1, #24
 8001fdc:	49a8      	ldr	r1, [pc, #672]	; (8002280 <HAL_RCC_OscConfig+0x310>)
 8001fde:	0f12      	lsrs	r2, r2, #28
 8001fe0:	5c8a      	ldrb	r2, [r1, r2]
 8001fe2:	40d3      	lsrs	r3, r2
 8001fe4:	4aa7      	ldr	r2, [pc, #668]	; (8002284 <HAL_RCC_OscConfig+0x314>)
 8001fe6:	6013      	str	r3, [r2, #0]
 8001fe8:	4ba7      	ldr	r3, [pc, #668]	; (8002288 <HAL_RCC_OscConfig+0x318>)
 8001fea:	6818      	ldr	r0, [r3, #0]
 8001fec:	f7ff fa78 	bl	80014e0 <HAL_InitTick>
 8001ff0:	2800      	cmp	r0, #0
 8001ff2:	d134      	bne.n	800205e <HAL_RCC_OscConfig+0xee>
 8001ff4:	682b      	ldr	r3, [r5, #0]
 8001ff6:	071b      	lsls	r3, r3, #28
 8001ff8:	d500      	bpl.n	8001ffc <HAL_RCC_OscConfig+0x8c>
 8001ffa:	e0e8      	b.n	80021ce <HAL_RCC_OscConfig+0x25e>
 8001ffc:	682b      	ldr	r3, [r5, #0]
 8001ffe:	075b      	lsls	r3, r3, #29
 8002000:	d500      	bpl.n	8002004 <HAL_RCC_OscConfig+0x94>
 8002002:	e10a      	b.n	800221a <HAL_RCC_OscConfig+0x2aa>
 8002004:	682b      	ldr	r3, [r5, #0]
 8002006:	069b      	lsls	r3, r3, #26
 8002008:	d500      	bpl.n	800200c <HAL_RCC_OscConfig+0x9c>
 800200a:	e18e      	b.n	800232a <HAL_RCC_OscConfig+0x3ba>
 800200c:	6aab      	ldr	r3, [r5, #40]	; 0x28
 800200e:	2b00      	cmp	r3, #0
 8002010:	d000      	beq.n	8002014 <HAL_RCC_OscConfig+0xa4>
 8002012:	e1bd      	b.n	8002390 <HAL_RCC_OscConfig+0x420>
 8002014:	2000      	movs	r0, #0
 8002016:	e022      	b.n	800205e <HAL_RCC_OscConfig+0xee>
 8002018:	2e08      	cmp	r6, #8
 800201a:	d003      	beq.n	8002024 <HAL_RCC_OscConfig+0xb4>
 800201c:	2e0c      	cmp	r6, #12
 800201e:	d109      	bne.n	8002034 <HAL_RCC_OscConfig+0xc4>
 8002020:	2f00      	cmp	r7, #0
 8002022:	d007      	beq.n	8002034 <HAL_RCC_OscConfig+0xc4>
 8002024:	6823      	ldr	r3, [r4, #0]
 8002026:	039b      	lsls	r3, r3, #14
 8002028:	d5b3      	bpl.n	8001f92 <HAL_RCC_OscConfig+0x22>
 800202a:	686b      	ldr	r3, [r5, #4]
 800202c:	2b00      	cmp	r3, #0
 800202e:	d1b0      	bne.n	8001f92 <HAL_RCC_OscConfig+0x22>
 8002030:	2001      	movs	r0, #1
 8002032:	e014      	b.n	800205e <HAL_RCC_OscConfig+0xee>
 8002034:	686a      	ldr	r2, [r5, #4]
 8002036:	428a      	cmp	r2, r1
 8002038:	d113      	bne.n	8002062 <HAL_RCC_OscConfig+0xf2>
 800203a:	6822      	ldr	r2, [r4, #0]
 800203c:	4313      	orrs	r3, r2
 800203e:	6023      	str	r3, [r4, #0]
 8002040:	f7ff fa92 	bl	8001568 <HAL_GetTick>
 8002044:	9000      	str	r0, [sp, #0]
 8002046:	2280      	movs	r2, #128	; 0x80
 8002048:	6823      	ldr	r3, [r4, #0]
 800204a:	0292      	lsls	r2, r2, #10
 800204c:	4213      	tst	r3, r2
 800204e:	d1a0      	bne.n	8001f92 <HAL_RCC_OscConfig+0x22>
 8002050:	f7ff fa8a 	bl	8001568 <HAL_GetTick>
 8002054:	9b00      	ldr	r3, [sp, #0]
 8002056:	1ac0      	subs	r0, r0, r3
 8002058:	2864      	cmp	r0, #100	; 0x64
 800205a:	d9f4      	bls.n	8002046 <HAL_RCC_OscConfig+0xd6>
 800205c:	2003      	movs	r0, #3
 800205e:	b005      	add	sp, #20
 8002060:	bdf0      	pop	{r4, r5, r6, r7, pc}
 8002062:	21a0      	movs	r1, #160	; 0xa0
 8002064:	02c9      	lsls	r1, r1, #11
 8002066:	428a      	cmp	r2, r1
 8002068:	d105      	bne.n	8002076 <HAL_RCC_OscConfig+0x106>
 800206a:	2280      	movs	r2, #128	; 0x80
 800206c:	6821      	ldr	r1, [r4, #0]
 800206e:	02d2      	lsls	r2, r2, #11
 8002070:	430a      	orrs	r2, r1
 8002072:	6022      	str	r2, [r4, #0]
 8002074:	e7e1      	b.n	800203a <HAL_RCC_OscConfig+0xca>
 8002076:	6821      	ldr	r1, [r4, #0]
 8002078:	4884      	ldr	r0, [pc, #528]	; (800228c <HAL_RCC_OscConfig+0x31c>)
 800207a:	4001      	ands	r1, r0
 800207c:	6021      	str	r1, [r4, #0]
 800207e:	6821      	ldr	r1, [r4, #0]
 8002080:	400b      	ands	r3, r1
 8002082:	9303      	str	r3, [sp, #12]
 8002084:	9b03      	ldr	r3, [sp, #12]
 8002086:	4982      	ldr	r1, [pc, #520]	; (8002290 <HAL_RCC_OscConfig+0x320>)
 8002088:	6823      	ldr	r3, [r4, #0]
 800208a:	400b      	ands	r3, r1
 800208c:	6023      	str	r3, [r4, #0]
 800208e:	2a00      	cmp	r2, #0
 8002090:	d1d6      	bne.n	8002040 <HAL_RCC_OscConfig+0xd0>
 8002092:	f7ff fa69 	bl	8001568 <HAL_GetTick>
 8002096:	9000      	str	r0, [sp, #0]
 8002098:	2280      	movs	r2, #128	; 0x80
 800209a:	6823      	ldr	r3, [r4, #0]
 800209c:	0292      	lsls	r2, r2, #10
 800209e:	4213      	tst	r3, r2
 80020a0:	d100      	bne.n	80020a4 <HAL_RCC_OscConfig+0x134>
 80020a2:	e776      	b.n	8001f92 <HAL_RCC_OscConfig+0x22>
 80020a4:	f7ff fa60 	bl	8001568 <HAL_GetTick>
 80020a8:	9b00      	ldr	r3, [sp, #0]
 80020aa:	1ac0      	subs	r0, r0, r3
 80020ac:	2864      	cmp	r0, #100	; 0x64
 80020ae:	d9f3      	bls.n	8002098 <HAL_RCC_OscConfig+0x128>
 80020b0:	e7d4      	b.n	800205c <HAL_RCC_OscConfig+0xec>
 80020b2:	68ea      	ldr	r2, [r5, #12]
 80020b4:	2e04      	cmp	r6, #4
 80020b6:	d003      	beq.n	80020c0 <HAL_RCC_OscConfig+0x150>
 80020b8:	2e0c      	cmp	r6, #12
 80020ba:	d124      	bne.n	8002106 <HAL_RCC_OscConfig+0x196>
 80020bc:	2f00      	cmp	r7, #0
 80020be:	d122      	bne.n	8002106 <HAL_RCC_OscConfig+0x196>
 80020c0:	6823      	ldr	r3, [r4, #0]
 80020c2:	075b      	lsls	r3, r3, #29
 80020c4:	d501      	bpl.n	80020ca <HAL_RCC_OscConfig+0x15a>
 80020c6:	2a00      	cmp	r2, #0
 80020c8:	d0b2      	beq.n	8002030 <HAL_RCC_OscConfig+0xc0>
 80020ca:	6861      	ldr	r1, [r4, #4]
 80020cc:	692b      	ldr	r3, [r5, #16]
 80020ce:	4871      	ldr	r0, [pc, #452]	; (8002294 <HAL_RCC_OscConfig+0x324>)
 80020d0:	021b      	lsls	r3, r3, #8
 80020d2:	4001      	ands	r1, r0
 80020d4:	430b      	orrs	r3, r1
 80020d6:	2109      	movs	r1, #9
 80020d8:	6063      	str	r3, [r4, #4]
 80020da:	6823      	ldr	r3, [r4, #0]
 80020dc:	438b      	bics	r3, r1
 80020de:	4313      	orrs	r3, r2
 80020e0:	6023      	str	r3, [r4, #0]
 80020e2:	f7ff fefd 	bl	8001ee0 <HAL_RCC_GetSysClockFreq>
 80020e6:	68e3      	ldr	r3, [r4, #12]
 80020e8:	4a65      	ldr	r2, [pc, #404]	; (8002280 <HAL_RCC_OscConfig+0x310>)
 80020ea:	061b      	lsls	r3, r3, #24
 80020ec:	0f1b      	lsrs	r3, r3, #28
 80020ee:	5cd3      	ldrb	r3, [r2, r3]
 80020f0:	40d8      	lsrs	r0, r3
 80020f2:	4b64      	ldr	r3, [pc, #400]	; (8002284 <HAL_RCC_OscConfig+0x314>)
 80020f4:	6018      	str	r0, [r3, #0]
 80020f6:	4b64      	ldr	r3, [pc, #400]	; (8002288 <HAL_RCC_OscConfig+0x318>)
 80020f8:	6818      	ldr	r0, [r3, #0]
 80020fa:	f7ff f9f1 	bl	80014e0 <HAL_InitTick>
 80020fe:	2800      	cmp	r0, #0
 8002100:	d100      	bne.n	8002104 <HAL_RCC_OscConfig+0x194>
 8002102:	e74a      	b.n	8001f9a <HAL_RCC_OscConfig+0x2a>
 8002104:	e7ab      	b.n	800205e <HAL_RCC_OscConfig+0xee>
 8002106:	6823      	ldr	r3, [r4, #0]
 8002108:	2a00      	cmp	r2, #0
 800210a:	d018      	beq.n	800213e <HAL_RCC_OscConfig+0x1ce>
 800210c:	2109      	movs	r1, #9
 800210e:	438b      	bics	r3, r1
 8002110:	4313      	orrs	r3, r2
 8002112:	6023      	str	r3, [r4, #0]
 8002114:	f7ff fa28 	bl	8001568 <HAL_GetTick>
 8002118:	0007      	movs	r7, r0
 800211a:	2204      	movs	r2, #4
 800211c:	6823      	ldr	r3, [r4, #0]
 800211e:	4213      	tst	r3, r2
 8002120:	d007      	beq.n	8002132 <HAL_RCC_OscConfig+0x1c2>
 8002122:	6862      	ldr	r2, [r4, #4]
 8002124:	692b      	ldr	r3, [r5, #16]
 8002126:	495b      	ldr	r1, [pc, #364]	; (8002294 <HAL_RCC_OscConfig+0x324>)
 8002128:	021b      	lsls	r3, r3, #8
 800212a:	400a      	ands	r2, r1
 800212c:	4313      	orrs	r3, r2
 800212e:	6063      	str	r3, [r4, #4]
 8002130:	e733      	b.n	8001f9a <HAL_RCC_OscConfig+0x2a>
 8002132:	f7ff fa19 	bl	8001568 <HAL_GetTick>
 8002136:	1bc0      	subs	r0, r0, r7
 8002138:	2802      	cmp	r0, #2
 800213a:	d9ee      	bls.n	800211a <HAL_RCC_OscConfig+0x1aa>
 800213c:	e78e      	b.n	800205c <HAL_RCC_OscConfig+0xec>
 800213e:	2201      	movs	r2, #1
 8002140:	4393      	bics	r3, r2
 8002142:	6023      	str	r3, [r4, #0]
 8002144:	f7ff fa10 	bl	8001568 <HAL_GetTick>
 8002148:	0007      	movs	r7, r0
 800214a:	2204      	movs	r2, #4
 800214c:	6823      	ldr	r3, [r4, #0]
 800214e:	4213      	tst	r3, r2
 8002150:	d100      	bne.n	8002154 <HAL_RCC_OscConfig+0x1e4>
 8002152:	e722      	b.n	8001f9a <HAL_RCC_OscConfig+0x2a>
 8002154:	f7ff fa08 	bl	8001568 <HAL_GetTick>
 8002158:	1bc0      	subs	r0, r0, r7
 800215a:	2802      	cmp	r0, #2
 800215c:	d9f5      	bls.n	800214a <HAL_RCC_OscConfig+0x1da>
 800215e:	e77d      	b.n	800205c <HAL_RCC_OscConfig+0xec>
 8002160:	69eb      	ldr	r3, [r5, #28]
 8002162:	2b00      	cmp	r3, #0
 8002164:	d020      	beq.n	80021a8 <HAL_RCC_OscConfig+0x238>
 8002166:	2380      	movs	r3, #128	; 0x80
 8002168:	6822      	ldr	r2, [r4, #0]
 800216a:	005b      	lsls	r3, r3, #1
 800216c:	4313      	orrs	r3, r2
 800216e:	6023      	str	r3, [r4, #0]
 8002170:	f7ff f9fa 	bl	8001568 <HAL_GetTick>
 8002174:	0007      	movs	r7, r0
 8002176:	2280      	movs	r2, #128	; 0x80
 8002178:	6823      	ldr	r3, [r4, #0]
 800217a:	0092      	lsls	r2, r2, #2
 800217c:	4213      	tst	r3, r2
 800217e:	d00d      	beq.n	800219c <HAL_RCC_OscConfig+0x22c>
 8002180:	6863      	ldr	r3, [r4, #4]
 8002182:	4a3e      	ldr	r2, [pc, #248]	; (800227c <HAL_RCC_OscConfig+0x30c>)
 8002184:	4013      	ands	r3, r2
 8002186:	6a6a      	ldr	r2, [r5, #36]	; 0x24
 8002188:	4313      	orrs	r3, r2
 800218a:	6063      	str	r3, [r4, #4]
 800218c:	6862      	ldr	r2, [r4, #4]
 800218e:	6a2b      	ldr	r3, [r5, #32]
 8002190:	0212      	lsls	r2, r2, #8
 8002192:	061b      	lsls	r3, r3, #24
 8002194:	0a12      	lsrs	r2, r2, #8
 8002196:	4313      	orrs	r3, r2
 8002198:	6063      	str	r3, [r4, #4]
 800219a:	e72b      	b.n	8001ff4 <HAL_RCC_OscConfig+0x84>
 800219c:	f7ff f9e4 	bl	8001568 <HAL_GetTick>
 80021a0:	1bc0      	subs	r0, r0, r7
 80021a2:	2802      	cmp	r0, #2
 80021a4:	d9e7      	bls.n	8002176 <HAL_RCC_OscConfig+0x206>
 80021a6:	e759      	b.n	800205c <HAL_RCC_OscConfig+0xec>
 80021a8:	6823      	ldr	r3, [r4, #0]
 80021aa:	4a3b      	ldr	r2, [pc, #236]	; (8002298 <HAL_RCC_OscConfig+0x328>)
 80021ac:	4013      	ands	r3, r2
 80021ae:	6023      	str	r3, [r4, #0]
 80021b0:	f7ff f9da 	bl	8001568 <HAL_GetTick>
 80021b4:	0007      	movs	r7, r0
 80021b6:	2280      	movs	r2, #128	; 0x80
 80021b8:	6823      	ldr	r3, [r4, #0]
 80021ba:	0092      	lsls	r2, r2, #2
 80021bc:	4213      	tst	r3, r2
 80021be:	d100      	bne.n	80021c2 <HAL_RCC_OscConfig+0x252>
 80021c0:	e718      	b.n	8001ff4 <HAL_RCC_OscConfig+0x84>
 80021c2:	f7ff f9d1 	bl	8001568 <HAL_GetTick>
 80021c6:	1bc0      	subs	r0, r0, r7
 80021c8:	2802      	cmp	r0, #2
 80021ca:	d9f4      	bls.n	80021b6 <HAL_RCC_OscConfig+0x246>
 80021cc:	e746      	b.n	800205c <HAL_RCC_OscConfig+0xec>
 80021ce:	696a      	ldr	r2, [r5, #20]
 80021d0:	2301      	movs	r3, #1
 80021d2:	2a00      	cmp	r2, #0
 80021d4:	d010      	beq.n	80021f8 <HAL_RCC_OscConfig+0x288>
 80021d6:	6d22      	ldr	r2, [r4, #80]	; 0x50
 80021d8:	4313      	orrs	r3, r2
 80021da:	6523      	str	r3, [r4, #80]	; 0x50
 80021dc:	f7ff f9c4 	bl	8001568 <HAL_GetTick>
 80021e0:	0007      	movs	r7, r0
 80021e2:	2202      	movs	r2, #2
 80021e4:	6d23      	ldr	r3, [r4, #80]	; 0x50
 80021e6:	4213      	tst	r3, r2
 80021e8:	d000      	beq.n	80021ec <HAL_RCC_OscConfig+0x27c>
 80021ea:	e707      	b.n	8001ffc <HAL_RCC_OscConfig+0x8c>
 80021ec:	f7ff f9bc 	bl	8001568 <HAL_GetTick>
 80021f0:	1bc0      	subs	r0, r0, r7
 80021f2:	2802      	cmp	r0, #2
 80021f4:	d9f5      	bls.n	80021e2 <HAL_RCC_OscConfig+0x272>
 80021f6:	e731      	b.n	800205c <HAL_RCC_OscConfig+0xec>
 80021f8:	6d22      	ldr	r2, [r4, #80]	; 0x50
 80021fa:	439a      	bics	r2, r3
 80021fc:	6522      	str	r2, [r4, #80]	; 0x50
 80021fe:	f7ff f9b3 	bl	8001568 <HAL_GetTick>
 8002202:	0007      	movs	r7, r0
 8002204:	2202      	movs	r2, #2
 8002206:	6d23      	ldr	r3, [r4, #80]	; 0x50
 8002208:	4213      	tst	r3, r2
 800220a:	d100      	bne.n	800220e <HAL_RCC_OscConfig+0x29e>
 800220c:	e6f6      	b.n	8001ffc <HAL_RCC_OscConfig+0x8c>
 800220e:	f7ff f9ab 	bl	8001568 <HAL_GetTick>
 8002212:	1bc0      	subs	r0, r0, r7
 8002214:	2802      	cmp	r0, #2
 8002216:	d9f5      	bls.n	8002204 <HAL_RCC_OscConfig+0x294>
 8002218:	e720      	b.n	800205c <HAL_RCC_OscConfig+0xec>
 800221a:	2380      	movs	r3, #128	; 0x80
 800221c:	2100      	movs	r1, #0
 800221e:	6ba2      	ldr	r2, [r4, #56]	; 0x38
 8002220:	055b      	lsls	r3, r3, #21
 8002222:	9100      	str	r1, [sp, #0]
 8002224:	421a      	tst	r2, r3
 8002226:	d104      	bne.n	8002232 <HAL_RCC_OscConfig+0x2c2>
 8002228:	6ba2      	ldr	r2, [r4, #56]	; 0x38
 800222a:	4313      	orrs	r3, r2
 800222c:	63a3      	str	r3, [r4, #56]	; 0x38
 800222e:	2301      	movs	r3, #1
 8002230:	9300      	str	r3, [sp, #0]
 8002232:	2280      	movs	r2, #128	; 0x80
 8002234:	4f19      	ldr	r7, [pc, #100]	; (800229c <HAL_RCC_OscConfig+0x32c>)
 8002236:	0052      	lsls	r2, r2, #1
 8002238:	683b      	ldr	r3, [r7, #0]
 800223a:	4213      	tst	r3, r2
 800223c:	d008      	beq.n	8002250 <HAL_RCC_OscConfig+0x2e0>
 800223e:	2280      	movs	r2, #128	; 0x80
 8002240:	68ab      	ldr	r3, [r5, #8]
 8002242:	0052      	lsls	r2, r2, #1
 8002244:	4293      	cmp	r3, r2
 8002246:	d12b      	bne.n	80022a0 <HAL_RCC_OscConfig+0x330>
 8002248:	6d22      	ldr	r2, [r4, #80]	; 0x50
 800224a:	4313      	orrs	r3, r2
 800224c:	6523      	str	r3, [r4, #80]	; 0x50
 800224e:	e04c      	b.n	80022ea <HAL_RCC_OscConfig+0x37a>
 8002250:	2280      	movs	r2, #128	; 0x80
 8002252:	683b      	ldr	r3, [r7, #0]
 8002254:	0052      	lsls	r2, r2, #1
 8002256:	4313      	orrs	r3, r2
 8002258:	603b      	str	r3, [r7, #0]
 800225a:	f7ff f985 	bl	8001568 <HAL_GetTick>
 800225e:	9001      	str	r0, [sp, #4]
 8002260:	2280      	movs	r2, #128	; 0x80
 8002262:	683b      	ldr	r3, [r7, #0]
 8002264:	0052      	lsls	r2, r2, #1
 8002266:	4213      	tst	r3, r2
 8002268:	d1e9      	bne.n	800223e <HAL_RCC_OscConfig+0x2ce>
 800226a:	f7ff f97d 	bl	8001568 <HAL_GetTick>
 800226e:	9b01      	ldr	r3, [sp, #4]
 8002270:	1ac0      	subs	r0, r0, r3
 8002272:	2864      	cmp	r0, #100	; 0x64
 8002274:	d9f4      	bls.n	8002260 <HAL_RCC_OscConfig+0x2f0>
 8002276:	e6f1      	b.n	800205c <HAL_RCC_OscConfig+0xec>
 8002278:	40021000 	.word	0x40021000
 800227c:	ffff1fff 	.word	0xffff1fff
 8002280:	08003e56 	.word	0x08003e56
 8002284:	2000002c 	.word	0x2000002c
 8002288:	20000034 	.word	0x20000034
 800228c:	fffeffff 	.word	0xfffeffff
 8002290:	fffbffff 	.word	0xfffbffff
 8002294:	ffffe0ff 	.word	0xffffe0ff
 8002298:	fffffeff 	.word	0xfffffeff
 800229c:	40007000 	.word	0x40007000
 80022a0:	2b00      	cmp	r3, #0
 80022a2:	d116      	bne.n	80022d2 <HAL_RCC_OscConfig+0x362>
 80022a4:	6d23      	ldr	r3, [r4, #80]	; 0x50
 80022a6:	4a6b      	ldr	r2, [pc, #428]	; (8002454 <HAL_RCC_OscConfig+0x4e4>)
 80022a8:	4013      	ands	r3, r2
 80022aa:	6523      	str	r3, [r4, #80]	; 0x50
 80022ac:	6d23      	ldr	r3, [r4, #80]	; 0x50
 80022ae:	4a6a      	ldr	r2, [pc, #424]	; (8002458 <HAL_RCC_OscConfig+0x4e8>)
 80022b0:	4013      	ands	r3, r2
 80022b2:	6523      	str	r3, [r4, #80]	; 0x50
 80022b4:	f7ff f958 	bl	8001568 <HAL_GetTick>
 80022b8:	0007      	movs	r7, r0
 80022ba:	2280      	movs	r2, #128	; 0x80
 80022bc:	6d23      	ldr	r3, [r4, #80]	; 0x50
 80022be:	0092      	lsls	r2, r2, #2
 80022c0:	4213      	tst	r3, r2
 80022c2:	d01a      	beq.n	80022fa <HAL_RCC_OscConfig+0x38a>
 80022c4:	f7ff f950 	bl	8001568 <HAL_GetTick>
 80022c8:	4b64      	ldr	r3, [pc, #400]	; (800245c <HAL_RCC_OscConfig+0x4ec>)
 80022ca:	1bc0      	subs	r0, r0, r7
 80022cc:	4298      	cmp	r0, r3
 80022ce:	d9f4      	bls.n	80022ba <HAL_RCC_OscConfig+0x34a>
 80022d0:	e6c4      	b.n	800205c <HAL_RCC_OscConfig+0xec>
 80022d2:	21a0      	movs	r1, #160	; 0xa0
 80022d4:	00c9      	lsls	r1, r1, #3
 80022d6:	428b      	cmp	r3, r1
 80022d8:	d118      	bne.n	800230c <HAL_RCC_OscConfig+0x39c>
 80022da:	2380      	movs	r3, #128	; 0x80
 80022dc:	6d21      	ldr	r1, [r4, #80]	; 0x50
 80022de:	00db      	lsls	r3, r3, #3
 80022e0:	430b      	orrs	r3, r1
 80022e2:	6523      	str	r3, [r4, #80]	; 0x50
 80022e4:	6d23      	ldr	r3, [r4, #80]	; 0x50
 80022e6:	431a      	orrs	r2, r3
 80022e8:	6522      	str	r2, [r4, #80]	; 0x50
 80022ea:	f7ff f93d 	bl	8001568 <HAL_GetTick>
 80022ee:	0007      	movs	r7, r0
 80022f0:	2280      	movs	r2, #128	; 0x80
 80022f2:	6d23      	ldr	r3, [r4, #80]	; 0x50
 80022f4:	0092      	lsls	r2, r2, #2
 80022f6:	4213      	tst	r3, r2
 80022f8:	d010      	beq.n	800231c <HAL_RCC_OscConfig+0x3ac>
 80022fa:	9b00      	ldr	r3, [sp, #0]
 80022fc:	2b01      	cmp	r3, #1
 80022fe:	d000      	beq.n	8002302 <HAL_RCC_OscConfig+0x392>
 8002300:	e680      	b.n	8002004 <HAL_RCC_OscConfig+0x94>
 8002302:	6ba3      	ldr	r3, [r4, #56]	; 0x38
 8002304:	4a56      	ldr	r2, [pc, #344]	; (8002460 <HAL_RCC_OscConfig+0x4f0>)
 8002306:	4013      	ands	r3, r2
 8002308:	63a3      	str	r3, [r4, #56]	; 0x38
 800230a:	e67b      	b.n	8002004 <HAL_RCC_OscConfig+0x94>
 800230c:	6d23      	ldr	r3, [r4, #80]	; 0x50
 800230e:	4a51      	ldr	r2, [pc, #324]	; (8002454 <HAL_RCC_OscConfig+0x4e4>)
 8002310:	4013      	ands	r3, r2
 8002312:	6523      	str	r3, [r4, #80]	; 0x50
 8002314:	6d23      	ldr	r3, [r4, #80]	; 0x50
 8002316:	4a50      	ldr	r2, [pc, #320]	; (8002458 <HAL_RCC_OscConfig+0x4e8>)
 8002318:	4013      	ands	r3, r2
 800231a:	e797      	b.n	800224c <HAL_RCC_OscConfig+0x2dc>
 800231c:	f7ff f924 	bl	8001568 <HAL_GetTick>
 8002320:	4b4e      	ldr	r3, [pc, #312]	; (800245c <HAL_RCC_OscConfig+0x4ec>)
 8002322:	1bc0      	subs	r0, r0, r7
 8002324:	4298      	cmp	r0, r3
 8002326:	d9e3      	bls.n	80022f0 <HAL_RCC_OscConfig+0x380>
 8002328:	e698      	b.n	800205c <HAL_RCC_OscConfig+0xec>
 800232a:	69a9      	ldr	r1, [r5, #24]
 800232c:	2301      	movs	r3, #1
 800232e:	4a4d      	ldr	r2, [pc, #308]	; (8002464 <HAL_RCC_OscConfig+0x4f4>)
 8002330:	2900      	cmp	r1, #0
 8002332:	d018      	beq.n	8002366 <HAL_RCC_OscConfig+0x3f6>
 8002334:	68a1      	ldr	r1, [r4, #8]
 8002336:	4319      	orrs	r1, r3
 8002338:	60a1      	str	r1, [r4, #8]
 800233a:	6b61      	ldr	r1, [r4, #52]	; 0x34
 800233c:	430b      	orrs	r3, r1
 800233e:	6363      	str	r3, [r4, #52]	; 0x34
 8002340:	2380      	movs	r3, #128	; 0x80
 8002342:	6a11      	ldr	r1, [r2, #32]
 8002344:	019b      	lsls	r3, r3, #6
 8002346:	430b      	orrs	r3, r1
 8002348:	6213      	str	r3, [r2, #32]
 800234a:	f7ff f90d 	bl	8001568 <HAL_GetTick>
 800234e:	0007      	movs	r7, r0
 8002350:	2202      	movs	r2, #2
 8002352:	68a3      	ldr	r3, [r4, #8]
 8002354:	4213      	tst	r3, r2
 8002356:	d000      	beq.n	800235a <HAL_RCC_OscConfig+0x3ea>
 8002358:	e658      	b.n	800200c <HAL_RCC_OscConfig+0x9c>
 800235a:	f7ff f905 	bl	8001568 <HAL_GetTick>
 800235e:	1bc0      	subs	r0, r0, r7
 8002360:	2802      	cmp	r0, #2
 8002362:	d9f5      	bls.n	8002350 <HAL_RCC_OscConfig+0x3e0>
 8002364:	e67a      	b.n	800205c <HAL_RCC_OscConfig+0xec>
 8002366:	68a1      	ldr	r1, [r4, #8]
 8002368:	4399      	bics	r1, r3
 800236a:	60a1      	str	r1, [r4, #8]
 800236c:	6a13      	ldr	r3, [r2, #32]
 800236e:	493e      	ldr	r1, [pc, #248]	; (8002468 <HAL_RCC_OscConfig+0x4f8>)
 8002370:	400b      	ands	r3, r1
 8002372:	6213      	str	r3, [r2, #32]
 8002374:	f7ff f8f8 	bl	8001568 <HAL_GetTick>
 8002378:	0007      	movs	r7, r0
 800237a:	2202      	movs	r2, #2
 800237c:	68a3      	ldr	r3, [r4, #8]
 800237e:	4213      	tst	r3, r2
 8002380:	d100      	bne.n	8002384 <HAL_RCC_OscConfig+0x414>
 8002382:	e643      	b.n	800200c <HAL_RCC_OscConfig+0x9c>
 8002384:	f7ff f8f0 	bl	8001568 <HAL_GetTick>
 8002388:	1bc0      	subs	r0, r0, r7
 800238a:	2802      	cmp	r0, #2
 800238c:	d9f5      	bls.n	800237a <HAL_RCC_OscConfig+0x40a>
 800238e:	e665      	b.n	800205c <HAL_RCC_OscConfig+0xec>
 8002390:	2e0c      	cmp	r6, #12
 8002392:	d043      	beq.n	800241c <HAL_RCC_OscConfig+0x4ac>
 8002394:	4a35      	ldr	r2, [pc, #212]	; (800246c <HAL_RCC_OscConfig+0x4fc>)
 8002396:	2b02      	cmp	r3, #2
 8002398:	d12e      	bne.n	80023f8 <HAL_RCC_OscConfig+0x488>
 800239a:	6823      	ldr	r3, [r4, #0]
 800239c:	2780      	movs	r7, #128	; 0x80
 800239e:	4013      	ands	r3, r2
 80023a0:	6023      	str	r3, [r4, #0]
 80023a2:	f7ff f8e1 	bl	8001568 <HAL_GetTick>
 80023a6:	0006      	movs	r6, r0
 80023a8:	04bf      	lsls	r7, r7, #18
 80023aa:	6823      	ldr	r3, [r4, #0]
 80023ac:	423b      	tst	r3, r7
 80023ae:	d11d      	bne.n	80023ec <HAL_RCC_OscConfig+0x47c>
 80023b0:	6b29      	ldr	r1, [r5, #48]	; 0x30
 80023b2:	6aeb      	ldr	r3, [r5, #44]	; 0x2c
 80023b4:	68e2      	ldr	r2, [r4, #12]
 80023b6:	430b      	orrs	r3, r1
 80023b8:	492d      	ldr	r1, [pc, #180]	; (8002470 <HAL_RCC_OscConfig+0x500>)
 80023ba:	2680      	movs	r6, #128	; 0x80
 80023bc:	400a      	ands	r2, r1
 80023be:	4313      	orrs	r3, r2
 80023c0:	6b6a      	ldr	r2, [r5, #52]	; 0x34
 80023c2:	04b6      	lsls	r6, r6, #18
 80023c4:	4313      	orrs	r3, r2
 80023c6:	60e3      	str	r3, [r4, #12]
 80023c8:	2380      	movs	r3, #128	; 0x80
 80023ca:	6822      	ldr	r2, [r4, #0]
 80023cc:	045b      	lsls	r3, r3, #17
 80023ce:	4313      	orrs	r3, r2
 80023d0:	6023      	str	r3, [r4, #0]
 80023d2:	f7ff f8c9 	bl	8001568 <HAL_GetTick>
 80023d6:	0005      	movs	r5, r0
 80023d8:	6823      	ldr	r3, [r4, #0]
 80023da:	4233      	tst	r3, r6
 80023dc:	d000      	beq.n	80023e0 <HAL_RCC_OscConfig+0x470>
 80023de:	e619      	b.n	8002014 <HAL_RCC_OscConfig+0xa4>
 80023e0:	f7ff f8c2 	bl	8001568 <HAL_GetTick>
 80023e4:	1b40      	subs	r0, r0, r5
 80023e6:	2802      	cmp	r0, #2
 80023e8:	d9f6      	bls.n	80023d8 <HAL_RCC_OscConfig+0x468>
 80023ea:	e637      	b.n	800205c <HAL_RCC_OscConfig+0xec>
 80023ec:	f7ff f8bc 	bl	8001568 <HAL_GetTick>
 80023f0:	1b80      	subs	r0, r0, r6
 80023f2:	2802      	cmp	r0, #2
 80023f4:	d9d9      	bls.n	80023aa <HAL_RCC_OscConfig+0x43a>
 80023f6:	e631      	b.n	800205c <HAL_RCC_OscConfig+0xec>
 80023f8:	6823      	ldr	r3, [r4, #0]
 80023fa:	2680      	movs	r6, #128	; 0x80
 80023fc:	4013      	ands	r3, r2
 80023fe:	6023      	str	r3, [r4, #0]
 8002400:	f7ff f8b2 	bl	8001568 <HAL_GetTick>
 8002404:	0005      	movs	r5, r0
 8002406:	04b6      	lsls	r6, r6, #18
 8002408:	6823      	ldr	r3, [r4, #0]
 800240a:	4233      	tst	r3, r6
 800240c:	d100      	bne.n	8002410 <HAL_RCC_OscConfig+0x4a0>
 800240e:	e601      	b.n	8002014 <HAL_RCC_OscConfig+0xa4>
 8002410:	f7ff f8aa 	bl	8001568 <HAL_GetTick>
 8002414:	1b40      	subs	r0, r0, r5
 8002416:	2802      	cmp	r0, #2
 8002418:	d9f6      	bls.n	8002408 <HAL_RCC_OscConfig+0x498>
 800241a:	e61f      	b.n	800205c <HAL_RCC_OscConfig+0xec>
 800241c:	0018      	movs	r0, r3
 800241e:	2b01      	cmp	r3, #1
 8002420:	d100      	bne.n	8002424 <HAL_RCC_OscConfig+0x4b4>
 8002422:	e61c      	b.n	800205e <HAL_RCC_OscConfig+0xee>
 8002424:	2280      	movs	r2, #128	; 0x80
 8002426:	68e3      	ldr	r3, [r4, #12]
 8002428:	6ae9      	ldr	r1, [r5, #44]	; 0x2c
 800242a:	0252      	lsls	r2, r2, #9
 800242c:	401a      	ands	r2, r3
 800242e:	428a      	cmp	r2, r1
 8002430:	d000      	beq.n	8002434 <HAL_RCC_OscConfig+0x4c4>
 8002432:	e5fd      	b.n	8002030 <HAL_RCC_OscConfig+0xc0>
 8002434:	22f0      	movs	r2, #240	; 0xf0
 8002436:	6b29      	ldr	r1, [r5, #48]	; 0x30
 8002438:	0392      	lsls	r2, r2, #14
 800243a:	401a      	ands	r2, r3
 800243c:	428a      	cmp	r2, r1
 800243e:	d000      	beq.n	8002442 <HAL_RCC_OscConfig+0x4d2>
 8002440:	e5f6      	b.n	8002030 <HAL_RCC_OscConfig+0xc0>
 8002442:	22c0      	movs	r2, #192	; 0xc0
 8002444:	0412      	lsls	r2, r2, #16
 8002446:	4013      	ands	r3, r2
 8002448:	6b6a      	ldr	r2, [r5, #52]	; 0x34
 800244a:	4293      	cmp	r3, r2
 800244c:	d100      	bne.n	8002450 <HAL_RCC_OscConfig+0x4e0>
 800244e:	e5e1      	b.n	8002014 <HAL_RCC_OscConfig+0xa4>
 8002450:	e5ee      	b.n	8002030 <HAL_RCC_OscConfig+0xc0>
 8002452:	46c0      	nop			; (mov r8, r8)
 8002454:	fffffeff 	.word	0xfffffeff
 8002458:	fffffbff 	.word	0xfffffbff
 800245c:	00001388 	.word	0x00001388
 8002460:	efffffff 	.word	0xefffffff
 8002464:	40010000 	.word	0x40010000
 8002468:	ffffdfff 	.word	0xffffdfff
 800246c:	feffffff 	.word	0xfeffffff
 8002470:	ff02ffff 	.word	0xff02ffff

08002474 <HAL_RCC_ClockConfig>:
 8002474:	b5f7      	push	{r0, r1, r2, r4, r5, r6, r7, lr}
 8002476:	1e04      	subs	r4, r0, #0
 8002478:	9101      	str	r1, [sp, #4]
 800247a:	d101      	bne.n	8002480 <HAL_RCC_ClockConfig+0xc>
 800247c:	2001      	movs	r0, #1
 800247e:	bdfe      	pop	{r1, r2, r3, r4, r5, r6, r7, pc}
 8002480:	2501      	movs	r5, #1
 8002482:	4e5b      	ldr	r6, [pc, #364]	; (80025f0 <HAL_RCC_ClockConfig+0x17c>)
 8002484:	9a01      	ldr	r2, [sp, #4]
 8002486:	6833      	ldr	r3, [r6, #0]
 8002488:	402b      	ands	r3, r5
 800248a:	4293      	cmp	r3, r2
 800248c:	d331      	bcc.n	80024f2 <HAL_RCC_ClockConfig+0x7e>
 800248e:	6822      	ldr	r2, [r4, #0]
 8002490:	0793      	lsls	r3, r2, #30
 8002492:	d443      	bmi.n	800251c <HAL_RCC_ClockConfig+0xa8>
 8002494:	07d3      	lsls	r3, r2, #31
 8002496:	d449      	bmi.n	800252c <HAL_RCC_ClockConfig+0xb8>
 8002498:	2501      	movs	r5, #1
 800249a:	6833      	ldr	r3, [r6, #0]
 800249c:	9a01      	ldr	r2, [sp, #4]
 800249e:	402b      	ands	r3, r5
 80024a0:	4293      	cmp	r3, r2
 80024a2:	d909      	bls.n	80024b8 <HAL_RCC_ClockConfig+0x44>
 80024a4:	6833      	ldr	r3, [r6, #0]
 80024a6:	43ab      	bics	r3, r5
 80024a8:	6033      	str	r3, [r6, #0]
 80024aa:	f7ff f85d 	bl	8001568 <HAL_GetTick>
 80024ae:	0007      	movs	r7, r0
 80024b0:	6833      	ldr	r3, [r6, #0]
 80024b2:	422b      	tst	r3, r5
 80024b4:	d000      	beq.n	80024b8 <HAL_RCC_ClockConfig+0x44>
 80024b6:	e08c      	b.n	80025d2 <HAL_RCC_ClockConfig+0x15e>
 80024b8:	6822      	ldr	r2, [r4, #0]
 80024ba:	4d4e      	ldr	r5, [pc, #312]	; (80025f4 <HAL_RCC_ClockConfig+0x180>)
 80024bc:	0753      	lsls	r3, r2, #29
 80024be:	d500      	bpl.n	80024c2 <HAL_RCC_ClockConfig+0x4e>
 80024c0:	e08f      	b.n	80025e2 <HAL_RCC_ClockConfig+0x16e>
 80024c2:	0713      	lsls	r3, r2, #28
 80024c4:	d506      	bpl.n	80024d4 <HAL_RCC_ClockConfig+0x60>
 80024c6:	68e9      	ldr	r1, [r5, #12]
 80024c8:	6923      	ldr	r3, [r4, #16]
 80024ca:	4a4b      	ldr	r2, [pc, #300]	; (80025f8 <HAL_RCC_ClockConfig+0x184>)
 80024cc:	00db      	lsls	r3, r3, #3
 80024ce:	400a      	ands	r2, r1
 80024d0:	4313      	orrs	r3, r2
 80024d2:	60eb      	str	r3, [r5, #12]
 80024d4:	f7ff fd04 	bl	8001ee0 <HAL_RCC_GetSysClockFreq>
 80024d8:	68eb      	ldr	r3, [r5, #12]
 80024da:	4a48      	ldr	r2, [pc, #288]	; (80025fc <HAL_RCC_ClockConfig+0x188>)
 80024dc:	061b      	lsls	r3, r3, #24
 80024de:	0f1b      	lsrs	r3, r3, #28
 80024e0:	5cd3      	ldrb	r3, [r2, r3]
 80024e2:	40d8      	lsrs	r0, r3
 80024e4:	4b46      	ldr	r3, [pc, #280]	; (8002600 <HAL_RCC_ClockConfig+0x18c>)
 80024e6:	6018      	str	r0, [r3, #0]
 80024e8:	4b46      	ldr	r3, [pc, #280]	; (8002604 <HAL_RCC_ClockConfig+0x190>)
 80024ea:	6818      	ldr	r0, [r3, #0]
 80024ec:	f7fe fff8 	bl	80014e0 <HAL_InitTick>
 80024f0:	e7c5      	b.n	800247e <HAL_RCC_ClockConfig+0xa>
 80024f2:	6833      	ldr	r3, [r6, #0]
 80024f4:	9a01      	ldr	r2, [sp, #4]
 80024f6:	43ab      	bics	r3, r5
 80024f8:	4313      	orrs	r3, r2
 80024fa:	6033      	str	r3, [r6, #0]
 80024fc:	f7ff f834 	bl	8001568 <HAL_GetTick>
 8002500:	0007      	movs	r7, r0
 8002502:	6833      	ldr	r3, [r6, #0]
 8002504:	9a01      	ldr	r2, [sp, #4]
 8002506:	402b      	ands	r3, r5
 8002508:	4293      	cmp	r3, r2
 800250a:	d0c0      	beq.n	800248e <HAL_RCC_ClockConfig+0x1a>
 800250c:	f7ff f82c 	bl	8001568 <HAL_GetTick>
 8002510:	4b3d      	ldr	r3, [pc, #244]	; (8002608 <HAL_RCC_ClockConfig+0x194>)
 8002512:	1bc0      	subs	r0, r0, r7
 8002514:	4298      	cmp	r0, r3
 8002516:	d9f4      	bls.n	8002502 <HAL_RCC_ClockConfig+0x8e>
 8002518:	2003      	movs	r0, #3
 800251a:	e7b0      	b.n	800247e <HAL_RCC_ClockConfig+0xa>
 800251c:	20f0      	movs	r0, #240	; 0xf0
 800251e:	4935      	ldr	r1, [pc, #212]	; (80025f4 <HAL_RCC_ClockConfig+0x180>)
 8002520:	68cb      	ldr	r3, [r1, #12]
 8002522:	4383      	bics	r3, r0
 8002524:	68a0      	ldr	r0, [r4, #8]
 8002526:	4303      	orrs	r3, r0
 8002528:	60cb      	str	r3, [r1, #12]
 800252a:	e7b3      	b.n	8002494 <HAL_RCC_ClockConfig+0x20>
 800252c:	4d31      	ldr	r5, [pc, #196]	; (80025f4 <HAL_RCC_ClockConfig+0x180>)
 800252e:	6862      	ldr	r2, [r4, #4]
 8002530:	682b      	ldr	r3, [r5, #0]
 8002532:	2a02      	cmp	r2, #2
 8002534:	d118      	bne.n	8002568 <HAL_RCC_ClockConfig+0xf4>
 8002536:	039b      	lsls	r3, r3, #14
 8002538:	d5a0      	bpl.n	800247c <HAL_RCC_ClockConfig+0x8>
 800253a:	2103      	movs	r1, #3
 800253c:	68eb      	ldr	r3, [r5, #12]
 800253e:	438b      	bics	r3, r1
 8002540:	4313      	orrs	r3, r2
 8002542:	60eb      	str	r3, [r5, #12]
 8002544:	f7ff f810 	bl	8001568 <HAL_GetTick>
 8002548:	6863      	ldr	r3, [r4, #4]
 800254a:	0007      	movs	r7, r0
 800254c:	2b02      	cmp	r3, #2
 800254e:	d118      	bne.n	8002582 <HAL_RCC_ClockConfig+0x10e>
 8002550:	220c      	movs	r2, #12
 8002552:	68eb      	ldr	r3, [r5, #12]
 8002554:	4013      	ands	r3, r2
 8002556:	2b08      	cmp	r3, #8
 8002558:	d09e      	beq.n	8002498 <HAL_RCC_ClockConfig+0x24>
 800255a:	f7ff f805 	bl	8001568 <HAL_GetTick>
 800255e:	4b2a      	ldr	r3, [pc, #168]	; (8002608 <HAL_RCC_ClockConfig+0x194>)
 8002560:	1bc0      	subs	r0, r0, r7
 8002562:	4298      	cmp	r0, r3
 8002564:	d9f4      	bls.n	8002550 <HAL_RCC_ClockConfig+0xdc>
 8002566:	e7d7      	b.n	8002518 <HAL_RCC_ClockConfig+0xa4>
 8002568:	2a03      	cmp	r2, #3
 800256a:	d102      	bne.n	8002572 <HAL_RCC_ClockConfig+0xfe>
 800256c:	019b      	lsls	r3, r3, #6
 800256e:	d4e4      	bmi.n	800253a <HAL_RCC_ClockConfig+0xc6>
 8002570:	e784      	b.n	800247c <HAL_RCC_ClockConfig+0x8>
 8002572:	2a01      	cmp	r2, #1
 8002574:	d102      	bne.n	800257c <HAL_RCC_ClockConfig+0x108>
 8002576:	075b      	lsls	r3, r3, #29
 8002578:	d4df      	bmi.n	800253a <HAL_RCC_ClockConfig+0xc6>
 800257a:	e77f      	b.n	800247c <HAL_RCC_ClockConfig+0x8>
 800257c:	059b      	lsls	r3, r3, #22
 800257e:	d4dc      	bmi.n	800253a <HAL_RCC_ClockConfig+0xc6>
 8002580:	e77c      	b.n	800247c <HAL_RCC_ClockConfig+0x8>
 8002582:	2b03      	cmp	r3, #3
 8002584:	d10b      	bne.n	800259e <HAL_RCC_ClockConfig+0x12a>
 8002586:	220c      	movs	r2, #12
 8002588:	68eb      	ldr	r3, [r5, #12]
 800258a:	4013      	ands	r3, r2
 800258c:	4293      	cmp	r3, r2
 800258e:	d083      	beq.n	8002498 <HAL_RCC_ClockConfig+0x24>
 8002590:	f7fe ffea 	bl	8001568 <HAL_GetTick>
 8002594:	4b1c      	ldr	r3, [pc, #112]	; (8002608 <HAL_RCC_ClockConfig+0x194>)
 8002596:	1bc0      	subs	r0, r0, r7
 8002598:	4298      	cmp	r0, r3
 800259a:	d9f4      	bls.n	8002586 <HAL_RCC_ClockConfig+0x112>
 800259c:	e7bc      	b.n	8002518 <HAL_RCC_ClockConfig+0xa4>
 800259e:	2b01      	cmp	r3, #1
 80025a0:	d011      	beq.n	80025c6 <HAL_RCC_ClockConfig+0x152>
 80025a2:	220c      	movs	r2, #12
 80025a4:	68eb      	ldr	r3, [r5, #12]
 80025a6:	4213      	tst	r3, r2
 80025a8:	d100      	bne.n	80025ac <HAL_RCC_ClockConfig+0x138>
 80025aa:	e775      	b.n	8002498 <HAL_RCC_ClockConfig+0x24>
 80025ac:	f7fe ffdc 	bl	8001568 <HAL_GetTick>
 80025b0:	4b15      	ldr	r3, [pc, #84]	; (8002608 <HAL_RCC_ClockConfig+0x194>)
 80025b2:	1bc0      	subs	r0, r0, r7
 80025b4:	4298      	cmp	r0, r3
 80025b6:	d9f4      	bls.n	80025a2 <HAL_RCC_ClockConfig+0x12e>
 80025b8:	e7ae      	b.n	8002518 <HAL_RCC_ClockConfig+0xa4>
 80025ba:	f7fe ffd5 	bl	8001568 <HAL_GetTick>
 80025be:	4b12      	ldr	r3, [pc, #72]	; (8002608 <HAL_RCC_ClockConfig+0x194>)
 80025c0:	1bc0      	subs	r0, r0, r7
 80025c2:	4298      	cmp	r0, r3
 80025c4:	d8a8      	bhi.n	8002518 <HAL_RCC_ClockConfig+0xa4>
 80025c6:	220c      	movs	r2, #12
 80025c8:	68eb      	ldr	r3, [r5, #12]
 80025ca:	4013      	ands	r3, r2
 80025cc:	2b04      	cmp	r3, #4
 80025ce:	d1f4      	bne.n	80025ba <HAL_RCC_ClockConfig+0x146>
 80025d0:	e762      	b.n	8002498 <HAL_RCC_ClockConfig+0x24>
 80025d2:	f7fe ffc9 	bl	8001568 <HAL_GetTick>
 80025d6:	4b0c      	ldr	r3, [pc, #48]	; (8002608 <HAL_RCC_ClockConfig+0x194>)
 80025d8:	1bc0      	subs	r0, r0, r7
 80025da:	4298      	cmp	r0, r3
 80025dc:	d800      	bhi.n	80025e0 <HAL_RCC_ClockConfig+0x16c>
 80025de:	e767      	b.n	80024b0 <HAL_RCC_ClockConfig+0x3c>
 80025e0:	e79a      	b.n	8002518 <HAL_RCC_ClockConfig+0xa4>
 80025e2:	68eb      	ldr	r3, [r5, #12]
 80025e4:	4909      	ldr	r1, [pc, #36]	; (800260c <HAL_RCC_ClockConfig+0x198>)
 80025e6:	400b      	ands	r3, r1
 80025e8:	68e1      	ldr	r1, [r4, #12]
 80025ea:	430b      	orrs	r3, r1
 80025ec:	60eb      	str	r3, [r5, #12]
 80025ee:	e768      	b.n	80024c2 <HAL_RCC_ClockConfig+0x4e>
 80025f0:	40022000 	.word	0x40022000
 80025f4:	40021000 	.word	0x40021000
 80025f8:	ffffc7ff 	.word	0xffffc7ff
 80025fc:	08003e56 	.word	0x08003e56
 8002600:	2000002c 	.word	0x2000002c
 8002604:	20000034 	.word	0x20000034
 8002608:	00001388 	.word	0x00001388
 800260c:	fffff8ff 	.word	0xfffff8ff

08002610 <HAL_RCC_GetPCLK1Freq>:
 8002610:	4b04      	ldr	r3, [pc, #16]	; (8002624 <HAL_RCC_GetPCLK1Freq+0x14>)
 8002612:	4a05      	ldr	r2, [pc, #20]	; (8002628 <HAL_RCC_GetPCLK1Freq+0x18>)
 8002614:	68db      	ldr	r3, [r3, #12]
 8002616:	055b      	lsls	r3, r3, #21
 8002618:	0f5b      	lsrs	r3, r3, #29
 800261a:	5cd3      	ldrb	r3, [r2, r3]
 800261c:	4a03      	ldr	r2, [pc, #12]	; (800262c <HAL_RCC_GetPCLK1Freq+0x1c>)
 800261e:	6810      	ldr	r0, [r2, #0]
 8002620:	40d8      	lsrs	r0, r3
 8002622:	4770      	bx	lr
 8002624:	40021000 	.word	0x40021000
 8002628:	08003e66 	.word	0x08003e66
 800262c:	2000002c 	.word	0x2000002c

08002630 <HAL_RCC_GetPCLK2Freq>:
 8002630:	4b04      	ldr	r3, [pc, #16]	; (8002644 <HAL_RCC_GetPCLK2Freq+0x14>)
 8002632:	4a05      	ldr	r2, [pc, #20]	; (8002648 <HAL_RCC_GetPCLK2Freq+0x18>)
 8002634:	68db      	ldr	r3, [r3, #12]
 8002636:	049b      	lsls	r3, r3, #18
 8002638:	0f5b      	lsrs	r3, r3, #29
 800263a:	5cd3      	ldrb	r3, [r2, r3]
 800263c:	4a03      	ldr	r2, [pc, #12]	; (800264c <HAL_RCC_GetPCLK2Freq+0x1c>)
 800263e:	6810      	ldr	r0, [r2, #0]
 8002640:	40d8      	lsrs	r0, r3
 8002642:	4770      	bx	lr
 8002644:	40021000 	.word	0x40021000
 8002648:	08003e66 	.word	0x08003e66
 800264c:	2000002c 	.word	0x2000002c

08002650 <HAL_RCCEx_PeriphCLKConfig>:
 8002650:	6803      	ldr	r3, [r0, #0]
 8002652:	b5f7      	push	{r0, r1, r2, r4, r5, r6, r7, lr}
 8002654:	0005      	movs	r5, r0
 8002656:	069b      	lsls	r3, r3, #26
 8002658:	d52d      	bpl.n	80026b6 <HAL_RCCEx_PeriphCLKConfig+0x66>
 800265a:	2380      	movs	r3, #128	; 0x80
 800265c:	2100      	movs	r1, #0
 800265e:	4c5c      	ldr	r4, [pc, #368]	; (80027d0 <HAL_RCCEx_PeriphCLKConfig+0x180>)
 8002660:	055b      	lsls	r3, r3, #21
 8002662:	6ba2      	ldr	r2, [r4, #56]	; 0x38
 8002664:	9100      	str	r1, [sp, #0]
 8002666:	421a      	tst	r2, r3
 8002668:	d104      	bne.n	8002674 <HAL_RCCEx_PeriphCLKConfig+0x24>
 800266a:	6ba2      	ldr	r2, [r4, #56]	; 0x38
 800266c:	4313      	orrs	r3, r2
 800266e:	63a3      	str	r3, [r4, #56]	; 0x38
 8002670:	2301      	movs	r3, #1
 8002672:	9300      	str	r3, [sp, #0]
 8002674:	2780      	movs	r7, #128	; 0x80
 8002676:	4e57      	ldr	r6, [pc, #348]	; (80027d4 <HAL_RCCEx_PeriphCLKConfig+0x184>)
 8002678:	007f      	lsls	r7, r7, #1
 800267a:	6833      	ldr	r3, [r6, #0]
 800267c:	423b      	tst	r3, r7
 800267e:	d053      	beq.n	8002728 <HAL_RCCEx_PeriphCLKConfig+0xd8>
 8002680:	686b      	ldr	r3, [r5, #4]
 8002682:	21c0      	movs	r1, #192	; 0xc0
 8002684:	0018      	movs	r0, r3
 8002686:	6822      	ldr	r2, [r4, #0]
 8002688:	0389      	lsls	r1, r1, #14
 800268a:	4008      	ands	r0, r1
 800268c:	400a      	ands	r2, r1
 800268e:	4290      	cmp	r0, r2
 8002690:	d15b      	bne.n	800274a <HAL_RCCEx_PeriphCLKConfig+0xfa>
 8002692:	6d21      	ldr	r1, [r4, #80]	; 0x50
 8002694:	22c0      	movs	r2, #192	; 0xc0
 8002696:	0008      	movs	r0, r1
 8002698:	0292      	lsls	r2, r2, #10
 800269a:	4010      	ands	r0, r2
 800269c:	4211      	tst	r1, r2
 800269e:	d15f      	bne.n	8002760 <HAL_RCCEx_PeriphCLKConfig+0x110>
 80026a0:	682b      	ldr	r3, [r5, #0]
 80026a2:	069b      	lsls	r3, r3, #26
 80026a4:	d500      	bpl.n	80026a8 <HAL_RCCEx_PeriphCLKConfig+0x58>
 80026a6:	e070      	b.n	800278a <HAL_RCCEx_PeriphCLKConfig+0x13a>
 80026a8:	9b00      	ldr	r3, [sp, #0]
 80026aa:	2b01      	cmp	r3, #1
 80026ac:	d103      	bne.n	80026b6 <HAL_RCCEx_PeriphCLKConfig+0x66>
 80026ae:	6ba3      	ldr	r3, [r4, #56]	; 0x38
 80026b0:	4a49      	ldr	r2, [pc, #292]	; (80027d8 <HAL_RCCEx_PeriphCLKConfig+0x188>)
 80026b2:	4013      	ands	r3, r2
 80026b4:	63a3      	str	r3, [r4, #56]	; 0x38
 80026b6:	682b      	ldr	r3, [r5, #0]
 80026b8:	07da      	lsls	r2, r3, #31
 80026ba:	d506      	bpl.n	80026ca <HAL_RCCEx_PeriphCLKConfig+0x7a>
 80026bc:	2003      	movs	r0, #3
 80026be:	4944      	ldr	r1, [pc, #272]	; (80027d0 <HAL_RCCEx_PeriphCLKConfig+0x180>)
 80026c0:	6cca      	ldr	r2, [r1, #76]	; 0x4c
 80026c2:	4382      	bics	r2, r0
 80026c4:	68a8      	ldr	r0, [r5, #8]
 80026c6:	4302      	orrs	r2, r0
 80026c8:	64ca      	str	r2, [r1, #76]	; 0x4c
 80026ca:	079a      	lsls	r2, r3, #30
 80026cc:	d506      	bpl.n	80026dc <HAL_RCCEx_PeriphCLKConfig+0x8c>
 80026ce:	200c      	movs	r0, #12
 80026d0:	493f      	ldr	r1, [pc, #252]	; (80027d0 <HAL_RCCEx_PeriphCLKConfig+0x180>)
 80026d2:	6cca      	ldr	r2, [r1, #76]	; 0x4c
 80026d4:	4382      	bics	r2, r0
 80026d6:	68e8      	ldr	r0, [r5, #12]
 80026d8:	4302      	orrs	r2, r0
 80026da:	64ca      	str	r2, [r1, #76]	; 0x4c
 80026dc:	075a      	lsls	r2, r3, #29
 80026de:	d506      	bpl.n	80026ee <HAL_RCCEx_PeriphCLKConfig+0x9e>
 80026e0:	493b      	ldr	r1, [pc, #236]	; (80027d0 <HAL_RCCEx_PeriphCLKConfig+0x180>)
 80026e2:	483e      	ldr	r0, [pc, #248]	; (80027dc <HAL_RCCEx_PeriphCLKConfig+0x18c>)
 80026e4:	6cca      	ldr	r2, [r1, #76]	; 0x4c
 80026e6:	4002      	ands	r2, r0
 80026e8:	6928      	ldr	r0, [r5, #16]
 80026ea:	4302      	orrs	r2, r0
 80026ec:	64ca      	str	r2, [r1, #76]	; 0x4c
 80026ee:	071a      	lsls	r2, r3, #28
 80026f0:	d506      	bpl.n	8002700 <HAL_RCCEx_PeriphCLKConfig+0xb0>
 80026f2:	4937      	ldr	r1, [pc, #220]	; (80027d0 <HAL_RCCEx_PeriphCLKConfig+0x180>)
 80026f4:	483a      	ldr	r0, [pc, #232]	; (80027e0 <HAL_RCCEx_PeriphCLKConfig+0x190>)
 80026f6:	6cca      	ldr	r2, [r1, #76]	; 0x4c
 80026f8:	4002      	ands	r2, r0
 80026fa:	6968      	ldr	r0, [r5, #20]
 80026fc:	4302      	orrs	r2, r0
 80026fe:	64ca      	str	r2, [r1, #76]	; 0x4c
 8002700:	065a      	lsls	r2, r3, #25
 8002702:	d506      	bpl.n	8002712 <HAL_RCCEx_PeriphCLKConfig+0xc2>
 8002704:	4932      	ldr	r1, [pc, #200]	; (80027d0 <HAL_RCCEx_PeriphCLKConfig+0x180>)
 8002706:	4837      	ldr	r0, [pc, #220]	; (80027e4 <HAL_RCCEx_PeriphCLKConfig+0x194>)
 8002708:	6cca      	ldr	r2, [r1, #76]	; 0x4c
 800270a:	4002      	ands	r2, r0
 800270c:	69e8      	ldr	r0, [r5, #28]
 800270e:	4302      	orrs	r2, r0
 8002710:	64ca      	str	r2, [r1, #76]	; 0x4c
 8002712:	2000      	movs	r0, #0
 8002714:	061b      	lsls	r3, r3, #24
 8002716:	d517      	bpl.n	8002748 <HAL_RCCEx_PeriphCLKConfig+0xf8>
 8002718:	4a2d      	ldr	r2, [pc, #180]	; (80027d0 <HAL_RCCEx_PeriphCLKConfig+0x180>)
 800271a:	4933      	ldr	r1, [pc, #204]	; (80027e8 <HAL_RCCEx_PeriphCLKConfig+0x198>)
 800271c:	6cd3      	ldr	r3, [r2, #76]	; 0x4c
 800271e:	400b      	ands	r3, r1
 8002720:	69a9      	ldr	r1, [r5, #24]
 8002722:	430b      	orrs	r3, r1
 8002724:	64d3      	str	r3, [r2, #76]	; 0x4c
 8002726:	e00f      	b.n	8002748 <HAL_RCCEx_PeriphCLKConfig+0xf8>
 8002728:	6833      	ldr	r3, [r6, #0]
 800272a:	433b      	orrs	r3, r7
 800272c:	6033      	str	r3, [r6, #0]
 800272e:	f7fe ff1b 	bl	8001568 <HAL_GetTick>
 8002732:	9001      	str	r0, [sp, #4]
 8002734:	6833      	ldr	r3, [r6, #0]
 8002736:	423b      	tst	r3, r7
 8002738:	d1a2      	bne.n	8002680 <HAL_RCCEx_PeriphCLKConfig+0x30>
 800273a:	f7fe ff15 	bl	8001568 <HAL_GetTick>
 800273e:	9b01      	ldr	r3, [sp, #4]
 8002740:	1ac0      	subs	r0, r0, r3
 8002742:	2864      	cmp	r0, #100	; 0x64
 8002744:	d9f6      	bls.n	8002734 <HAL_RCCEx_PeriphCLKConfig+0xe4>
 8002746:	2003      	movs	r0, #3
 8002748:	bdfe      	pop	{r1, r2, r3, r4, r5, r6, r7, pc}
 800274a:	22c0      	movs	r2, #192	; 0xc0
 800274c:	0019      	movs	r1, r3
 800274e:	0292      	lsls	r2, r2, #10
 8002750:	4011      	ands	r1, r2
 8002752:	4291      	cmp	r1, r2
 8002754:	d19d      	bne.n	8002692 <HAL_RCCEx_PeriphCLKConfig+0x42>
 8002756:	6822      	ldr	r2, [r4, #0]
 8002758:	2001      	movs	r0, #1
 800275a:	0392      	lsls	r2, r2, #14
 800275c:	d599      	bpl.n	8002692 <HAL_RCCEx_PeriphCLKConfig+0x42>
 800275e:	e7f3      	b.n	8002748 <HAL_RCCEx_PeriphCLKConfig+0xf8>
 8002760:	4013      	ands	r3, r2
 8002762:	4283      	cmp	r3, r0
 8002764:	d09c      	beq.n	80026a0 <HAL_RCCEx_PeriphCLKConfig+0x50>
 8002766:	682b      	ldr	r3, [r5, #0]
 8002768:	069b      	lsls	r3, r3, #26
 800276a:	d59d      	bpl.n	80026a8 <HAL_RCCEx_PeriphCLKConfig+0x58>
 800276c:	2280      	movs	r2, #128	; 0x80
 800276e:	6d21      	ldr	r1, [r4, #80]	; 0x50
 8002770:	6d20      	ldr	r0, [r4, #80]	; 0x50
 8002772:	0312      	lsls	r2, r2, #12
 8002774:	4302      	orrs	r2, r0
 8002776:	6522      	str	r2, [r4, #80]	; 0x50
 8002778:	6d22      	ldr	r2, [r4, #80]	; 0x50
 800277a:	4b1c      	ldr	r3, [pc, #112]	; (80027ec <HAL_RCCEx_PeriphCLKConfig+0x19c>)
 800277c:	481c      	ldr	r0, [pc, #112]	; (80027f0 <HAL_RCCEx_PeriphCLKConfig+0x1a0>)
 800277e:	400b      	ands	r3, r1
 8002780:	4002      	ands	r2, r0
 8002782:	6522      	str	r2, [r4, #80]	; 0x50
 8002784:	6523      	str	r3, [r4, #80]	; 0x50
 8002786:	05cb      	lsls	r3, r1, #23
 8002788:	d412      	bmi.n	80027b0 <HAL_RCCEx_PeriphCLKConfig+0x160>
 800278a:	6869      	ldr	r1, [r5, #4]
 800278c:	23c0      	movs	r3, #192	; 0xc0
 800278e:	000a      	movs	r2, r1
 8002790:	029b      	lsls	r3, r3, #10
 8002792:	401a      	ands	r2, r3
 8002794:	429a      	cmp	r2, r3
 8002796:	d107      	bne.n	80027a8 <HAL_RCCEx_PeriphCLKConfig+0x158>
 8002798:	6823      	ldr	r3, [r4, #0]
 800279a:	4816      	ldr	r0, [pc, #88]	; (80027f4 <HAL_RCCEx_PeriphCLKConfig+0x1a4>)
 800279c:	4003      	ands	r3, r0
 800279e:	20c0      	movs	r0, #192	; 0xc0
 80027a0:	0380      	lsls	r0, r0, #14
 80027a2:	4001      	ands	r1, r0
 80027a4:	430b      	orrs	r3, r1
 80027a6:	6023      	str	r3, [r4, #0]
 80027a8:	6d23      	ldr	r3, [r4, #80]	; 0x50
 80027aa:	431a      	orrs	r2, r3
 80027ac:	6522      	str	r2, [r4, #80]	; 0x50
 80027ae:	e77b      	b.n	80026a8 <HAL_RCCEx_PeriphCLKConfig+0x58>
 80027b0:	f7fe feda 	bl	8001568 <HAL_GetTick>
 80027b4:	2780      	movs	r7, #128	; 0x80
 80027b6:	0006      	movs	r6, r0
 80027b8:	00bf      	lsls	r7, r7, #2
 80027ba:	6d23      	ldr	r3, [r4, #80]	; 0x50
 80027bc:	423b      	tst	r3, r7
 80027be:	d000      	beq.n	80027c2 <HAL_RCCEx_PeriphCLKConfig+0x172>
 80027c0:	e76e      	b.n	80026a0 <HAL_RCCEx_PeriphCLKConfig+0x50>
 80027c2:	f7fe fed1 	bl	8001568 <HAL_GetTick>
 80027c6:	4b0c      	ldr	r3, [pc, #48]	; (80027f8 <HAL_RCCEx_PeriphCLKConfig+0x1a8>)
 80027c8:	1b80      	subs	r0, r0, r6
 80027ca:	4298      	cmp	r0, r3
 80027cc:	d9f5      	bls.n	80027ba <HAL_RCCEx_PeriphCLKConfig+0x16a>
 80027ce:	e7ba      	b.n	8002746 <HAL_RCCEx_PeriphCLKConfig+0xf6>
 80027d0:	40021000 	.word	0x40021000
 80027d4:	40007000 	.word	0x40007000
 80027d8:	efffffff 	.word	0xefffffff
 80027dc:	fffff3ff 	.word	0xfffff3ff
 80027e0:	ffffcfff 	.word	0xffffcfff
 80027e4:	fbffffff 	.word	0xfbffffff
 80027e8:	fff3ffff 	.word	0xfff3ffff
 80027ec:	fffcffff 	.word	0xfffcffff
 80027f0:	fff7ffff 	.word	0xfff7ffff
 80027f4:	ffcfffff 	.word	0xffcfffff
 80027f8:	00001388 	.word	0x00001388

080027fc <TIM_Base_SetConfig>:
 80027fc:	2280      	movs	r2, #128	; 0x80
 80027fe:	b510      	push	{r4, lr}
 8002800:	6803      	ldr	r3, [r0, #0]
 8002802:	05d2      	lsls	r2, r2, #23
 8002804:	4290      	cmp	r0, r2
 8002806:	d005      	beq.n	8002814 <TIM_Base_SetConfig+0x18>
 8002808:	4c10      	ldr	r4, [pc, #64]	; (800284c <TIM_Base_SetConfig+0x50>)
 800280a:	42a0      	cmp	r0, r4
 800280c:	d002      	beq.n	8002814 <TIM_Base_SetConfig+0x18>
 800280e:	4c10      	ldr	r4, [pc, #64]	; (8002850 <TIM_Base_SetConfig+0x54>)
 8002810:	42a0      	cmp	r0, r4
 8002812:	d10f      	bne.n	8002834 <TIM_Base_SetConfig+0x38>
 8002814:	2470      	movs	r4, #112	; 0x70
 8002816:	43a3      	bics	r3, r4
 8002818:	684c      	ldr	r4, [r1, #4]
 800281a:	4323      	orrs	r3, r4
 800281c:	4290      	cmp	r0, r2
 800281e:	d005      	beq.n	800282c <TIM_Base_SetConfig+0x30>
 8002820:	4a0a      	ldr	r2, [pc, #40]	; (800284c <TIM_Base_SetConfig+0x50>)
 8002822:	4290      	cmp	r0, r2
 8002824:	d002      	beq.n	800282c <TIM_Base_SetConfig+0x30>
 8002826:	4a0a      	ldr	r2, [pc, #40]	; (8002850 <TIM_Base_SetConfig+0x54>)
 8002828:	4290      	cmp	r0, r2
 800282a:	d103      	bne.n	8002834 <TIM_Base_SetConfig+0x38>
 800282c:	4a09      	ldr	r2, [pc, #36]	; (8002854 <TIM_Base_SetConfig+0x58>)
 800282e:	4013      	ands	r3, r2
 8002830:	68ca      	ldr	r2, [r1, #12]
 8002832:	4313      	orrs	r3, r2
 8002834:	2280      	movs	r2, #128	; 0x80
 8002836:	4393      	bics	r3, r2
 8002838:	690a      	ldr	r2, [r1, #16]
 800283a:	4313      	orrs	r3, r2
 800283c:	6003      	str	r3, [r0, #0]
 800283e:	688b      	ldr	r3, [r1, #8]
 8002840:	62c3      	str	r3, [r0, #44]	; 0x2c
 8002842:	680b      	ldr	r3, [r1, #0]
 8002844:	6283      	str	r3, [r0, #40]	; 0x28
 8002846:	2301      	movs	r3, #1
 8002848:	6143      	str	r3, [r0, #20]
 800284a:	bd10      	pop	{r4, pc}
 800284c:	40010800 	.word	0x40010800
 8002850:	40011400 	.word	0x40011400
 8002854:	fffffcff 	.word	0xfffffcff

08002858 <TIM_OC1_SetConfig>:
 8002858:	2201      	movs	r2, #1
 800285a:	b530      	push	{r4, r5, lr}
 800285c:	2573      	movs	r5, #115	; 0x73
 800285e:	6a03      	ldr	r3, [r0, #32]
 8002860:	4393      	bics	r3, r2
 8002862:	6203      	str	r3, [r0, #32]
 8002864:	6a03      	ldr	r3, [r0, #32]
 8002866:	6844      	ldr	r4, [r0, #4]
 8002868:	6982      	ldr	r2, [r0, #24]
 800286a:	43aa      	bics	r2, r5
 800286c:	680d      	ldr	r5, [r1, #0]
 800286e:	432a      	orrs	r2, r5
 8002870:	2502      	movs	r5, #2
 8002872:	43ab      	bics	r3, r5
 8002874:	688d      	ldr	r5, [r1, #8]
 8002876:	6044      	str	r4, [r0, #4]
 8002878:	6182      	str	r2, [r0, #24]
 800287a:	684a      	ldr	r2, [r1, #4]
 800287c:	432b      	orrs	r3, r5
 800287e:	6342      	str	r2, [r0, #52]	; 0x34
 8002880:	6203      	str	r3, [r0, #32]
 8002882:	bd30      	pop	{r4, r5, pc}

08002884 <TIM_OC2_SetConfig>:
 8002884:	2210      	movs	r2, #16
 8002886:	6a03      	ldr	r3, [r0, #32]
 8002888:	b530      	push	{r4, r5, lr}
 800288a:	4393      	bics	r3, r2
 800288c:	6203      	str	r3, [r0, #32]
 800288e:	6a03      	ldr	r3, [r0, #32]
 8002890:	4c09      	ldr	r4, [pc, #36]	; (80028b8 <TIM_OC2_SetConfig+0x34>)
 8002892:	6845      	ldr	r5, [r0, #4]
 8002894:	6982      	ldr	r2, [r0, #24]
 8002896:	4014      	ands	r4, r2
 8002898:	680a      	ldr	r2, [r1, #0]
 800289a:	0212      	lsls	r2, r2, #8
 800289c:	4322      	orrs	r2, r4
 800289e:	2420      	movs	r4, #32
 80028a0:	43a3      	bics	r3, r4
 80028a2:	001c      	movs	r4, r3
 80028a4:	688b      	ldr	r3, [r1, #8]
 80028a6:	6045      	str	r5, [r0, #4]
 80028a8:	011b      	lsls	r3, r3, #4
 80028aa:	6182      	str	r2, [r0, #24]
 80028ac:	684a      	ldr	r2, [r1, #4]
 80028ae:	4323      	orrs	r3, r4
 80028b0:	6382      	str	r2, [r0, #56]	; 0x38
 80028b2:	6203      	str	r3, [r0, #32]
 80028b4:	bd30      	pop	{r4, r5, pc}
 80028b6:	46c0      	nop			; (mov r8, r8)
 80028b8:	ffff8cff 	.word	0xffff8cff

080028bc <TIM_CCxChannelCmd>:
 80028bc:	231f      	movs	r3, #31
 80028be:	b510      	push	{r4, lr}
 80028c0:	2401      	movs	r4, #1
 80028c2:	4019      	ands	r1, r3
 80028c4:	408c      	lsls	r4, r1
 80028c6:	408a      	lsls	r2, r1
 80028c8:	6a03      	ldr	r3, [r0, #32]
 80028ca:	43a3      	bics	r3, r4
 80028cc:	6203      	str	r3, [r0, #32]
 80028ce:	6a03      	ldr	r3, [r0, #32]
 80028d0:	431a      	orrs	r2, r3
 80028d2:	6202      	str	r2, [r0, #32]
 80028d4:	bd10      	pop	{r4, pc}
	...

080028d8 <HAL_TIM_OC_Start>:
 80028d8:	b510      	push	{r4, lr}
 80028da:	0003      	movs	r3, r0
 80028dc:	0004      	movs	r4, r0
 80028de:	2900      	cmp	r1, #0
 80028e0:	d105      	bne.n	80028ee <HAL_TIM_OC_Start+0x16>
 80028e2:	333a      	adds	r3, #58	; 0x3a
 80028e4:	2001      	movs	r0, #1
 80028e6:	781a      	ldrb	r2, [r3, #0]
 80028e8:	4282      	cmp	r2, r0
 80028ea:	d00a      	beq.n	8002902 <HAL_TIM_OC_Start+0x2a>
 80028ec:	bd10      	pop	{r4, pc}
 80028ee:	2904      	cmp	r1, #4
 80028f0:	d101      	bne.n	80028f6 <HAL_TIM_OC_Start+0x1e>
 80028f2:	333b      	adds	r3, #59	; 0x3b
 80028f4:	e7f6      	b.n	80028e4 <HAL_TIM_OC_Start+0xc>
 80028f6:	2908      	cmp	r1, #8
 80028f8:	d101      	bne.n	80028fe <HAL_TIM_OC_Start+0x26>
 80028fa:	333c      	adds	r3, #60	; 0x3c
 80028fc:	e7f2      	b.n	80028e4 <HAL_TIM_OC_Start+0xc>
 80028fe:	333d      	adds	r3, #61	; 0x3d
 8002900:	e7f0      	b.n	80028e4 <HAL_TIM_OC_Start+0xc>
 8002902:	2202      	movs	r2, #2
 8002904:	701a      	strb	r2, [r3, #0]
 8002906:	6820      	ldr	r0, [r4, #0]
 8002908:	2201      	movs	r2, #1
 800290a:	f7ff ffd7 	bl	80028bc <TIM_CCxChannelCmd>
 800290e:	2280      	movs	r2, #128	; 0x80
 8002910:	6823      	ldr	r3, [r4, #0]
 8002912:	05d2      	lsls	r2, r2, #23
 8002914:	4293      	cmp	r3, r2
 8002916:	d005      	beq.n	8002924 <HAL_TIM_OC_Start+0x4c>
 8002918:	4a0b      	ldr	r2, [pc, #44]	; (8002948 <HAL_TIM_OC_Start+0x70>)
 800291a:	4293      	cmp	r3, r2
 800291c:	d002      	beq.n	8002924 <HAL_TIM_OC_Start+0x4c>
 800291e:	4a0b      	ldr	r2, [pc, #44]	; (800294c <HAL_TIM_OC_Start+0x74>)
 8002920:	4293      	cmp	r3, r2
 8002922:	d10a      	bne.n	800293a <HAL_TIM_OC_Start+0x62>
 8002924:	2107      	movs	r1, #7
 8002926:	689a      	ldr	r2, [r3, #8]
 8002928:	2000      	movs	r0, #0
 800292a:	400a      	ands	r2, r1
 800292c:	2a06      	cmp	r2, #6
 800292e:	d0dd      	beq.n	80028ec <HAL_TIM_OC_Start+0x14>
 8002930:	2201      	movs	r2, #1
 8002932:	6819      	ldr	r1, [r3, #0]
 8002934:	430a      	orrs	r2, r1
 8002936:	601a      	str	r2, [r3, #0]
 8002938:	e7d8      	b.n	80028ec <HAL_TIM_OC_Start+0x14>
 800293a:	2201      	movs	r2, #1
 800293c:	6819      	ldr	r1, [r3, #0]
 800293e:	2000      	movs	r0, #0
 8002940:	430a      	orrs	r2, r1
 8002942:	601a      	str	r2, [r3, #0]
 8002944:	e7d2      	b.n	80028ec <HAL_TIM_OC_Start+0x14>
 8002946:	46c0      	nop			; (mov r8, r8)
 8002948:	40010800 	.word	0x40010800
 800294c:	40011400 	.word	0x40011400

08002950 <HAL_TIM_OC_Stop>:
 8002950:	b570      	push	{r4, r5, r6, lr}
 8002952:	0004      	movs	r4, r0
 8002954:	2200      	movs	r2, #0
 8002956:	6800      	ldr	r0, [r0, #0]
 8002958:	000d      	movs	r5, r1
 800295a:	f7ff ffaf 	bl	80028bc <TIM_CCxChannelCmd>
 800295e:	6823      	ldr	r3, [r4, #0]
 8002960:	4a0c      	ldr	r2, [pc, #48]	; (8002994 <HAL_TIM_OC_Stop+0x44>)
 8002962:	6a19      	ldr	r1, [r3, #32]
 8002964:	4211      	tst	r1, r2
 8002966:	d103      	bne.n	8002970 <HAL_TIM_OC_Stop+0x20>
 8002968:	2101      	movs	r1, #1
 800296a:	681a      	ldr	r2, [r3, #0]
 800296c:	438a      	bics	r2, r1
 800296e:	601a      	str	r2, [r3, #0]
 8002970:	2301      	movs	r3, #1
 8002972:	2d00      	cmp	r5, #0
 8002974:	d103      	bne.n	800297e <HAL_TIM_OC_Stop+0x2e>
 8002976:	343a      	adds	r4, #58	; 0x3a
 8002978:	2000      	movs	r0, #0
 800297a:	7023      	strb	r3, [r4, #0]
 800297c:	bd70      	pop	{r4, r5, r6, pc}
 800297e:	2d04      	cmp	r5, #4
 8002980:	d101      	bne.n	8002986 <HAL_TIM_OC_Stop+0x36>
 8002982:	343b      	adds	r4, #59	; 0x3b
 8002984:	e7f8      	b.n	8002978 <HAL_TIM_OC_Stop+0x28>
 8002986:	2d08      	cmp	r5, #8
 8002988:	d101      	bne.n	800298e <HAL_TIM_OC_Stop+0x3e>
 800298a:	343c      	adds	r4, #60	; 0x3c
 800298c:	e7f4      	b.n	8002978 <HAL_TIM_OC_Stop+0x28>
 800298e:	343d      	adds	r4, #61	; 0x3d
 8002990:	e7f2      	b.n	8002978 <HAL_TIM_OC_Stop+0x28>
 8002992:	46c0      	nop			; (mov r8, r8)
 8002994:	00001111 	.word	0x00001111

08002998 <HAL_TIM_PWM_Init>:
 8002998:	b570      	push	{r4, r5, r6, lr}
 800299a:	0004      	movs	r4, r0
 800299c:	2001      	movs	r0, #1
 800299e:	2c00      	cmp	r4, #0
 80029a0:	d01d      	beq.n	80029de <HAL_TIM_PWM_Init+0x46>
 80029a2:	0025      	movs	r5, r4
 80029a4:	3539      	adds	r5, #57	; 0x39
 80029a6:	782b      	ldrb	r3, [r5, #0]
 80029a8:	b2da      	uxtb	r2, r3
 80029aa:	2b00      	cmp	r3, #0
 80029ac:	d105      	bne.n	80029ba <HAL_TIM_PWM_Init+0x22>
 80029ae:	0023      	movs	r3, r4
 80029b0:	3338      	adds	r3, #56	; 0x38
 80029b2:	0020      	movs	r0, r4
 80029b4:	701a      	strb	r2, [r3, #0]
 80029b6:	f7fe fcdb 	bl	8001370 <HAL_TIM_PWM_MspInit>
 80029ba:	2302      	movs	r3, #2
 80029bc:	702b      	strb	r3, [r5, #0]
 80029be:	6820      	ldr	r0, [r4, #0]
 80029c0:	1d21      	adds	r1, r4, #4
 80029c2:	f7ff ff1b 	bl	80027fc <TIM_Base_SetConfig>
 80029c6:	0022      	movs	r2, r4
 80029c8:	2301      	movs	r3, #1
 80029ca:	2000      	movs	r0, #0
 80029cc:	323e      	adds	r2, #62	; 0x3e
 80029ce:	7013      	strb	r3, [r2, #0]
 80029d0:	343d      	adds	r4, #61	; 0x3d
 80029d2:	3a04      	subs	r2, #4
 80029d4:	7013      	strb	r3, [r2, #0]
 80029d6:	7053      	strb	r3, [r2, #1]
 80029d8:	7093      	strb	r3, [r2, #2]
 80029da:	7023      	strb	r3, [r4, #0]
 80029dc:	702b      	strb	r3, [r5, #0]
 80029de:	bd70      	pop	{r4, r5, r6, pc}

080029e0 <HAL_TIM_PWM_Start>:
 80029e0:	b510      	push	{r4, lr}
 80029e2:	f7ff ff79 	bl	80028d8 <HAL_TIM_OC_Start>
 80029e6:	bd10      	pop	{r4, pc}

080029e8 <HAL_TIM_PWM_Stop>:
 80029e8:	b510      	push	{r4, lr}
 80029ea:	f7ff ffb1 	bl	8002950 <HAL_TIM_OC_Stop>
 80029ee:	bd10      	pop	{r4, pc}

080029f0 <HAL_TIM_PWM_ConfigChannel>:
 80029f0:	b5f8      	push	{r3, r4, r5, r6, r7, lr}
 80029f2:	0005      	movs	r5, r0
 80029f4:	3538      	adds	r5, #56	; 0x38
 80029f6:	782b      	ldrb	r3, [r5, #0]
 80029f8:	0007      	movs	r7, r0
 80029fa:	000c      	movs	r4, r1
 80029fc:	0016      	movs	r6, r2
 80029fe:	2002      	movs	r0, #2
 8002a00:	2b01      	cmp	r3, #1
 8002a02:	d00a      	beq.n	8002a1a <HAL_TIM_PWM_ConfigChannel+0x2a>
 8002a04:	3801      	subs	r0, #1
 8002a06:	7028      	strb	r0, [r5, #0]
 8002a08:	2a08      	cmp	r2, #8
 8002a0a:	d050      	beq.n	8002aae <HAL_TIM_PWM_ConfigChannel+0xbe>
 8002a0c:	d806      	bhi.n	8002a1c <HAL_TIM_PWM_ConfigChannel+0x2c>
 8002a0e:	2a00      	cmp	r2, #0
 8002a10:	d02a      	beq.n	8002a68 <HAL_TIM_PWM_ConfigChannel+0x78>
 8002a12:	2a04      	cmp	r2, #4
 8002a14:	d03a      	beq.n	8002a8c <HAL_TIM_PWM_ConfigChannel+0x9c>
 8002a16:	2300      	movs	r3, #0
 8002a18:	702b      	strb	r3, [r5, #0]
 8002a1a:	bdf8      	pop	{r3, r4, r5, r6, r7, pc}
 8002a1c:	2a0c      	cmp	r2, #12
 8002a1e:	d1fa      	bne.n	8002a16 <HAL_TIM_PWM_ConfigChannel+0x26>
 8002a20:	683b      	ldr	r3, [r7, #0]
 8002a22:	4934      	ldr	r1, [pc, #208]	; (8002af4 <HAL_TIM_PWM_ConfigChannel+0x104>)
 8002a24:	6a1a      	ldr	r2, [r3, #32]
 8002a26:	4834      	ldr	r0, [pc, #208]	; (8002af8 <HAL_TIM_PWM_ConfigChannel+0x108>)
 8002a28:	400a      	ands	r2, r1
 8002a2a:	621a      	str	r2, [r3, #32]
 8002a2c:	6a1a      	ldr	r2, [r3, #32]
 8002a2e:	685e      	ldr	r6, [r3, #4]
 8002a30:	69d9      	ldr	r1, [r3, #28]
 8002a32:	4001      	ands	r1, r0
 8002a34:	6820      	ldr	r0, [r4, #0]
 8002a36:	0207      	lsls	r7, r0, #8
 8002a38:	4830      	ldr	r0, [pc, #192]	; (8002afc <HAL_TIM_PWM_ConfigChannel+0x10c>)
 8002a3a:	4339      	orrs	r1, r7
 8002a3c:	4010      	ands	r0, r2
 8002a3e:	68a2      	ldr	r2, [r4, #8]
 8002a40:	605e      	str	r6, [r3, #4]
 8002a42:	0312      	lsls	r2, r2, #12
 8002a44:	61d9      	str	r1, [r3, #28]
 8002a46:	6861      	ldr	r1, [r4, #4]
 8002a48:	4302      	orrs	r2, r0
 8002a4a:	6419      	str	r1, [r3, #64]	; 0x40
 8002a4c:	621a      	str	r2, [r3, #32]
 8002a4e:	2280      	movs	r2, #128	; 0x80
 8002a50:	69d9      	ldr	r1, [r3, #28]
 8002a52:	0112      	lsls	r2, r2, #4
 8002a54:	430a      	orrs	r2, r1
 8002a56:	61da      	str	r2, [r3, #28]
 8002a58:	69da      	ldr	r2, [r3, #28]
 8002a5a:	4929      	ldr	r1, [pc, #164]	; (8002b00 <HAL_TIM_PWM_ConfigChannel+0x110>)
 8002a5c:	400a      	ands	r2, r1
 8002a5e:	61da      	str	r2, [r3, #28]
 8002a60:	68e2      	ldr	r2, [r4, #12]
 8002a62:	69d9      	ldr	r1, [r3, #28]
 8002a64:	0212      	lsls	r2, r2, #8
 8002a66:	e041      	b.n	8002aec <HAL_TIM_PWM_ConfigChannel+0xfc>
 8002a68:	6838      	ldr	r0, [r7, #0]
 8002a6a:	f7ff fef5 	bl	8002858 <TIM_OC1_SetConfig>
 8002a6e:	2208      	movs	r2, #8
 8002a70:	683b      	ldr	r3, [r7, #0]
 8002a72:	6999      	ldr	r1, [r3, #24]
 8002a74:	430a      	orrs	r2, r1
 8002a76:	2104      	movs	r1, #4
 8002a78:	619a      	str	r2, [r3, #24]
 8002a7a:	699a      	ldr	r2, [r3, #24]
 8002a7c:	438a      	bics	r2, r1
 8002a7e:	619a      	str	r2, [r3, #24]
 8002a80:	699a      	ldr	r2, [r3, #24]
 8002a82:	68e1      	ldr	r1, [r4, #12]
 8002a84:	430a      	orrs	r2, r1
 8002a86:	619a      	str	r2, [r3, #24]
 8002a88:	2000      	movs	r0, #0
 8002a8a:	e7c4      	b.n	8002a16 <HAL_TIM_PWM_ConfigChannel+0x26>
 8002a8c:	6838      	ldr	r0, [r7, #0]
 8002a8e:	f7ff fef9 	bl	8002884 <TIM_OC2_SetConfig>
 8002a92:	2280      	movs	r2, #128	; 0x80
 8002a94:	683b      	ldr	r3, [r7, #0]
 8002a96:	0112      	lsls	r2, r2, #4
 8002a98:	6999      	ldr	r1, [r3, #24]
 8002a9a:	430a      	orrs	r2, r1
 8002a9c:	619a      	str	r2, [r3, #24]
 8002a9e:	699a      	ldr	r2, [r3, #24]
 8002aa0:	4917      	ldr	r1, [pc, #92]	; (8002b00 <HAL_TIM_PWM_ConfigChannel+0x110>)
 8002aa2:	400a      	ands	r2, r1
 8002aa4:	619a      	str	r2, [r3, #24]
 8002aa6:	68e2      	ldr	r2, [r4, #12]
 8002aa8:	6999      	ldr	r1, [r3, #24]
 8002aaa:	0212      	lsls	r2, r2, #8
 8002aac:	e7ea      	b.n	8002a84 <HAL_TIM_PWM_ConfigChannel+0x94>
 8002aae:	2073      	movs	r0, #115	; 0x73
 8002ab0:	683b      	ldr	r3, [r7, #0]
 8002ab2:	4914      	ldr	r1, [pc, #80]	; (8002b04 <HAL_TIM_PWM_ConfigChannel+0x114>)
 8002ab4:	6a1a      	ldr	r2, [r3, #32]
 8002ab6:	400a      	ands	r2, r1
 8002ab8:	621a      	str	r2, [r3, #32]
 8002aba:	6a1a      	ldr	r2, [r3, #32]
 8002abc:	685f      	ldr	r7, [r3, #4]
 8002abe:	69d9      	ldr	r1, [r3, #28]
 8002ac0:	4381      	bics	r1, r0
 8002ac2:	6820      	ldr	r0, [r4, #0]
 8002ac4:	4301      	orrs	r1, r0
 8002ac6:	4810      	ldr	r0, [pc, #64]	; (8002b08 <HAL_TIM_PWM_ConfigChannel+0x118>)
 8002ac8:	4010      	ands	r0, r2
 8002aca:	68a2      	ldr	r2, [r4, #8]
 8002acc:	605f      	str	r7, [r3, #4]
 8002ace:	61d9      	str	r1, [r3, #28]
 8002ad0:	6861      	ldr	r1, [r4, #4]
 8002ad2:	0212      	lsls	r2, r2, #8
 8002ad4:	63d9      	str	r1, [r3, #60]	; 0x3c
 8002ad6:	2104      	movs	r1, #4
 8002ad8:	4302      	orrs	r2, r0
 8002ada:	621a      	str	r2, [r3, #32]
 8002adc:	69da      	ldr	r2, [r3, #28]
 8002ade:	4316      	orrs	r6, r2
 8002ae0:	61de      	str	r6, [r3, #28]
 8002ae2:	69da      	ldr	r2, [r3, #28]
 8002ae4:	438a      	bics	r2, r1
 8002ae6:	61da      	str	r2, [r3, #28]
 8002ae8:	69da      	ldr	r2, [r3, #28]
 8002aea:	68e1      	ldr	r1, [r4, #12]
 8002aec:	430a      	orrs	r2, r1
 8002aee:	61da      	str	r2, [r3, #28]
 8002af0:	e7ca      	b.n	8002a88 <HAL_TIM_PWM_ConfigChannel+0x98>
 8002af2:	46c0      	nop			; (mov r8, r8)
 8002af4:	ffffefff 	.word	0xffffefff
 8002af8:	ffff8cff 	.word	0xffff8cff
 8002afc:	ffffdfff 	.word	0xffffdfff
 8002b00:	fffffbff 	.word	0xfffffbff
 8002b04:	fffffeff 	.word	0xfffffeff
 8002b08:	fffffdff 	.word	0xfffffdff

08002b0c <HAL_TIMEx_MasterConfigSynchronization>:
 8002b0c:	b570      	push	{r4, r5, r6, lr}
 8002b0e:	0004      	movs	r4, r0
 8002b10:	2202      	movs	r2, #2
 8002b12:	3438      	adds	r4, #56	; 0x38
 8002b14:	7825      	ldrb	r5, [r4, #0]
 8002b16:	0003      	movs	r3, r0
 8002b18:	0010      	movs	r0, r2
 8002b1a:	2d01      	cmp	r5, #1
 8002b1c:	d01d      	beq.n	8002b5a <HAL_TIMEx_MasterConfigSynchronization+0x4e>
 8002b1e:	001d      	movs	r5, r3
 8002b20:	2670      	movs	r6, #112	; 0x70
 8002b22:	3539      	adds	r5, #57	; 0x39
 8002b24:	702a      	strb	r2, [r5, #0]
 8002b26:	681b      	ldr	r3, [r3, #0]
 8002b28:	6858      	ldr	r0, [r3, #4]
 8002b2a:	689a      	ldr	r2, [r3, #8]
 8002b2c:	43b0      	bics	r0, r6
 8002b2e:	680e      	ldr	r6, [r1, #0]
 8002b30:	4330      	orrs	r0, r6
 8002b32:	6058      	str	r0, [r3, #4]
 8002b34:	2080      	movs	r0, #128	; 0x80
 8002b36:	05c0      	lsls	r0, r0, #23
 8002b38:	4283      	cmp	r3, r0
 8002b3a:	d005      	beq.n	8002b48 <HAL_TIMEx_MasterConfigSynchronization+0x3c>
 8002b3c:	4807      	ldr	r0, [pc, #28]	; (8002b5c <HAL_TIMEx_MasterConfigSynchronization+0x50>)
 8002b3e:	4283      	cmp	r3, r0
 8002b40:	d002      	beq.n	8002b48 <HAL_TIMEx_MasterConfigSynchronization+0x3c>
 8002b42:	4807      	ldr	r0, [pc, #28]	; (8002b60 <HAL_TIMEx_MasterConfigSynchronization+0x54>)
 8002b44:	4283      	cmp	r3, r0
 8002b46:	d104      	bne.n	8002b52 <HAL_TIMEx_MasterConfigSynchronization+0x46>
 8002b48:	2080      	movs	r0, #128	; 0x80
 8002b4a:	6849      	ldr	r1, [r1, #4]
 8002b4c:	4382      	bics	r2, r0
 8002b4e:	430a      	orrs	r2, r1
 8002b50:	609a      	str	r2, [r3, #8]
 8002b52:	2301      	movs	r3, #1
 8002b54:	2000      	movs	r0, #0
 8002b56:	702b      	strb	r3, [r5, #0]
 8002b58:	7020      	strb	r0, [r4, #0]
 8002b5a:	bd70      	pop	{r4, r5, r6, pc}
 8002b5c:	40010800 	.word	0x40010800
 8002b60:	40011400 	.word	0x40011400

08002b64 <UART_EndRxTransfer>:
 8002b64:	b530      	push	{r4, r5, lr}
 8002b66:	f3ef 8410 	mrs	r4, PRIMASK
 8002b6a:	2201      	movs	r2, #1
 8002b6c:	f382 8810 	msr	PRIMASK, r2
 8002b70:	6801      	ldr	r1, [r0, #0]
 8002b72:	4d12      	ldr	r5, [pc, #72]	; (8002bbc <UART_EndRxTransfer+0x58>)
 8002b74:	680b      	ldr	r3, [r1, #0]
 8002b76:	402b      	ands	r3, r5
 8002b78:	600b      	str	r3, [r1, #0]
 8002b7a:	f384 8810 	msr	PRIMASK, r4
 8002b7e:	f3ef 8410 	mrs	r4, PRIMASK
 8002b82:	f382 8810 	msr	PRIMASK, r2
 8002b86:	6801      	ldr	r1, [r0, #0]
 8002b88:	688b      	ldr	r3, [r1, #8]
 8002b8a:	4393      	bics	r3, r2
 8002b8c:	608b      	str	r3, [r1, #8]
 8002b8e:	f384 8810 	msr	PRIMASK, r4
 8002b92:	6e03      	ldr	r3, [r0, #96]	; 0x60
 8002b94:	4293      	cmp	r3, r2
 8002b96:	d10a      	bne.n	8002bae <UART_EndRxTransfer+0x4a>
 8002b98:	f3ef 8110 	mrs	r1, PRIMASK
 8002b9c:	f383 8810 	msr	PRIMASK, r3
 8002ba0:	2410      	movs	r4, #16
 8002ba2:	6802      	ldr	r2, [r0, #0]
 8002ba4:	6813      	ldr	r3, [r2, #0]
 8002ba6:	43a3      	bics	r3, r4
 8002ba8:	6013      	str	r3, [r2, #0]
 8002baa:	f381 8810 	msr	PRIMASK, r1
 8002bae:	2220      	movs	r2, #32
 8002bb0:	1d03      	adds	r3, r0, #4
 8002bb2:	67da      	str	r2, [r3, #124]	; 0x7c
 8002bb4:	2300      	movs	r3, #0
 8002bb6:	6603      	str	r3, [r0, #96]	; 0x60
 8002bb8:	6683      	str	r3, [r0, #104]	; 0x68
 8002bba:	bd30      	pop	{r4, r5, pc}
 8002bbc:	fffffedf 	.word	0xfffffedf

08002bc0 <UART_SetConfig>:
 8002bc0:	b5f8      	push	{r3, r4, r5, r6, r7, lr}
 8002bc2:	0004      	movs	r4, r0
 8002bc4:	6925      	ldr	r5, [r4, #16]
 8002bc6:	68a1      	ldr	r1, [r4, #8]
 8002bc8:	6802      	ldr	r2, [r0, #0]
 8002bca:	4329      	orrs	r1, r5
 8002bcc:	6965      	ldr	r5, [r4, #20]
 8002bce:	69c3      	ldr	r3, [r0, #28]
 8002bd0:	4329      	orrs	r1, r5
 8002bd2:	6810      	ldr	r0, [r2, #0]
 8002bd4:	4d72      	ldr	r5, [pc, #456]	; (8002da0 <UART_SetConfig+0x1e0>)
 8002bd6:	4319      	orrs	r1, r3
 8002bd8:	4028      	ands	r0, r5
 8002bda:	4301      	orrs	r1, r0
 8002bdc:	6011      	str	r1, [r2, #0]
 8002bde:	6851      	ldr	r1, [r2, #4]
 8002be0:	4870      	ldr	r0, [pc, #448]	; (8002da4 <UART_SetConfig+0x1e4>)
 8002be2:	4d71      	ldr	r5, [pc, #452]	; (8002da8 <UART_SetConfig+0x1e8>)
 8002be4:	4001      	ands	r1, r0
 8002be6:	68e0      	ldr	r0, [r4, #12]
 8002be8:	4301      	orrs	r1, r0
 8002bea:	6051      	str	r1, [r2, #4]
 8002bec:	69a0      	ldr	r0, [r4, #24]
 8002bee:	42aa      	cmp	r2, r5
 8002bf0:	d001      	beq.n	8002bf6 <UART_SetConfig+0x36>
 8002bf2:	6a21      	ldr	r1, [r4, #32]
 8002bf4:	4308      	orrs	r0, r1
 8002bf6:	6891      	ldr	r1, [r2, #8]
 8002bf8:	4e6c      	ldr	r6, [pc, #432]	; (8002dac <UART_SetConfig+0x1ec>)
 8002bfa:	4031      	ands	r1, r6
 8002bfc:	4301      	orrs	r1, r0
 8002bfe:	6091      	str	r1, [r2, #8]
 8002c00:	496b      	ldr	r1, [pc, #428]	; (8002db0 <UART_SetConfig+0x1f0>)
 8002c02:	428a      	cmp	r2, r1
 8002c04:	d10f      	bne.n	8002c26 <UART_SetConfig+0x66>
 8002c06:	2103      	movs	r1, #3
 8002c08:	4a6a      	ldr	r2, [pc, #424]	; (8002db4 <UART_SetConfig+0x1f4>)
 8002c0a:	6cd2      	ldr	r2, [r2, #76]	; 0x4c
 8002c0c:	400a      	ands	r2, r1
 8002c0e:	3a01      	subs	r2, #1
 8002c10:	4969      	ldr	r1, [pc, #420]	; (8002db8 <UART_SetConfig+0x1f8>)
 8002c12:	2a02      	cmp	r2, #2
 8002c14:	d90f      	bls.n	8002c36 <UART_SetConfig+0x76>
 8002c16:	2280      	movs	r2, #128	; 0x80
 8002c18:	0212      	lsls	r2, r2, #8
 8002c1a:	4293      	cmp	r3, r2
 8002c1c:	d100      	bne.n	8002c20 <UART_SetConfig+0x60>
 8002c1e:	e069      	b.n	8002cf4 <UART_SetConfig+0x134>
 8002c20:	f7ff fd06 	bl	8002630 <HAL_RCC_GetPCLK2Freq>
 8002c24:	e09c      	b.n	8002d60 <UART_SetConfig+0x1a0>
 8002c26:	4965      	ldr	r1, [pc, #404]	; (8002dbc <UART_SetConfig+0x1fc>)
 8002c28:	428a      	cmp	r2, r1
 8002c2a:	d113      	bne.n	8002c54 <UART_SetConfig+0x94>
 8002c2c:	210c      	movs	r1, #12
 8002c2e:	4a61      	ldr	r2, [pc, #388]	; (8002db4 <UART_SetConfig+0x1f4>)
 8002c30:	6cd2      	ldr	r2, [r2, #76]	; 0x4c
 8002c32:	400a      	ands	r2, r1
 8002c34:	4962      	ldr	r1, [pc, #392]	; (8002dc0 <UART_SetConfig+0x200>)
 8002c36:	5c88      	ldrb	r0, [r1, r2]
 8002c38:	2280      	movs	r2, #128	; 0x80
 8002c3a:	0212      	lsls	r2, r2, #8
 8002c3c:	4293      	cmp	r3, r2
 8002c3e:	d000      	beq.n	8002c42 <UART_SetConfig+0x82>
 8002c40:	e07f      	b.n	8002d42 <UART_SetConfig+0x182>
 8002c42:	2808      	cmp	r0, #8
 8002c44:	d818      	bhi.n	8002c78 <UART_SetConfig+0xb8>
 8002c46:	f7fd fa67 	bl	8000118 <__gnu_thumb1_case_uqi>
 8002c4a:	5550      	.short	0x5550
 8002c4c:	17791758 	.word	0x17791758
 8002c50:	1717      	.short	0x1717
 8002c52:	63          	.byte	0x63
 8002c53:	00          	.byte	0x00
 8002c54:	42aa      	cmp	r2, r5
 8002c56:	d10f      	bne.n	8002c78 <UART_SetConfig+0xb8>
 8002c58:	21c0      	movs	r1, #192	; 0xc0
 8002c5a:	2080      	movs	r0, #128	; 0x80
 8002c5c:	4a55      	ldr	r2, [pc, #340]	; (8002db4 <UART_SetConfig+0x1f4>)
 8002c5e:	0109      	lsls	r1, r1, #4
 8002c60:	6cd3      	ldr	r3, [r2, #76]	; 0x4c
 8002c62:	0100      	lsls	r0, r0, #4
 8002c64:	400b      	ands	r3, r1
 8002c66:	4283      	cmp	r3, r0
 8002c68:	d016      	beq.n	8002c98 <UART_SetConfig+0xd8>
 8002c6a:	d807      	bhi.n	8002c7c <UART_SetConfig+0xbc>
 8002c6c:	2b00      	cmp	r3, #0
 8002c6e:	d00a      	beq.n	8002c86 <UART_SetConfig+0xc6>
 8002c70:	2280      	movs	r2, #128	; 0x80
 8002c72:	00d2      	lsls	r2, r2, #3
 8002c74:	4293      	cmp	r3, r2
 8002c76:	d035      	beq.n	8002ce4 <UART_SetConfig+0x124>
 8002c78:	2001      	movs	r0, #1
 8002c7a:	e009      	b.n	8002c90 <UART_SetConfig+0xd0>
 8002c7c:	428b      	cmp	r3, r1
 8002c7e:	d1fb      	bne.n	8002c78 <UART_SetConfig+0xb8>
 8002c80:	2080      	movs	r0, #128	; 0x80
 8002c82:	0200      	lsls	r0, r0, #8
 8002c84:	e012      	b.n	8002cac <UART_SetConfig+0xec>
 8002c86:	f7ff fcc3 	bl	8002610 <HAL_RCC_GetPCLK1Freq>
 8002c8a:	2800      	cmp	r0, #0
 8002c8c:	d10e      	bne.n	8002cac <UART_SetConfig+0xec>
 8002c8e:	2000      	movs	r0, #0
 8002c90:	2300      	movs	r3, #0
 8002c92:	66a3      	str	r3, [r4, #104]	; 0x68
 8002c94:	66e3      	str	r3, [r4, #108]	; 0x6c
 8002c96:	bdf8      	pop	{r3, r4, r5, r6, r7, pc}
 8002c98:	2310      	movs	r3, #16
 8002c9a:	6810      	ldr	r0, [r2, #0]
 8002c9c:	4018      	ands	r0, r3
 8002c9e:	4243      	negs	r3, r0
 8002ca0:	4158      	adcs	r0, r3
 8002ca2:	4b48      	ldr	r3, [pc, #288]	; (8002dc4 <UART_SetConfig+0x204>)
 8002ca4:	4240      	negs	r0, r0
 8002ca6:	4018      	ands	r0, r3
 8002ca8:	4b47      	ldr	r3, [pc, #284]	; (8002dc8 <UART_SetConfig+0x208>)
 8002caa:	18c0      	adds	r0, r0, r3
 8002cac:	2203      	movs	r2, #3
 8002cae:	6863      	ldr	r3, [r4, #4]
 8002cb0:	435a      	muls	r2, r3
 8002cb2:	4282      	cmp	r2, r0
 8002cb4:	d8e0      	bhi.n	8002c78 <UART_SetConfig+0xb8>
 8002cb6:	031a      	lsls	r2, r3, #12
 8002cb8:	4282      	cmp	r2, r0
 8002cba:	d3dd      	bcc.n	8002c78 <UART_SetConfig+0xb8>
 8002cbc:	2700      	movs	r7, #0
 8002cbe:	0e02      	lsrs	r2, r0, #24
 8002cc0:	0201      	lsls	r1, r0, #8
 8002cc2:	085e      	lsrs	r6, r3, #1
 8002cc4:	1989      	adds	r1, r1, r6
 8002cc6:	417a      	adcs	r2, r7
 8002cc8:	0008      	movs	r0, r1
 8002cca:	0011      	movs	r1, r2
 8002ccc:	001a      	movs	r2, r3
 8002cce:	003b      	movs	r3, r7
 8002cd0:	f7fd fbac 	bl	800042c <__aeabi_uldivmod>
 8002cd4:	4b3d      	ldr	r3, [pc, #244]	; (8002dcc <UART_SetConfig+0x20c>)
 8002cd6:	18c2      	adds	r2, r0, r3
 8002cd8:	4b3d      	ldr	r3, [pc, #244]	; (8002dd0 <UART_SetConfig+0x210>)
 8002cda:	429a      	cmp	r2, r3
 8002cdc:	d8cc      	bhi.n	8002c78 <UART_SetConfig+0xb8>
 8002cde:	6823      	ldr	r3, [r4, #0]
 8002ce0:	60d8      	str	r0, [r3, #12]
 8002ce2:	e7d4      	b.n	8002c8e <UART_SetConfig+0xce>
 8002ce4:	f7ff f8fc 	bl	8001ee0 <HAL_RCC_GetSysClockFreq>
 8002ce8:	e7cf      	b.n	8002c8a <UART_SetConfig+0xca>
 8002cea:	f7ff fc91 	bl	8002610 <HAL_RCC_GetPCLK1Freq>
 8002cee:	1e03      	subs	r3, r0, #0
 8002cf0:	d0cd      	beq.n	8002c8e <UART_SetConfig+0xce>
 8002cf2:	e00d      	b.n	8002d10 <UART_SetConfig+0x150>
 8002cf4:	f7ff fc9c 	bl	8002630 <HAL_RCC_GetPCLK2Freq>
 8002cf8:	e7f9      	b.n	8002cee <UART_SetConfig+0x12e>
 8002cfa:	4b2e      	ldr	r3, [pc, #184]	; (8002db4 <UART_SetConfig+0x1f4>)
 8002cfc:	4a32      	ldr	r2, [pc, #200]	; (8002dc8 <UART_SetConfig+0x208>)
 8002cfe:	6818      	ldr	r0, [r3, #0]
 8002d00:	2310      	movs	r3, #16
 8002d02:	4018      	ands	r0, r3
 8002d04:	4243      	negs	r3, r0
 8002d06:	4158      	adcs	r0, r3
 8002d08:	4b2e      	ldr	r3, [pc, #184]	; (8002dc4 <UART_SetConfig+0x204>)
 8002d0a:	4240      	negs	r0, r0
 8002d0c:	4003      	ands	r3, r0
 8002d0e:	189b      	adds	r3, r3, r2
 8002d10:	0058      	lsls	r0, r3, #1
 8002d12:	6863      	ldr	r3, [r4, #4]
 8002d14:	6861      	ldr	r1, [r4, #4]
 8002d16:	085b      	lsrs	r3, r3, #1
 8002d18:	18c0      	adds	r0, r0, r3
 8002d1a:	f7fd fa11 	bl	8000140 <__udivsi3>
 8002d1e:	0002      	movs	r2, r0
 8002d20:	4b2c      	ldr	r3, [pc, #176]	; (8002dd4 <UART_SetConfig+0x214>)
 8002d22:	3a10      	subs	r2, #16
 8002d24:	429a      	cmp	r2, r3
 8002d26:	d8a7      	bhi.n	8002c78 <UART_SetConfig+0xb8>
 8002d28:	230f      	movs	r3, #15
 8002d2a:	0002      	movs	r2, r0
 8002d2c:	0700      	lsls	r0, r0, #28
 8002d2e:	439a      	bics	r2, r3
 8002d30:	b293      	uxth	r3, r2
 8002d32:	0f40      	lsrs	r0, r0, #29
 8002d34:	6822      	ldr	r2, [r4, #0]
 8002d36:	4318      	orrs	r0, r3
 8002d38:	60d0      	str	r0, [r2, #12]
 8002d3a:	e7a8      	b.n	8002c8e <UART_SetConfig+0xce>
 8002d3c:	f7ff f8d0 	bl	8001ee0 <HAL_RCC_GetSysClockFreq>
 8002d40:	e7d5      	b.n	8002cee <UART_SetConfig+0x12e>
 8002d42:	2808      	cmp	r0, #8
 8002d44:	d898      	bhi.n	8002c78 <UART_SetConfig+0xb8>
 8002d46:	f7fd f9f1 	bl	800012c <__gnu_thumb1_case_shi>
 8002d4a:	0009      	.short	0x0009
 8002d4c:	000fff6b 	.word	0x000fff6b
 8002d50:	0024ff97 	.word	0x0024ff97
 8002d54:	ff97ff97 	.word	0xff97ff97
 8002d58:	0027ff97 	.word	0x0027ff97
 8002d5c:	f7ff fc58 	bl	8002610 <HAL_RCC_GetPCLK1Freq>
 8002d60:	2800      	cmp	r0, #0
 8002d62:	d100      	bne.n	8002d66 <UART_SetConfig+0x1a6>
 8002d64:	e793      	b.n	8002c8e <UART_SetConfig+0xce>
 8002d66:	e00a      	b.n	8002d7e <UART_SetConfig+0x1be>
 8002d68:	4b12      	ldr	r3, [pc, #72]	; (8002db4 <UART_SetConfig+0x1f4>)
 8002d6a:	6818      	ldr	r0, [r3, #0]
 8002d6c:	2310      	movs	r3, #16
 8002d6e:	4018      	ands	r0, r3
 8002d70:	4243      	negs	r3, r0
 8002d72:	4158      	adcs	r0, r3
 8002d74:	4b13      	ldr	r3, [pc, #76]	; (8002dc4 <UART_SetConfig+0x204>)
 8002d76:	4240      	negs	r0, r0
 8002d78:	4018      	ands	r0, r3
 8002d7a:	4b13      	ldr	r3, [pc, #76]	; (8002dc8 <UART_SetConfig+0x208>)
 8002d7c:	18c0      	adds	r0, r0, r3
 8002d7e:	6863      	ldr	r3, [r4, #4]
 8002d80:	6861      	ldr	r1, [r4, #4]
 8002d82:	085b      	lsrs	r3, r3, #1
 8002d84:	1818      	adds	r0, r3, r0
 8002d86:	f7fd f9db 	bl	8000140 <__udivsi3>
 8002d8a:	0002      	movs	r2, r0
 8002d8c:	4b11      	ldr	r3, [pc, #68]	; (8002dd4 <UART_SetConfig+0x214>)
 8002d8e:	3a10      	subs	r2, #16
 8002d90:	e7a3      	b.n	8002cda <UART_SetConfig+0x11a>
 8002d92:	f7ff f8a5 	bl	8001ee0 <HAL_RCC_GetSysClockFreq>
 8002d96:	e7e3      	b.n	8002d60 <UART_SetConfig+0x1a0>
 8002d98:	2080      	movs	r0, #128	; 0x80
 8002d9a:	0200      	lsls	r0, r0, #8
 8002d9c:	e7ef      	b.n	8002d7e <UART_SetConfig+0x1be>
 8002d9e:	46c0      	nop			; (mov r8, r8)
 8002da0:	efff69f3 	.word	0xefff69f3
 8002da4:	ffffcfff 	.word	0xffffcfff
 8002da8:	40004800 	.word	0x40004800
 8002dac:	fffff4ff 	.word	0xfffff4ff
 8002db0:	40013800 	.word	0x40013800
 8002db4:	40021000 	.word	0x40021000
 8002db8:	08003e77 	.word	0x08003e77
 8002dbc:	40004400 	.word	0x40004400
 8002dc0:	08003e7a 	.word	0x08003e7a
 8002dc4:	00b71b00 	.word	0x00b71b00
 8002dc8:	003d0900 	.word	0x003d0900
 8002dcc:	fffffd00 	.word	0xfffffd00
 8002dd0:	000ffcff 	.word	0x000ffcff
 8002dd4:	0000ffef 	.word	0x0000ffef

08002dd8 <UART_AdvFeatureConfig>:
 8002dd8:	6a43      	ldr	r3, [r0, #36]	; 0x24
 8002dda:	b530      	push	{r4, r5, lr}
 8002ddc:	07da      	lsls	r2, r3, #31
 8002dde:	d506      	bpl.n	8002dee <UART_AdvFeatureConfig+0x16>
 8002de0:	6801      	ldr	r1, [r0, #0]
 8002de2:	4c28      	ldr	r4, [pc, #160]	; (8002e84 <UART_AdvFeatureConfig+0xac>)
 8002de4:	684a      	ldr	r2, [r1, #4]
 8002de6:	4022      	ands	r2, r4
 8002de8:	6a84      	ldr	r4, [r0, #40]	; 0x28
 8002dea:	4322      	orrs	r2, r4
 8002dec:	604a      	str	r2, [r1, #4]
 8002dee:	079a      	lsls	r2, r3, #30
 8002df0:	d506      	bpl.n	8002e00 <UART_AdvFeatureConfig+0x28>
 8002df2:	6801      	ldr	r1, [r0, #0]
 8002df4:	4c24      	ldr	r4, [pc, #144]	; (8002e88 <UART_AdvFeatureConfig+0xb0>)
 8002df6:	684a      	ldr	r2, [r1, #4]
 8002df8:	4022      	ands	r2, r4
 8002dfa:	6ac4      	ldr	r4, [r0, #44]	; 0x2c
 8002dfc:	4322      	orrs	r2, r4
 8002dfe:	604a      	str	r2, [r1, #4]
 8002e00:	075a      	lsls	r2, r3, #29
 8002e02:	d506      	bpl.n	8002e12 <UART_AdvFeatureConfig+0x3a>
 8002e04:	6801      	ldr	r1, [r0, #0]
 8002e06:	4c21      	ldr	r4, [pc, #132]	; (8002e8c <UART_AdvFeatureConfig+0xb4>)
 8002e08:	684a      	ldr	r2, [r1, #4]
 8002e0a:	4022      	ands	r2, r4
 8002e0c:	6b04      	ldr	r4, [r0, #48]	; 0x30
 8002e0e:	4322      	orrs	r2, r4
 8002e10:	604a      	str	r2, [r1, #4]
 8002e12:	071a      	lsls	r2, r3, #28
 8002e14:	d506      	bpl.n	8002e24 <UART_AdvFeatureConfig+0x4c>
 8002e16:	6801      	ldr	r1, [r0, #0]
 8002e18:	4c1d      	ldr	r4, [pc, #116]	; (8002e90 <UART_AdvFeatureConfig+0xb8>)
 8002e1a:	684a      	ldr	r2, [r1, #4]
 8002e1c:	4022      	ands	r2, r4
 8002e1e:	6b44      	ldr	r4, [r0, #52]	; 0x34
 8002e20:	4322      	orrs	r2, r4
 8002e22:	604a      	str	r2, [r1, #4]
 8002e24:	06da      	lsls	r2, r3, #27
 8002e26:	d506      	bpl.n	8002e36 <UART_AdvFeatureConfig+0x5e>
 8002e28:	6801      	ldr	r1, [r0, #0]
 8002e2a:	4c1a      	ldr	r4, [pc, #104]	; (8002e94 <UART_AdvFeatureConfig+0xbc>)
 8002e2c:	688a      	ldr	r2, [r1, #8]
 8002e2e:	4022      	ands	r2, r4
 8002e30:	6b84      	ldr	r4, [r0, #56]	; 0x38
 8002e32:	4322      	orrs	r2, r4
 8002e34:	608a      	str	r2, [r1, #8]
 8002e36:	069a      	lsls	r2, r3, #26
 8002e38:	d506      	bpl.n	8002e48 <UART_AdvFeatureConfig+0x70>
 8002e3a:	6801      	ldr	r1, [r0, #0]
 8002e3c:	4c16      	ldr	r4, [pc, #88]	; (8002e98 <UART_AdvFeatureConfig+0xc0>)
 8002e3e:	688a      	ldr	r2, [r1, #8]
 8002e40:	4022      	ands	r2, r4
 8002e42:	6bc4      	ldr	r4, [r0, #60]	; 0x3c
 8002e44:	4322      	orrs	r2, r4
 8002e46:	608a      	str	r2, [r1, #8]
 8002e48:	065a      	lsls	r2, r3, #25
 8002e4a:	d510      	bpl.n	8002e6e <UART_AdvFeatureConfig+0x96>
 8002e4c:	6801      	ldr	r1, [r0, #0]
 8002e4e:	4d13      	ldr	r5, [pc, #76]	; (8002e9c <UART_AdvFeatureConfig+0xc4>)
 8002e50:	684a      	ldr	r2, [r1, #4]
 8002e52:	6c04      	ldr	r4, [r0, #64]	; 0x40
 8002e54:	402a      	ands	r2, r5
 8002e56:	4322      	orrs	r2, r4
 8002e58:	604a      	str	r2, [r1, #4]
 8002e5a:	2280      	movs	r2, #128	; 0x80
 8002e5c:	0352      	lsls	r2, r2, #13
 8002e5e:	4294      	cmp	r4, r2
 8002e60:	d105      	bne.n	8002e6e <UART_AdvFeatureConfig+0x96>
 8002e62:	684a      	ldr	r2, [r1, #4]
 8002e64:	4c0e      	ldr	r4, [pc, #56]	; (8002ea0 <UART_AdvFeatureConfig+0xc8>)
 8002e66:	4022      	ands	r2, r4
 8002e68:	6c44      	ldr	r4, [r0, #68]	; 0x44
 8002e6a:	4322      	orrs	r2, r4
 8002e6c:	604a      	str	r2, [r1, #4]
 8002e6e:	061b      	lsls	r3, r3, #24
 8002e70:	d506      	bpl.n	8002e80 <UART_AdvFeatureConfig+0xa8>
 8002e72:	6802      	ldr	r2, [r0, #0]
 8002e74:	490b      	ldr	r1, [pc, #44]	; (8002ea4 <UART_AdvFeatureConfig+0xcc>)
 8002e76:	6853      	ldr	r3, [r2, #4]
 8002e78:	400b      	ands	r3, r1
 8002e7a:	6c81      	ldr	r1, [r0, #72]	; 0x48
 8002e7c:	430b      	orrs	r3, r1
 8002e7e:	6053      	str	r3, [r2, #4]
 8002e80:	bd30      	pop	{r4, r5, pc}
 8002e82:	46c0      	nop			; (mov r8, r8)
 8002e84:	fffdffff 	.word	0xfffdffff
 8002e88:	fffeffff 	.word	0xfffeffff
 8002e8c:	fffbffff 	.word	0xfffbffff
 8002e90:	ffff7fff 	.word	0xffff7fff
 8002e94:	ffffefff 	.word	0xffffefff
 8002e98:	ffffdfff 	.word	0xffffdfff
 8002e9c:	ffefffff 	.word	0xffefffff
 8002ea0:	ff9fffff 	.word	0xff9fffff
 8002ea4:	fff7ffff 	.word	0xfff7ffff

08002ea8 <UART_WaitOnFlagUntilTimeout>:
 8002ea8:	b5f7      	push	{r0, r1, r2, r4, r5, r6, r7, lr}
 8002eaa:	0004      	movs	r4, r0
 8002eac:	000d      	movs	r5, r1
 8002eae:	0017      	movs	r7, r2
 8002eb0:	2608      	movs	r6, #8
 8002eb2:	9300      	str	r3, [sp, #0]
 8002eb4:	6822      	ldr	r2, [r4, #0]
 8002eb6:	69d3      	ldr	r3, [r2, #28]
 8002eb8:	402b      	ands	r3, r5
 8002eba:	1b5b      	subs	r3, r3, r5
 8002ebc:	4259      	negs	r1, r3
 8002ebe:	414b      	adcs	r3, r1
 8002ec0:	42bb      	cmp	r3, r7
 8002ec2:	d001      	beq.n	8002ec8 <UART_WaitOnFlagUntilTimeout+0x20>
 8002ec4:	2000      	movs	r0, #0
 8002ec6:	e021      	b.n	8002f0c <UART_WaitOnFlagUntilTimeout+0x64>
 8002ec8:	9b08      	ldr	r3, [sp, #32]
 8002eca:	3301      	adds	r3, #1
 8002ecc:	d0f3      	beq.n	8002eb6 <UART_WaitOnFlagUntilTimeout+0xe>
 8002ece:	f7fe fb4b 	bl	8001568 <HAL_GetTick>
 8002ed2:	9b00      	ldr	r3, [sp, #0]
 8002ed4:	1ac0      	subs	r0, r0, r3
 8002ed6:	9b08      	ldr	r3, [sp, #32]
 8002ed8:	4298      	cmp	r0, r3
 8002eda:	d828      	bhi.n	8002f2e <UART_WaitOnFlagUntilTimeout+0x86>
 8002edc:	2b00      	cmp	r3, #0
 8002ede:	d026      	beq.n	8002f2e <UART_WaitOnFlagUntilTimeout+0x86>
 8002ee0:	2104      	movs	r1, #4
 8002ee2:	6823      	ldr	r3, [r4, #0]
 8002ee4:	681a      	ldr	r2, [r3, #0]
 8002ee6:	420a      	tst	r2, r1
 8002ee8:	d0e4      	beq.n	8002eb4 <UART_WaitOnFlagUntilTimeout+0xc>
 8002eea:	69da      	ldr	r2, [r3, #28]
 8002eec:	0011      	movs	r1, r2
 8002eee:	4031      	ands	r1, r6
 8002ef0:	9101      	str	r1, [sp, #4]
 8002ef2:	4232      	tst	r2, r6
 8002ef4:	d00b      	beq.n	8002f0e <UART_WaitOnFlagUntilTimeout+0x66>
 8002ef6:	0020      	movs	r0, r4
 8002ef8:	621e      	str	r6, [r3, #32]
 8002efa:	f7ff fe33 	bl	8002b64 <UART_EndRxTransfer>
 8002efe:	0023      	movs	r3, r4
 8002f00:	3308      	adds	r3, #8
 8002f02:	67de      	str	r6, [r3, #124]	; 0x7c
 8002f04:	2300      	movs	r3, #0
 8002f06:	2001      	movs	r0, #1
 8002f08:	3478      	adds	r4, #120	; 0x78
 8002f0a:	7023      	strb	r3, [r4, #0]
 8002f0c:	bdfe      	pop	{r1, r2, r3, r4, r5, r6, r7, pc}
 8002f0e:	2280      	movs	r2, #128	; 0x80
 8002f10:	69d9      	ldr	r1, [r3, #28]
 8002f12:	0112      	lsls	r2, r2, #4
 8002f14:	4211      	tst	r1, r2
 8002f16:	d0cd      	beq.n	8002eb4 <UART_WaitOnFlagUntilTimeout+0xc>
 8002f18:	621a      	str	r2, [r3, #32]
 8002f1a:	0020      	movs	r0, r4
 8002f1c:	f7ff fe22 	bl	8002b64 <UART_EndRxTransfer>
 8002f20:	0023      	movs	r3, r4
 8002f22:	2220      	movs	r2, #32
 8002f24:	3308      	adds	r3, #8
 8002f26:	67da      	str	r2, [r3, #124]	; 0x7c
 8002f28:	9b01      	ldr	r3, [sp, #4]
 8002f2a:	3478      	adds	r4, #120	; 0x78
 8002f2c:	7023      	strb	r3, [r4, #0]
 8002f2e:	2003      	movs	r0, #3
 8002f30:	e7ec      	b.n	8002f0c <UART_WaitOnFlagUntilTimeout+0x64>

08002f32 <HAL_UART_Transmit>:
 8002f32:	b5f0      	push	{r4, r5, r6, r7, lr}
 8002f34:	b085      	sub	sp, #20
 8002f36:	9303      	str	r3, [sp, #12]
 8002f38:	6fc3      	ldr	r3, [r0, #124]	; 0x7c
 8002f3a:	0004      	movs	r4, r0
 8002f3c:	000d      	movs	r5, r1
 8002f3e:	0016      	movs	r6, r2
 8002f40:	2002      	movs	r0, #2
 8002f42:	2b20      	cmp	r3, #32
 8002f44:	d139      	bne.n	8002fba <HAL_UART_Transmit+0x88>
 8002f46:	3801      	subs	r0, #1
 8002f48:	2900      	cmp	r1, #0
 8002f4a:	d036      	beq.n	8002fba <HAL_UART_Transmit+0x88>
 8002f4c:	2a00      	cmp	r2, #0
 8002f4e:	d034      	beq.n	8002fba <HAL_UART_Transmit+0x88>
 8002f50:	2380      	movs	r3, #128	; 0x80
 8002f52:	68a2      	ldr	r2, [r4, #8]
 8002f54:	015b      	lsls	r3, r3, #5
 8002f56:	429a      	cmp	r2, r3
 8002f58:	d104      	bne.n	8002f64 <HAL_UART_Transmit+0x32>
 8002f5a:	6923      	ldr	r3, [r4, #16]
 8002f5c:	2b00      	cmp	r3, #0
 8002f5e:	d101      	bne.n	8002f64 <HAL_UART_Transmit+0x32>
 8002f60:	4201      	tst	r1, r0
 8002f62:	d12a      	bne.n	8002fba <HAL_UART_Transmit+0x88>
 8002f64:	0023      	movs	r3, r4
 8002f66:	2200      	movs	r2, #0
 8002f68:	3308      	adds	r3, #8
 8002f6a:	67da      	str	r2, [r3, #124]	; 0x7c
 8002f6c:	2321      	movs	r3, #33	; 0x21
 8002f6e:	67e3      	str	r3, [r4, #124]	; 0x7c
 8002f70:	f7fe fafa 	bl	8001568 <HAL_GetTick>
 8002f74:	0023      	movs	r3, r4
 8002f76:	3350      	adds	r3, #80	; 0x50
 8002f78:	801e      	strh	r6, [r3, #0]
 8002f7a:	3302      	adds	r3, #2
 8002f7c:	801e      	strh	r6, [r3, #0]
 8002f7e:	9302      	str	r3, [sp, #8]
 8002f80:	2380      	movs	r3, #128	; 0x80
 8002f82:	68a2      	ldr	r2, [r4, #8]
 8002f84:	0007      	movs	r7, r0
 8002f86:	2600      	movs	r6, #0
 8002f88:	015b      	lsls	r3, r3, #5
 8002f8a:	429a      	cmp	r2, r3
 8002f8c:	d104      	bne.n	8002f98 <HAL_UART_Transmit+0x66>
 8002f8e:	6923      	ldr	r3, [r4, #16]
 8002f90:	42b3      	cmp	r3, r6
 8002f92:	d101      	bne.n	8002f98 <HAL_UART_Transmit+0x66>
 8002f94:	002e      	movs	r6, r5
 8002f96:	001d      	movs	r5, r3
 8002f98:	0023      	movs	r3, r4
 8002f9a:	3352      	adds	r3, #82	; 0x52
 8002f9c:	881b      	ldrh	r3, [r3, #0]
 8002f9e:	b29a      	uxth	r2, r3
 8002fa0:	2b00      	cmp	r3, #0
 8002fa2:	d10c      	bne.n	8002fbe <HAL_UART_Transmit+0x8c>
 8002fa4:	9b03      	ldr	r3, [sp, #12]
 8002fa6:	2140      	movs	r1, #64	; 0x40
 8002fa8:	9300      	str	r3, [sp, #0]
 8002faa:	0020      	movs	r0, r4
 8002fac:	003b      	movs	r3, r7
 8002fae:	f7ff ff7b 	bl	8002ea8 <UART_WaitOnFlagUntilTimeout>
 8002fb2:	2320      	movs	r3, #32
 8002fb4:	67e3      	str	r3, [r4, #124]	; 0x7c
 8002fb6:	2800      	cmp	r0, #0
 8002fb8:	d10d      	bne.n	8002fd6 <HAL_UART_Transmit+0xa4>
 8002fba:	b005      	add	sp, #20
 8002fbc:	bdf0      	pop	{r4, r5, r6, r7, pc}
 8002fbe:	9b03      	ldr	r3, [sp, #12]
 8002fc0:	2200      	movs	r2, #0
 8002fc2:	9300      	str	r3, [sp, #0]
 8002fc4:	2180      	movs	r1, #128	; 0x80
 8002fc6:	003b      	movs	r3, r7
 8002fc8:	0020      	movs	r0, r4
 8002fca:	f7ff ff6d 	bl	8002ea8 <UART_WaitOnFlagUntilTimeout>
 8002fce:	2800      	cmp	r0, #0
 8002fd0:	d003      	beq.n	8002fda <HAL_UART_Transmit+0xa8>
 8002fd2:	2320      	movs	r3, #32
 8002fd4:	67e3      	str	r3, [r4, #124]	; 0x7c
 8002fd6:	2003      	movs	r0, #3
 8002fd8:	e7ef      	b.n	8002fba <HAL_UART_Transmit+0x88>
 8002fda:	6822      	ldr	r2, [r4, #0]
 8002fdc:	2d00      	cmp	r5, #0
 8002fde:	d10b      	bne.n	8002ff8 <HAL_UART_Transmit+0xc6>
 8002fe0:	8833      	ldrh	r3, [r6, #0]
 8002fe2:	3602      	adds	r6, #2
 8002fe4:	05db      	lsls	r3, r3, #23
 8002fe6:	0ddb      	lsrs	r3, r3, #23
 8002fe8:	6293      	str	r3, [r2, #40]	; 0x28
 8002fea:	9b02      	ldr	r3, [sp, #8]
 8002fec:	9a02      	ldr	r2, [sp, #8]
 8002fee:	881b      	ldrh	r3, [r3, #0]
 8002ff0:	3b01      	subs	r3, #1
 8002ff2:	b29b      	uxth	r3, r3
 8002ff4:	8013      	strh	r3, [r2, #0]
 8002ff6:	e7cf      	b.n	8002f98 <HAL_UART_Transmit+0x66>
 8002ff8:	782b      	ldrb	r3, [r5, #0]
 8002ffa:	3501      	adds	r5, #1
 8002ffc:	6293      	str	r3, [r2, #40]	; 0x28
 8002ffe:	e7f4      	b.n	8002fea <HAL_UART_Transmit+0xb8>

08003000 <HAL_UART_Receive>:
 8003000:	b5f0      	push	{r4, r5, r6, r7, lr}
 8003002:	0016      	movs	r6, r2
 8003004:	b087      	sub	sp, #28
 8003006:	1d02      	adds	r2, r0, #4
 8003008:	9305      	str	r3, [sp, #20]
 800300a:	6fd3      	ldr	r3, [r2, #124]	; 0x7c
 800300c:	0004      	movs	r4, r0
 800300e:	000d      	movs	r5, r1
 8003010:	2002      	movs	r0, #2
 8003012:	2b20      	cmp	r3, #32
 8003014:	d160      	bne.n	80030d8 <HAL_UART_Receive+0xd8>
 8003016:	3801      	subs	r0, #1
 8003018:	2900      	cmp	r1, #0
 800301a:	d05d      	beq.n	80030d8 <HAL_UART_Receive+0xd8>
 800301c:	2e00      	cmp	r6, #0
 800301e:	d05b      	beq.n	80030d8 <HAL_UART_Receive+0xd8>
 8003020:	2380      	movs	r3, #128	; 0x80
 8003022:	68a1      	ldr	r1, [r4, #8]
 8003024:	015b      	lsls	r3, r3, #5
 8003026:	4299      	cmp	r1, r3
 8003028:	d104      	bne.n	8003034 <HAL_UART_Receive+0x34>
 800302a:	6923      	ldr	r3, [r4, #16]
 800302c:	2b00      	cmp	r3, #0
 800302e:	d101      	bne.n	8003034 <HAL_UART_Receive+0x34>
 8003030:	4205      	tst	r5, r0
 8003032:	d151      	bne.n	80030d8 <HAL_UART_Receive+0xd8>
 8003034:	0023      	movs	r3, r4
 8003036:	2700      	movs	r7, #0
 8003038:	3308      	adds	r3, #8
 800303a:	67df      	str	r7, [r3, #124]	; 0x7c
 800303c:	2322      	movs	r3, #34	; 0x22
 800303e:	67d3      	str	r3, [r2, #124]	; 0x7c
 8003040:	6627      	str	r7, [r4, #96]	; 0x60
 8003042:	f7fe fa91 	bl	8001568 <HAL_GetTick>
 8003046:	0023      	movs	r3, r4
 8003048:	2180      	movs	r1, #128	; 0x80
 800304a:	3358      	adds	r3, #88	; 0x58
 800304c:	68a2      	ldr	r2, [r4, #8]
 800304e:	801e      	strh	r6, [r3, #0]
 8003050:	3302      	adds	r3, #2
 8003052:	9303      	str	r3, [sp, #12]
 8003054:	801e      	strh	r6, [r3, #0]
 8003056:	9004      	str	r0, [sp, #16]
 8003058:	0149      	lsls	r1, r1, #5
 800305a:	3302      	adds	r3, #2
 800305c:	428a      	cmp	r2, r1
 800305e:	d11b      	bne.n	8003098 <HAL_UART_Receive+0x98>
 8003060:	6921      	ldr	r1, [r4, #16]
 8003062:	42b9      	cmp	r1, r7
 8003064:	d116      	bne.n	8003094 <HAL_UART_Receive+0x94>
 8003066:	4926      	ldr	r1, [pc, #152]	; (8003100 <HAL_UART_Receive+0x100>)
 8003068:	8019      	strh	r1, [r3, #0]
 800306a:	881f      	ldrh	r7, [r3, #0]
 800306c:	2380      	movs	r3, #128	; 0x80
 800306e:	2600      	movs	r6, #0
 8003070:	015b      	lsls	r3, r3, #5
 8003072:	429a      	cmp	r2, r3
 8003074:	d104      	bne.n	8003080 <HAL_UART_Receive+0x80>
 8003076:	6923      	ldr	r3, [r4, #16]
 8003078:	42b3      	cmp	r3, r6
 800307a:	d101      	bne.n	8003080 <HAL_UART_Receive+0x80>
 800307c:	002e      	movs	r6, r5
 800307e:	001d      	movs	r5, r3
 8003080:	0023      	movs	r3, r4
 8003082:	335a      	adds	r3, #90	; 0x5a
 8003084:	881b      	ldrh	r3, [r3, #0]
 8003086:	b298      	uxth	r0, r3
 8003088:	2b00      	cmp	r3, #0
 800308a:	d117      	bne.n	80030bc <HAL_UART_Receive+0xbc>
 800308c:	3404      	adds	r4, #4
 800308e:	3320      	adds	r3, #32
 8003090:	67e3      	str	r3, [r4, #124]	; 0x7c
 8003092:	e021      	b.n	80030d8 <HAL_UART_Receive+0xd8>
 8003094:	21ff      	movs	r1, #255	; 0xff
 8003096:	e7e7      	b.n	8003068 <HAL_UART_Receive+0x68>
 8003098:	2a00      	cmp	r2, #0
 800309a:	d104      	bne.n	80030a6 <HAL_UART_Receive+0xa6>
 800309c:	6921      	ldr	r1, [r4, #16]
 800309e:	2900      	cmp	r1, #0
 80030a0:	d0f8      	beq.n	8003094 <HAL_UART_Receive+0x94>
 80030a2:	217f      	movs	r1, #127	; 0x7f
 80030a4:	e7e0      	b.n	8003068 <HAL_UART_Receive+0x68>
 80030a6:	2180      	movs	r1, #128	; 0x80
 80030a8:	0549      	lsls	r1, r1, #21
 80030aa:	428a      	cmp	r2, r1
 80030ac:	d104      	bne.n	80030b8 <HAL_UART_Receive+0xb8>
 80030ae:	6921      	ldr	r1, [r4, #16]
 80030b0:	2900      	cmp	r1, #0
 80030b2:	d0f6      	beq.n	80030a2 <HAL_UART_Receive+0xa2>
 80030b4:	213f      	movs	r1, #63	; 0x3f
 80030b6:	e7d7      	b.n	8003068 <HAL_UART_Receive+0x68>
 80030b8:	801f      	strh	r7, [r3, #0]
 80030ba:	e7d6      	b.n	800306a <HAL_UART_Receive+0x6a>
 80030bc:	9b05      	ldr	r3, [sp, #20]
 80030be:	2200      	movs	r2, #0
 80030c0:	9300      	str	r3, [sp, #0]
 80030c2:	2120      	movs	r1, #32
 80030c4:	0020      	movs	r0, r4
 80030c6:	9b04      	ldr	r3, [sp, #16]
 80030c8:	f7ff feee 	bl	8002ea8 <UART_WaitOnFlagUntilTimeout>
 80030cc:	2800      	cmp	r0, #0
 80030ce:	d005      	beq.n	80030dc <HAL_UART_Receive+0xdc>
 80030d0:	2320      	movs	r3, #32
 80030d2:	2003      	movs	r0, #3
 80030d4:	3404      	adds	r4, #4
 80030d6:	67e3      	str	r3, [r4, #124]	; 0x7c
 80030d8:	b007      	add	sp, #28
 80030da:	bdf0      	pop	{r4, r5, r6, r7, pc}
 80030dc:	6823      	ldr	r3, [r4, #0]
 80030de:	6a5b      	ldr	r3, [r3, #36]	; 0x24
 80030e0:	403b      	ands	r3, r7
 80030e2:	2d00      	cmp	r5, #0
 80030e4:	d108      	bne.n	80030f8 <HAL_UART_Receive+0xf8>
 80030e6:	8033      	strh	r3, [r6, #0]
 80030e8:	3602      	adds	r6, #2
 80030ea:	9b03      	ldr	r3, [sp, #12]
 80030ec:	9a03      	ldr	r2, [sp, #12]
 80030ee:	881b      	ldrh	r3, [r3, #0]
 80030f0:	3b01      	subs	r3, #1
 80030f2:	b29b      	uxth	r3, r3
 80030f4:	8013      	strh	r3, [r2, #0]
 80030f6:	e7c3      	b.n	8003080 <HAL_UART_Receive+0x80>
 80030f8:	702b      	strb	r3, [r5, #0]
 80030fa:	3501      	adds	r5, #1
 80030fc:	e7f5      	b.n	80030ea <HAL_UART_Receive+0xea>
 80030fe:	46c0      	nop			; (mov r8, r8)
 8003100:	000001ff 	.word	0x000001ff

08003104 <UART_CheckIdleState>:
 8003104:	0003      	movs	r3, r0
 8003106:	b5f7      	push	{r0, r1, r2, r4, r5, r6, r7, lr}
 8003108:	2500      	movs	r5, #0
 800310a:	0004      	movs	r4, r0
 800310c:	3308      	adds	r3, #8
 800310e:	67dd      	str	r5, [r3, #124]	; 0x7c
 8003110:	f7fe fa2a 	bl	8001568 <HAL_GetTick>
 8003114:	0026      	movs	r6, r4
 8003116:	6823      	ldr	r3, [r4, #0]
 8003118:	0007      	movs	r7, r0
 800311a:	681b      	ldr	r3, [r3, #0]
 800311c:	3678      	adds	r6, #120	; 0x78
 800311e:	071b      	lsls	r3, r3, #28
 8003120:	d51b      	bpl.n	800315a <UART_CheckIdleState+0x56>
 8003122:	2180      	movs	r1, #128	; 0x80
 8003124:	4b26      	ldr	r3, [pc, #152]	; (80031c0 <UART_CheckIdleState+0xbc>)
 8003126:	002a      	movs	r2, r5
 8003128:	9300      	str	r3, [sp, #0]
 800312a:	0389      	lsls	r1, r1, #14
 800312c:	0003      	movs	r3, r0
 800312e:	0020      	movs	r0, r4
 8003130:	f7ff feba 	bl	8002ea8 <UART_WaitOnFlagUntilTimeout>
 8003134:	42a8      	cmp	r0, r5
 8003136:	d010      	beq.n	800315a <UART_CheckIdleState+0x56>
 8003138:	f3ef 8110 	mrs	r1, PRIMASK
 800313c:	2301      	movs	r3, #1
 800313e:	f383 8810 	msr	PRIMASK, r3
 8003142:	2080      	movs	r0, #128	; 0x80
 8003144:	6822      	ldr	r2, [r4, #0]
 8003146:	6813      	ldr	r3, [r2, #0]
 8003148:	4383      	bics	r3, r0
 800314a:	6013      	str	r3, [r2, #0]
 800314c:	f381 8810 	msr	PRIMASK, r1
 8003150:	2320      	movs	r3, #32
 8003152:	67e3      	str	r3, [r4, #124]	; 0x7c
 8003154:	7035      	strb	r5, [r6, #0]
 8003156:	2003      	movs	r0, #3
 8003158:	bdfe      	pop	{r1, r2, r3, r4, r5, r6, r7, pc}
 800315a:	0025      	movs	r5, r4
 800315c:	cd08      	ldmia	r5!, {r3}
 800315e:	681b      	ldr	r3, [r3, #0]
 8003160:	075b      	lsls	r3, r3, #29
 8003162:	d525      	bpl.n	80031b0 <UART_CheckIdleState+0xac>
 8003164:	2180      	movs	r1, #128	; 0x80
 8003166:	4b16      	ldr	r3, [pc, #88]	; (80031c0 <UART_CheckIdleState+0xbc>)
 8003168:	2200      	movs	r2, #0
 800316a:	9300      	str	r3, [sp, #0]
 800316c:	0020      	movs	r0, r4
 800316e:	003b      	movs	r3, r7
 8003170:	03c9      	lsls	r1, r1, #15
 8003172:	f7ff fe99 	bl	8002ea8 <UART_WaitOnFlagUntilTimeout>
 8003176:	2800      	cmp	r0, #0
 8003178:	d01a      	beq.n	80031b0 <UART_CheckIdleState+0xac>
 800317a:	f3ef 8010 	mrs	r0, PRIMASK
 800317e:	2201      	movs	r2, #1
 8003180:	f382 8810 	msr	PRIMASK, r2
 8003184:	6821      	ldr	r1, [r4, #0]
 8003186:	4f0f      	ldr	r7, [pc, #60]	; (80031c4 <UART_CheckIdleState+0xc0>)
 8003188:	680b      	ldr	r3, [r1, #0]
 800318a:	403b      	ands	r3, r7
 800318c:	600b      	str	r3, [r1, #0]
 800318e:	f380 8810 	msr	PRIMASK, r0
 8003192:	f3ef 8010 	mrs	r0, PRIMASK
 8003196:	f382 8810 	msr	PRIMASK, r2
 800319a:	6821      	ldr	r1, [r4, #0]
 800319c:	688b      	ldr	r3, [r1, #8]
 800319e:	4393      	bics	r3, r2
 80031a0:	608b      	str	r3, [r1, #8]
 80031a2:	f380 8810 	msr	PRIMASK, r0
 80031a6:	2320      	movs	r3, #32
 80031a8:	67eb      	str	r3, [r5, #124]	; 0x7c
 80031aa:	2300      	movs	r3, #0
 80031ac:	7033      	strb	r3, [r6, #0]
 80031ae:	e7d2      	b.n	8003156 <UART_CheckIdleState+0x52>
 80031b0:	2000      	movs	r0, #0
 80031b2:	2320      	movs	r3, #32
 80031b4:	67e3      	str	r3, [r4, #124]	; 0x7c
 80031b6:	67eb      	str	r3, [r5, #124]	; 0x7c
 80031b8:	6620      	str	r0, [r4, #96]	; 0x60
 80031ba:	6660      	str	r0, [r4, #100]	; 0x64
 80031bc:	7030      	strb	r0, [r6, #0]
 80031be:	e7cb      	b.n	8003158 <UART_CheckIdleState+0x54>
 80031c0:	01ffffff 	.word	0x01ffffff
 80031c4:	fffffedf 	.word	0xfffffedf

080031c8 <HAL_UART_Init>:
 80031c8:	b510      	push	{r4, lr}
 80031ca:	1e04      	subs	r4, r0, #0
 80031cc:	d101      	bne.n	80031d2 <HAL_UART_Init+0xa>
 80031ce:	2001      	movs	r0, #1
 80031d0:	bd10      	pop	{r4, pc}
 80031d2:	6fc3      	ldr	r3, [r0, #124]	; 0x7c
 80031d4:	2b00      	cmp	r3, #0
 80031d6:	d104      	bne.n	80031e2 <HAL_UART_Init+0x1a>
 80031d8:	0002      	movs	r2, r0
 80031da:	3278      	adds	r2, #120	; 0x78
 80031dc:	7013      	strb	r3, [r2, #0]
 80031de:	f7fe f8fb 	bl	80013d8 <HAL_UART_MspInit>
 80031e2:	2324      	movs	r3, #36	; 0x24
 80031e4:	2101      	movs	r1, #1
 80031e6:	6822      	ldr	r2, [r4, #0]
 80031e8:	67e3      	str	r3, [r4, #124]	; 0x7c
 80031ea:	6813      	ldr	r3, [r2, #0]
 80031ec:	0020      	movs	r0, r4
 80031ee:	438b      	bics	r3, r1
 80031f0:	6013      	str	r3, [r2, #0]
 80031f2:	f7ff fce5 	bl	8002bc0 <UART_SetConfig>
 80031f6:	2801      	cmp	r0, #1
 80031f8:	d0e9      	beq.n	80031ce <HAL_UART_Init+0x6>
 80031fa:	6a63      	ldr	r3, [r4, #36]	; 0x24
 80031fc:	2b00      	cmp	r3, #0
 80031fe:	d002      	beq.n	8003206 <HAL_UART_Init+0x3e>
 8003200:	0020      	movs	r0, r4
 8003202:	f7ff fde9 	bl	8002dd8 <UART_AdvFeatureConfig>
 8003206:	6823      	ldr	r3, [r4, #0]
 8003208:	4907      	ldr	r1, [pc, #28]	; (8003228 <HAL_UART_Init+0x60>)
 800320a:	685a      	ldr	r2, [r3, #4]
 800320c:	0020      	movs	r0, r4
 800320e:	400a      	ands	r2, r1
 8003210:	212a      	movs	r1, #42	; 0x2a
 8003212:	605a      	str	r2, [r3, #4]
 8003214:	689a      	ldr	r2, [r3, #8]
 8003216:	438a      	bics	r2, r1
 8003218:	609a      	str	r2, [r3, #8]
 800321a:	2201      	movs	r2, #1
 800321c:	6819      	ldr	r1, [r3, #0]
 800321e:	430a      	orrs	r2, r1
 8003220:	601a      	str	r2, [r3, #0]
 8003222:	f7ff ff6f 	bl	8003104 <UART_CheckIdleState>
 8003226:	e7d3      	b.n	80031d0 <HAL_UART_Init+0x8>
 8003228:	ffffb7ff 	.word	0xffffb7ff

0800322c <__errno>:
 800322c:	4b01      	ldr	r3, [pc, #4]	; (8003234 <__errno+0x8>)
 800322e:	6818      	ldr	r0, [r3, #0]
 8003230:	4770      	bx	lr
 8003232:	46c0      	nop			; (mov r8, r8)
 8003234:	20000038 	.word	0x20000038

08003238 <__libc_init_array>:
 8003238:	b570      	push	{r4, r5, r6, lr}
 800323a:	2600      	movs	r6, #0
 800323c:	4d0c      	ldr	r5, [pc, #48]	; (8003270 <__libc_init_array+0x38>)
 800323e:	4c0d      	ldr	r4, [pc, #52]	; (8003274 <__libc_init_array+0x3c>)
 8003240:	1b64      	subs	r4, r4, r5
 8003242:	10a4      	asrs	r4, r4, #2
 8003244:	42a6      	cmp	r6, r4
 8003246:	d109      	bne.n	800325c <__libc_init_array+0x24>
 8003248:	2600      	movs	r6, #0
 800324a:	f000 fc8b 	bl	8003b64 <_init>
 800324e:	4d0a      	ldr	r5, [pc, #40]	; (8003278 <__libc_init_array+0x40>)
 8003250:	4c0a      	ldr	r4, [pc, #40]	; (800327c <__libc_init_array+0x44>)
 8003252:	1b64      	subs	r4, r4, r5
 8003254:	10a4      	asrs	r4, r4, #2
 8003256:	42a6      	cmp	r6, r4
 8003258:	d105      	bne.n	8003266 <__libc_init_array+0x2e>
 800325a:	bd70      	pop	{r4, r5, r6, pc}
 800325c:	00b3      	lsls	r3, r6, #2
 800325e:	58eb      	ldr	r3, [r5, r3]
 8003260:	4798      	blx	r3
 8003262:	3601      	adds	r6, #1
 8003264:	e7ee      	b.n	8003244 <__libc_init_array+0xc>
 8003266:	00b3      	lsls	r3, r6, #2
 8003268:	58eb      	ldr	r3, [r5, r3]
 800326a:	4798      	blx	r3
 800326c:	3601      	adds	r6, #1
 800326e:	e7f2      	b.n	8003256 <__libc_init_array+0x1e>
 8003270:	08003ec4 	.word	0x08003ec4
 8003274:	08003ec4 	.word	0x08003ec4
 8003278:	08003ec4 	.word	0x08003ec4
 800327c:	08003ec8 	.word	0x08003ec8

08003280 <memcpy>:
 8003280:	2300      	movs	r3, #0
 8003282:	b510      	push	{r4, lr}
 8003284:	429a      	cmp	r2, r3
 8003286:	d100      	bne.n	800328a <memcpy+0xa>
 8003288:	bd10      	pop	{r4, pc}
 800328a:	5ccc      	ldrb	r4, [r1, r3]
 800328c:	54c4      	strb	r4, [r0, r3]
 800328e:	3301      	adds	r3, #1
 8003290:	e7f8      	b.n	8003284 <memcpy+0x4>

08003292 <memmove>:
 8003292:	b510      	push	{r4, lr}
 8003294:	4288      	cmp	r0, r1
 8003296:	d902      	bls.n	800329e <memmove+0xc>
 8003298:	188b      	adds	r3, r1, r2
 800329a:	4298      	cmp	r0, r3
 800329c:	d303      	bcc.n	80032a6 <memmove+0x14>
 800329e:	2300      	movs	r3, #0
 80032a0:	e007      	b.n	80032b2 <memmove+0x20>
 80032a2:	5c8b      	ldrb	r3, [r1, r2]
 80032a4:	5483      	strb	r3, [r0, r2]
 80032a6:	3a01      	subs	r2, #1
 80032a8:	d2fb      	bcs.n	80032a2 <memmove+0x10>
 80032aa:	bd10      	pop	{r4, pc}
 80032ac:	5ccc      	ldrb	r4, [r1, r3]
 80032ae:	54c4      	strb	r4, [r0, r3]
 80032b0:	3301      	adds	r3, #1
 80032b2:	429a      	cmp	r2, r3
 80032b4:	d1fa      	bne.n	80032ac <memmove+0x1a>
 80032b6:	e7f8      	b.n	80032aa <memmove+0x18>

080032b8 <memset>:
 80032b8:	0003      	movs	r3, r0
 80032ba:	1882      	adds	r2, r0, r2
 80032bc:	4293      	cmp	r3, r2
 80032be:	d100      	bne.n	80032c2 <memset+0xa>
 80032c0:	4770      	bx	lr
 80032c2:	7019      	strb	r1, [r3, #0]
 80032c4:	3301      	adds	r3, #1
 80032c6:	e7f9      	b.n	80032bc <memset+0x4>

080032c8 <siprintf>:
 80032c8:	b40e      	push	{r1, r2, r3}
 80032ca:	b500      	push	{lr}
 80032cc:	490b      	ldr	r1, [pc, #44]	; (80032fc <siprintf+0x34>)
 80032ce:	b09c      	sub	sp, #112	; 0x70
 80032d0:	ab1d      	add	r3, sp, #116	; 0x74
 80032d2:	9002      	str	r0, [sp, #8]
 80032d4:	9006      	str	r0, [sp, #24]
 80032d6:	9107      	str	r1, [sp, #28]
 80032d8:	9104      	str	r1, [sp, #16]
 80032da:	4809      	ldr	r0, [pc, #36]	; (8003300 <siprintf+0x38>)
 80032dc:	4909      	ldr	r1, [pc, #36]	; (8003304 <siprintf+0x3c>)
 80032de:	cb04      	ldmia	r3!, {r2}
 80032e0:	9105      	str	r1, [sp, #20]
 80032e2:	6800      	ldr	r0, [r0, #0]
 80032e4:	a902      	add	r1, sp, #8
 80032e6:	9301      	str	r3, [sp, #4]
 80032e8:	f000 f870 	bl	80033cc <_svfiprintf_r>
 80032ec:	2300      	movs	r3, #0
 80032ee:	9a02      	ldr	r2, [sp, #8]
 80032f0:	7013      	strb	r3, [r2, #0]
 80032f2:	b01c      	add	sp, #112	; 0x70
 80032f4:	bc08      	pop	{r3}
 80032f6:	b003      	add	sp, #12
 80032f8:	4718      	bx	r3
 80032fa:	46c0      	nop			; (mov r8, r8)
 80032fc:	7fffffff 	.word	0x7fffffff
 8003300:	20000038 	.word	0x20000038
 8003304:	ffff0208 	.word	0xffff0208

08003308 <__ssputs_r>:
 8003308:	b5f0      	push	{r4, r5, r6, r7, lr}
 800330a:	688e      	ldr	r6, [r1, #8]
 800330c:	b085      	sub	sp, #20
 800330e:	0007      	movs	r7, r0
 8003310:	000c      	movs	r4, r1
 8003312:	9203      	str	r2, [sp, #12]
 8003314:	9301      	str	r3, [sp, #4]
 8003316:	429e      	cmp	r6, r3
 8003318:	d83c      	bhi.n	8003394 <__ssputs_r+0x8c>
 800331a:	2390      	movs	r3, #144	; 0x90
 800331c:	898a      	ldrh	r2, [r1, #12]
 800331e:	00db      	lsls	r3, r3, #3
 8003320:	421a      	tst	r2, r3
 8003322:	d034      	beq.n	800338e <__ssputs_r+0x86>
 8003324:	6909      	ldr	r1, [r1, #16]
 8003326:	6823      	ldr	r3, [r4, #0]
 8003328:	6960      	ldr	r0, [r4, #20]
 800332a:	1a5b      	subs	r3, r3, r1
 800332c:	9302      	str	r3, [sp, #8]
 800332e:	2303      	movs	r3, #3
 8003330:	4343      	muls	r3, r0
 8003332:	0fdd      	lsrs	r5, r3, #31
 8003334:	18ed      	adds	r5, r5, r3
 8003336:	9b01      	ldr	r3, [sp, #4]
 8003338:	9802      	ldr	r0, [sp, #8]
 800333a:	3301      	adds	r3, #1
 800333c:	181b      	adds	r3, r3, r0
 800333e:	106d      	asrs	r5, r5, #1
 8003340:	42ab      	cmp	r3, r5
 8003342:	d900      	bls.n	8003346 <__ssputs_r+0x3e>
 8003344:	001d      	movs	r5, r3
 8003346:	0553      	lsls	r3, r2, #21
 8003348:	d532      	bpl.n	80033b0 <__ssputs_r+0xa8>
 800334a:	0029      	movs	r1, r5
 800334c:	0038      	movs	r0, r7
 800334e:	f000 fb37 	bl	80039c0 <_malloc_r>
 8003352:	1e06      	subs	r6, r0, #0
 8003354:	d109      	bne.n	800336a <__ssputs_r+0x62>
 8003356:	230c      	movs	r3, #12
 8003358:	603b      	str	r3, [r7, #0]
 800335a:	2340      	movs	r3, #64	; 0x40
 800335c:	2001      	movs	r0, #1
 800335e:	89a2      	ldrh	r2, [r4, #12]
 8003360:	4240      	negs	r0, r0
 8003362:	4313      	orrs	r3, r2
 8003364:	81a3      	strh	r3, [r4, #12]
 8003366:	b005      	add	sp, #20
 8003368:	bdf0      	pop	{r4, r5, r6, r7, pc}
 800336a:	9a02      	ldr	r2, [sp, #8]
 800336c:	6921      	ldr	r1, [r4, #16]
 800336e:	f7ff ff87 	bl	8003280 <memcpy>
 8003372:	89a3      	ldrh	r3, [r4, #12]
 8003374:	4a14      	ldr	r2, [pc, #80]	; (80033c8 <__ssputs_r+0xc0>)
 8003376:	401a      	ands	r2, r3
 8003378:	2380      	movs	r3, #128	; 0x80
 800337a:	4313      	orrs	r3, r2
 800337c:	81a3      	strh	r3, [r4, #12]
 800337e:	9b02      	ldr	r3, [sp, #8]
 8003380:	6126      	str	r6, [r4, #16]
 8003382:	18f6      	adds	r6, r6, r3
 8003384:	6026      	str	r6, [r4, #0]
 8003386:	6165      	str	r5, [r4, #20]
 8003388:	9e01      	ldr	r6, [sp, #4]
 800338a:	1aed      	subs	r5, r5, r3
 800338c:	60a5      	str	r5, [r4, #8]
 800338e:	9b01      	ldr	r3, [sp, #4]
 8003390:	429e      	cmp	r6, r3
 8003392:	d900      	bls.n	8003396 <__ssputs_r+0x8e>
 8003394:	9e01      	ldr	r6, [sp, #4]
 8003396:	0032      	movs	r2, r6
 8003398:	9903      	ldr	r1, [sp, #12]
 800339a:	6820      	ldr	r0, [r4, #0]
 800339c:	f7ff ff79 	bl	8003292 <memmove>
 80033a0:	68a3      	ldr	r3, [r4, #8]
 80033a2:	2000      	movs	r0, #0
 80033a4:	1b9b      	subs	r3, r3, r6
 80033a6:	60a3      	str	r3, [r4, #8]
 80033a8:	6823      	ldr	r3, [r4, #0]
 80033aa:	199e      	adds	r6, r3, r6
 80033ac:	6026      	str	r6, [r4, #0]
 80033ae:	e7da      	b.n	8003366 <__ssputs_r+0x5e>
 80033b0:	002a      	movs	r2, r5
 80033b2:	0038      	movs	r0, r7
 80033b4:	f000 fb7a 	bl	8003aac <_realloc_r>
 80033b8:	1e06      	subs	r6, r0, #0
 80033ba:	d1e0      	bne.n	800337e <__ssputs_r+0x76>
 80033bc:	0038      	movs	r0, r7
 80033be:	6921      	ldr	r1, [r4, #16]
 80033c0:	f000 fa92 	bl	80038e8 <_free_r>
 80033c4:	e7c7      	b.n	8003356 <__ssputs_r+0x4e>
 80033c6:	46c0      	nop			; (mov r8, r8)
 80033c8:	fffffb7f 	.word	0xfffffb7f

080033cc <_svfiprintf_r>:
 80033cc:	b5f0      	push	{r4, r5, r6, r7, lr}
 80033ce:	b0a1      	sub	sp, #132	; 0x84
 80033d0:	9003      	str	r0, [sp, #12]
 80033d2:	001d      	movs	r5, r3
 80033d4:	898b      	ldrh	r3, [r1, #12]
 80033d6:	000f      	movs	r7, r1
 80033d8:	0016      	movs	r6, r2
 80033da:	061b      	lsls	r3, r3, #24
 80033dc:	d511      	bpl.n	8003402 <_svfiprintf_r+0x36>
 80033de:	690b      	ldr	r3, [r1, #16]
 80033e0:	2b00      	cmp	r3, #0
 80033e2:	d10e      	bne.n	8003402 <_svfiprintf_r+0x36>
 80033e4:	2140      	movs	r1, #64	; 0x40
 80033e6:	f000 faeb 	bl	80039c0 <_malloc_r>
 80033ea:	6038      	str	r0, [r7, #0]
 80033ec:	6138      	str	r0, [r7, #16]
 80033ee:	2800      	cmp	r0, #0
 80033f0:	d105      	bne.n	80033fe <_svfiprintf_r+0x32>
 80033f2:	230c      	movs	r3, #12
 80033f4:	9a03      	ldr	r2, [sp, #12]
 80033f6:	3801      	subs	r0, #1
 80033f8:	6013      	str	r3, [r2, #0]
 80033fa:	b021      	add	sp, #132	; 0x84
 80033fc:	bdf0      	pop	{r4, r5, r6, r7, pc}
 80033fe:	2340      	movs	r3, #64	; 0x40
 8003400:	617b      	str	r3, [r7, #20]
 8003402:	2300      	movs	r3, #0
 8003404:	ac08      	add	r4, sp, #32
 8003406:	6163      	str	r3, [r4, #20]
 8003408:	3320      	adds	r3, #32
 800340a:	7663      	strb	r3, [r4, #25]
 800340c:	3310      	adds	r3, #16
 800340e:	76a3      	strb	r3, [r4, #26]
 8003410:	9507      	str	r5, [sp, #28]
 8003412:	0035      	movs	r5, r6
 8003414:	782b      	ldrb	r3, [r5, #0]
 8003416:	2b00      	cmp	r3, #0
 8003418:	d001      	beq.n	800341e <_svfiprintf_r+0x52>
 800341a:	2b25      	cmp	r3, #37	; 0x25
 800341c:	d147      	bne.n	80034ae <_svfiprintf_r+0xe2>
 800341e:	1bab      	subs	r3, r5, r6
 8003420:	9305      	str	r3, [sp, #20]
 8003422:	42b5      	cmp	r5, r6
 8003424:	d00c      	beq.n	8003440 <_svfiprintf_r+0x74>
 8003426:	0032      	movs	r2, r6
 8003428:	0039      	movs	r1, r7
 800342a:	9803      	ldr	r0, [sp, #12]
 800342c:	f7ff ff6c 	bl	8003308 <__ssputs_r>
 8003430:	1c43      	adds	r3, r0, #1
 8003432:	d100      	bne.n	8003436 <_svfiprintf_r+0x6a>
 8003434:	e0ae      	b.n	8003594 <_svfiprintf_r+0x1c8>
 8003436:	6962      	ldr	r2, [r4, #20]
 8003438:	9b05      	ldr	r3, [sp, #20]
 800343a:	4694      	mov	ip, r2
 800343c:	4463      	add	r3, ip
 800343e:	6163      	str	r3, [r4, #20]
 8003440:	782b      	ldrb	r3, [r5, #0]
 8003442:	2b00      	cmp	r3, #0
 8003444:	d100      	bne.n	8003448 <_svfiprintf_r+0x7c>
 8003446:	e0a5      	b.n	8003594 <_svfiprintf_r+0x1c8>
 8003448:	2201      	movs	r2, #1
 800344a:	2300      	movs	r3, #0
 800344c:	4252      	negs	r2, r2
 800344e:	6062      	str	r2, [r4, #4]
 8003450:	a904      	add	r1, sp, #16
 8003452:	3254      	adds	r2, #84	; 0x54
 8003454:	1852      	adds	r2, r2, r1
 8003456:	1c6e      	adds	r6, r5, #1
 8003458:	6023      	str	r3, [r4, #0]
 800345a:	60e3      	str	r3, [r4, #12]
 800345c:	60a3      	str	r3, [r4, #8]
 800345e:	7013      	strb	r3, [r2, #0]
 8003460:	65a3      	str	r3, [r4, #88]	; 0x58
 8003462:	2205      	movs	r2, #5
 8003464:	7831      	ldrb	r1, [r6, #0]
 8003466:	4854      	ldr	r0, [pc, #336]	; (80035b8 <_svfiprintf_r+0x1ec>)
 8003468:	f000 fa32 	bl	80038d0 <memchr>
 800346c:	1c75      	adds	r5, r6, #1
 800346e:	2800      	cmp	r0, #0
 8003470:	d11f      	bne.n	80034b2 <_svfiprintf_r+0xe6>
 8003472:	6822      	ldr	r2, [r4, #0]
 8003474:	06d3      	lsls	r3, r2, #27
 8003476:	d504      	bpl.n	8003482 <_svfiprintf_r+0xb6>
 8003478:	2353      	movs	r3, #83	; 0x53
 800347a:	a904      	add	r1, sp, #16
 800347c:	185b      	adds	r3, r3, r1
 800347e:	2120      	movs	r1, #32
 8003480:	7019      	strb	r1, [r3, #0]
 8003482:	0713      	lsls	r3, r2, #28
 8003484:	d504      	bpl.n	8003490 <_svfiprintf_r+0xc4>
 8003486:	2353      	movs	r3, #83	; 0x53
 8003488:	a904      	add	r1, sp, #16
 800348a:	185b      	adds	r3, r3, r1
 800348c:	212b      	movs	r1, #43	; 0x2b
 800348e:	7019      	strb	r1, [r3, #0]
 8003490:	7833      	ldrb	r3, [r6, #0]
 8003492:	2b2a      	cmp	r3, #42	; 0x2a
 8003494:	d016      	beq.n	80034c4 <_svfiprintf_r+0xf8>
 8003496:	0035      	movs	r5, r6
 8003498:	2100      	movs	r1, #0
 800349a:	200a      	movs	r0, #10
 800349c:	68e3      	ldr	r3, [r4, #12]
 800349e:	782a      	ldrb	r2, [r5, #0]
 80034a0:	1c6e      	adds	r6, r5, #1
 80034a2:	3a30      	subs	r2, #48	; 0x30
 80034a4:	2a09      	cmp	r2, #9
 80034a6:	d94e      	bls.n	8003546 <_svfiprintf_r+0x17a>
 80034a8:	2900      	cmp	r1, #0
 80034aa:	d111      	bne.n	80034d0 <_svfiprintf_r+0x104>
 80034ac:	e017      	b.n	80034de <_svfiprintf_r+0x112>
 80034ae:	3501      	adds	r5, #1
 80034b0:	e7b0      	b.n	8003414 <_svfiprintf_r+0x48>
 80034b2:	4b41      	ldr	r3, [pc, #260]	; (80035b8 <_svfiprintf_r+0x1ec>)
 80034b4:	6822      	ldr	r2, [r4, #0]
 80034b6:	1ac0      	subs	r0, r0, r3
 80034b8:	2301      	movs	r3, #1
 80034ba:	4083      	lsls	r3, r0
 80034bc:	4313      	orrs	r3, r2
 80034be:	002e      	movs	r6, r5
 80034c0:	6023      	str	r3, [r4, #0]
 80034c2:	e7ce      	b.n	8003462 <_svfiprintf_r+0x96>
 80034c4:	9b07      	ldr	r3, [sp, #28]
 80034c6:	1d19      	adds	r1, r3, #4
 80034c8:	681b      	ldr	r3, [r3, #0]
 80034ca:	9107      	str	r1, [sp, #28]
 80034cc:	2b00      	cmp	r3, #0
 80034ce:	db01      	blt.n	80034d4 <_svfiprintf_r+0x108>
 80034d0:	930b      	str	r3, [sp, #44]	; 0x2c
 80034d2:	e004      	b.n	80034de <_svfiprintf_r+0x112>
 80034d4:	425b      	negs	r3, r3
 80034d6:	60e3      	str	r3, [r4, #12]
 80034d8:	2302      	movs	r3, #2
 80034da:	4313      	orrs	r3, r2
 80034dc:	6023      	str	r3, [r4, #0]
 80034de:	782b      	ldrb	r3, [r5, #0]
 80034e0:	2b2e      	cmp	r3, #46	; 0x2e
 80034e2:	d10a      	bne.n	80034fa <_svfiprintf_r+0x12e>
 80034e4:	786b      	ldrb	r3, [r5, #1]
 80034e6:	2b2a      	cmp	r3, #42	; 0x2a
 80034e8:	d135      	bne.n	8003556 <_svfiprintf_r+0x18a>
 80034ea:	9b07      	ldr	r3, [sp, #28]
 80034ec:	3502      	adds	r5, #2
 80034ee:	1d1a      	adds	r2, r3, #4
 80034f0:	681b      	ldr	r3, [r3, #0]
 80034f2:	9207      	str	r2, [sp, #28]
 80034f4:	2b00      	cmp	r3, #0
 80034f6:	db2b      	blt.n	8003550 <_svfiprintf_r+0x184>
 80034f8:	9309      	str	r3, [sp, #36]	; 0x24
 80034fa:	4e30      	ldr	r6, [pc, #192]	; (80035bc <_svfiprintf_r+0x1f0>)
 80034fc:	2203      	movs	r2, #3
 80034fe:	0030      	movs	r0, r6
 8003500:	7829      	ldrb	r1, [r5, #0]
 8003502:	f000 f9e5 	bl	80038d0 <memchr>
 8003506:	2800      	cmp	r0, #0
 8003508:	d006      	beq.n	8003518 <_svfiprintf_r+0x14c>
 800350a:	2340      	movs	r3, #64	; 0x40
 800350c:	1b80      	subs	r0, r0, r6
 800350e:	4083      	lsls	r3, r0
 8003510:	6822      	ldr	r2, [r4, #0]
 8003512:	3501      	adds	r5, #1
 8003514:	4313      	orrs	r3, r2
 8003516:	6023      	str	r3, [r4, #0]
 8003518:	7829      	ldrb	r1, [r5, #0]
 800351a:	2206      	movs	r2, #6
 800351c:	4828      	ldr	r0, [pc, #160]	; (80035c0 <_svfiprintf_r+0x1f4>)
 800351e:	1c6e      	adds	r6, r5, #1
 8003520:	7621      	strb	r1, [r4, #24]
 8003522:	f000 f9d5 	bl	80038d0 <memchr>
 8003526:	2800      	cmp	r0, #0
 8003528:	d03c      	beq.n	80035a4 <_svfiprintf_r+0x1d8>
 800352a:	4b26      	ldr	r3, [pc, #152]	; (80035c4 <_svfiprintf_r+0x1f8>)
 800352c:	2b00      	cmp	r3, #0
 800352e:	d125      	bne.n	800357c <_svfiprintf_r+0x1b0>
 8003530:	2207      	movs	r2, #7
 8003532:	9b07      	ldr	r3, [sp, #28]
 8003534:	3307      	adds	r3, #7
 8003536:	4393      	bics	r3, r2
 8003538:	3308      	adds	r3, #8
 800353a:	9307      	str	r3, [sp, #28]
 800353c:	6963      	ldr	r3, [r4, #20]
 800353e:	9a04      	ldr	r2, [sp, #16]
 8003540:	189b      	adds	r3, r3, r2
 8003542:	6163      	str	r3, [r4, #20]
 8003544:	e765      	b.n	8003412 <_svfiprintf_r+0x46>
 8003546:	4343      	muls	r3, r0
 8003548:	0035      	movs	r5, r6
 800354a:	2101      	movs	r1, #1
 800354c:	189b      	adds	r3, r3, r2
 800354e:	e7a6      	b.n	800349e <_svfiprintf_r+0xd2>
 8003550:	2301      	movs	r3, #1
 8003552:	425b      	negs	r3, r3
 8003554:	e7d0      	b.n	80034f8 <_svfiprintf_r+0x12c>
 8003556:	2300      	movs	r3, #0
 8003558:	200a      	movs	r0, #10
 800355a:	001a      	movs	r2, r3
 800355c:	3501      	adds	r5, #1
 800355e:	6063      	str	r3, [r4, #4]
 8003560:	7829      	ldrb	r1, [r5, #0]
 8003562:	1c6e      	adds	r6, r5, #1
 8003564:	3930      	subs	r1, #48	; 0x30
 8003566:	2909      	cmp	r1, #9
 8003568:	d903      	bls.n	8003572 <_svfiprintf_r+0x1a6>
 800356a:	2b00      	cmp	r3, #0
 800356c:	d0c5      	beq.n	80034fa <_svfiprintf_r+0x12e>
 800356e:	9209      	str	r2, [sp, #36]	; 0x24
 8003570:	e7c3      	b.n	80034fa <_svfiprintf_r+0x12e>
 8003572:	4342      	muls	r2, r0
 8003574:	0035      	movs	r5, r6
 8003576:	2301      	movs	r3, #1
 8003578:	1852      	adds	r2, r2, r1
 800357a:	e7f1      	b.n	8003560 <_svfiprintf_r+0x194>
 800357c:	ab07      	add	r3, sp, #28
 800357e:	9300      	str	r3, [sp, #0]
 8003580:	003a      	movs	r2, r7
 8003582:	0021      	movs	r1, r4
 8003584:	4b10      	ldr	r3, [pc, #64]	; (80035c8 <_svfiprintf_r+0x1fc>)
 8003586:	9803      	ldr	r0, [sp, #12]
 8003588:	e000      	b.n	800358c <_svfiprintf_r+0x1c0>
 800358a:	bf00      	nop
 800358c:	9004      	str	r0, [sp, #16]
 800358e:	9b04      	ldr	r3, [sp, #16]
 8003590:	3301      	adds	r3, #1
 8003592:	d1d3      	bne.n	800353c <_svfiprintf_r+0x170>
 8003594:	89bb      	ldrh	r3, [r7, #12]
 8003596:	980d      	ldr	r0, [sp, #52]	; 0x34
 8003598:	065b      	lsls	r3, r3, #25
 800359a:	d400      	bmi.n	800359e <_svfiprintf_r+0x1d2>
 800359c:	e72d      	b.n	80033fa <_svfiprintf_r+0x2e>
 800359e:	2001      	movs	r0, #1
 80035a0:	4240      	negs	r0, r0
 80035a2:	e72a      	b.n	80033fa <_svfiprintf_r+0x2e>
 80035a4:	ab07      	add	r3, sp, #28
 80035a6:	9300      	str	r3, [sp, #0]
 80035a8:	003a      	movs	r2, r7
 80035aa:	0021      	movs	r1, r4
 80035ac:	4b06      	ldr	r3, [pc, #24]	; (80035c8 <_svfiprintf_r+0x1fc>)
 80035ae:	9803      	ldr	r0, [sp, #12]
 80035b0:	f000 f87c 	bl	80036ac <_printf_i>
 80035b4:	e7ea      	b.n	800358c <_svfiprintf_r+0x1c0>
 80035b6:	46c0      	nop			; (mov r8, r8)
 80035b8:	08003e87 	.word	0x08003e87
 80035bc:	08003e8d 	.word	0x08003e8d
 80035c0:	08003e91 	.word	0x08003e91
 80035c4:	00000000 	.word	0x00000000
 80035c8:	08003309 	.word	0x08003309

080035cc <_printf_common>:
 80035cc:	b5f7      	push	{r0, r1, r2, r4, r5, r6, r7, lr}
 80035ce:	0015      	movs	r5, r2
 80035d0:	9301      	str	r3, [sp, #4]
 80035d2:	688a      	ldr	r2, [r1, #8]
 80035d4:	690b      	ldr	r3, [r1, #16]
 80035d6:	000c      	movs	r4, r1
 80035d8:	9000      	str	r0, [sp, #0]
 80035da:	4293      	cmp	r3, r2
 80035dc:	da00      	bge.n	80035e0 <_printf_common+0x14>
 80035de:	0013      	movs	r3, r2
 80035e0:	0022      	movs	r2, r4
 80035e2:	602b      	str	r3, [r5, #0]
 80035e4:	3243      	adds	r2, #67	; 0x43
 80035e6:	7812      	ldrb	r2, [r2, #0]
 80035e8:	2a00      	cmp	r2, #0
 80035ea:	d001      	beq.n	80035f0 <_printf_common+0x24>
 80035ec:	3301      	adds	r3, #1
 80035ee:	602b      	str	r3, [r5, #0]
 80035f0:	6823      	ldr	r3, [r4, #0]
 80035f2:	069b      	lsls	r3, r3, #26
 80035f4:	d502      	bpl.n	80035fc <_printf_common+0x30>
 80035f6:	682b      	ldr	r3, [r5, #0]
 80035f8:	3302      	adds	r3, #2
 80035fa:	602b      	str	r3, [r5, #0]
 80035fc:	6822      	ldr	r2, [r4, #0]
 80035fe:	2306      	movs	r3, #6
 8003600:	0017      	movs	r7, r2
 8003602:	401f      	ands	r7, r3
 8003604:	421a      	tst	r2, r3
 8003606:	d027      	beq.n	8003658 <_printf_common+0x8c>
 8003608:	0023      	movs	r3, r4
 800360a:	3343      	adds	r3, #67	; 0x43
 800360c:	781b      	ldrb	r3, [r3, #0]
 800360e:	1e5a      	subs	r2, r3, #1
 8003610:	4193      	sbcs	r3, r2
 8003612:	6822      	ldr	r2, [r4, #0]
 8003614:	0692      	lsls	r2, r2, #26
 8003616:	d430      	bmi.n	800367a <_printf_common+0xae>
 8003618:	0022      	movs	r2, r4
 800361a:	9901      	ldr	r1, [sp, #4]
 800361c:	9800      	ldr	r0, [sp, #0]
 800361e:	9e08      	ldr	r6, [sp, #32]
 8003620:	3243      	adds	r2, #67	; 0x43
 8003622:	47b0      	blx	r6
 8003624:	1c43      	adds	r3, r0, #1
 8003626:	d025      	beq.n	8003674 <_printf_common+0xa8>
 8003628:	2306      	movs	r3, #6
 800362a:	6820      	ldr	r0, [r4, #0]
 800362c:	682a      	ldr	r2, [r5, #0]
 800362e:	68e1      	ldr	r1, [r4, #12]
 8003630:	2500      	movs	r5, #0
 8003632:	4003      	ands	r3, r0
 8003634:	2b04      	cmp	r3, #4
 8003636:	d103      	bne.n	8003640 <_printf_common+0x74>
 8003638:	1a8d      	subs	r5, r1, r2
 800363a:	43eb      	mvns	r3, r5
 800363c:	17db      	asrs	r3, r3, #31
 800363e:	401d      	ands	r5, r3
 8003640:	68a3      	ldr	r3, [r4, #8]
 8003642:	6922      	ldr	r2, [r4, #16]
 8003644:	4293      	cmp	r3, r2
 8003646:	dd01      	ble.n	800364c <_printf_common+0x80>
 8003648:	1a9b      	subs	r3, r3, r2
 800364a:	18ed      	adds	r5, r5, r3
 800364c:	2700      	movs	r7, #0
 800364e:	42bd      	cmp	r5, r7
 8003650:	d120      	bne.n	8003694 <_printf_common+0xc8>
 8003652:	2000      	movs	r0, #0
 8003654:	e010      	b.n	8003678 <_printf_common+0xac>
 8003656:	3701      	adds	r7, #1
 8003658:	68e3      	ldr	r3, [r4, #12]
 800365a:	682a      	ldr	r2, [r5, #0]
 800365c:	1a9b      	subs	r3, r3, r2
 800365e:	42bb      	cmp	r3, r7
 8003660:	ddd2      	ble.n	8003608 <_printf_common+0x3c>
 8003662:	0022      	movs	r2, r4
 8003664:	2301      	movs	r3, #1
 8003666:	9901      	ldr	r1, [sp, #4]
 8003668:	9800      	ldr	r0, [sp, #0]
 800366a:	9e08      	ldr	r6, [sp, #32]
 800366c:	3219      	adds	r2, #25
 800366e:	47b0      	blx	r6
 8003670:	1c43      	adds	r3, r0, #1
 8003672:	d1f0      	bne.n	8003656 <_printf_common+0x8a>
 8003674:	2001      	movs	r0, #1
 8003676:	4240      	negs	r0, r0
 8003678:	bdfe      	pop	{r1, r2, r3, r4, r5, r6, r7, pc}
 800367a:	2030      	movs	r0, #48	; 0x30
 800367c:	18e1      	adds	r1, r4, r3
 800367e:	3143      	adds	r1, #67	; 0x43
 8003680:	7008      	strb	r0, [r1, #0]
 8003682:	0021      	movs	r1, r4
 8003684:	1c5a      	adds	r2, r3, #1
 8003686:	3145      	adds	r1, #69	; 0x45
 8003688:	7809      	ldrb	r1, [r1, #0]
 800368a:	18a2      	adds	r2, r4, r2
 800368c:	3243      	adds	r2, #67	; 0x43
 800368e:	3302      	adds	r3, #2
 8003690:	7011      	strb	r1, [r2, #0]
 8003692:	e7c1      	b.n	8003618 <_printf_common+0x4c>
 8003694:	0022      	movs	r2, r4
 8003696:	2301      	movs	r3, #1
 8003698:	9901      	ldr	r1, [sp, #4]
 800369a:	9800      	ldr	r0, [sp, #0]
 800369c:	9e08      	ldr	r6, [sp, #32]
 800369e:	321a      	adds	r2, #26
 80036a0:	47b0      	blx	r6
 80036a2:	1c43      	adds	r3, r0, #1
 80036a4:	d0e6      	beq.n	8003674 <_printf_common+0xa8>
 80036a6:	3701      	adds	r7, #1
 80036a8:	e7d1      	b.n	800364e <_printf_common+0x82>
	...

080036ac <_printf_i>:
 80036ac:	b5f0      	push	{r4, r5, r6, r7, lr}
 80036ae:	b08b      	sub	sp, #44	; 0x2c
 80036b0:	9206      	str	r2, [sp, #24]
 80036b2:	000a      	movs	r2, r1
 80036b4:	3243      	adds	r2, #67	; 0x43
 80036b6:	9307      	str	r3, [sp, #28]
 80036b8:	9005      	str	r0, [sp, #20]
 80036ba:	9204      	str	r2, [sp, #16]
 80036bc:	7e0a      	ldrb	r2, [r1, #24]
 80036be:	000c      	movs	r4, r1
 80036c0:	9b10      	ldr	r3, [sp, #64]	; 0x40
 80036c2:	2a78      	cmp	r2, #120	; 0x78
 80036c4:	d807      	bhi.n	80036d6 <_printf_i+0x2a>
 80036c6:	2a62      	cmp	r2, #98	; 0x62
 80036c8:	d809      	bhi.n	80036de <_printf_i+0x32>
 80036ca:	2a00      	cmp	r2, #0
 80036cc:	d100      	bne.n	80036d0 <_printf_i+0x24>
 80036ce:	e0c1      	b.n	8003854 <_printf_i+0x1a8>
 80036d0:	2a58      	cmp	r2, #88	; 0x58
 80036d2:	d100      	bne.n	80036d6 <_printf_i+0x2a>
 80036d4:	e08c      	b.n	80037f0 <_printf_i+0x144>
 80036d6:	0026      	movs	r6, r4
 80036d8:	3642      	adds	r6, #66	; 0x42
 80036da:	7032      	strb	r2, [r6, #0]
 80036dc:	e022      	b.n	8003724 <_printf_i+0x78>
 80036de:	0010      	movs	r0, r2
 80036e0:	3863      	subs	r0, #99	; 0x63
 80036e2:	2815      	cmp	r0, #21
 80036e4:	d8f7      	bhi.n	80036d6 <_printf_i+0x2a>
 80036e6:	f7fc fd21 	bl	800012c <__gnu_thumb1_case_shi>
 80036ea:	0016      	.short	0x0016
 80036ec:	fff6001f 	.word	0xfff6001f
 80036f0:	fff6fff6 	.word	0xfff6fff6
 80036f4:	001ffff6 	.word	0x001ffff6
 80036f8:	fff6fff6 	.word	0xfff6fff6
 80036fc:	fff6fff6 	.word	0xfff6fff6
 8003700:	003600a8 	.word	0x003600a8
 8003704:	fff6009a 	.word	0xfff6009a
 8003708:	00b9fff6 	.word	0x00b9fff6
 800370c:	0036fff6 	.word	0x0036fff6
 8003710:	fff6fff6 	.word	0xfff6fff6
 8003714:	009e      	.short	0x009e
 8003716:	0026      	movs	r6, r4
 8003718:	681a      	ldr	r2, [r3, #0]
 800371a:	3642      	adds	r6, #66	; 0x42
 800371c:	1d11      	adds	r1, r2, #4
 800371e:	6019      	str	r1, [r3, #0]
 8003720:	6813      	ldr	r3, [r2, #0]
 8003722:	7033      	strb	r3, [r6, #0]
 8003724:	2301      	movs	r3, #1
 8003726:	e0a7      	b.n	8003878 <_printf_i+0x1cc>
 8003728:	6808      	ldr	r0, [r1, #0]
 800372a:	6819      	ldr	r1, [r3, #0]
 800372c:	1d0a      	adds	r2, r1, #4
 800372e:	0605      	lsls	r5, r0, #24
 8003730:	d50b      	bpl.n	800374a <_printf_i+0x9e>
 8003732:	680d      	ldr	r5, [r1, #0]
 8003734:	601a      	str	r2, [r3, #0]
 8003736:	2d00      	cmp	r5, #0
 8003738:	da03      	bge.n	8003742 <_printf_i+0x96>
 800373a:	232d      	movs	r3, #45	; 0x2d
 800373c:	9a04      	ldr	r2, [sp, #16]
 800373e:	426d      	negs	r5, r5
 8003740:	7013      	strb	r3, [r2, #0]
 8003742:	4b61      	ldr	r3, [pc, #388]	; (80038c8 <_printf_i+0x21c>)
 8003744:	270a      	movs	r7, #10
 8003746:	9303      	str	r3, [sp, #12]
 8003748:	e01b      	b.n	8003782 <_printf_i+0xd6>
 800374a:	680d      	ldr	r5, [r1, #0]
 800374c:	601a      	str	r2, [r3, #0]
 800374e:	0641      	lsls	r1, r0, #25
 8003750:	d5f1      	bpl.n	8003736 <_printf_i+0x8a>
 8003752:	b22d      	sxth	r5, r5
 8003754:	e7ef      	b.n	8003736 <_printf_i+0x8a>
 8003756:	680d      	ldr	r5, [r1, #0]
 8003758:	6819      	ldr	r1, [r3, #0]
 800375a:	1d08      	adds	r0, r1, #4
 800375c:	6018      	str	r0, [r3, #0]
 800375e:	062e      	lsls	r6, r5, #24
 8003760:	d501      	bpl.n	8003766 <_printf_i+0xba>
 8003762:	680d      	ldr	r5, [r1, #0]
 8003764:	e003      	b.n	800376e <_printf_i+0xc2>
 8003766:	066d      	lsls	r5, r5, #25
 8003768:	d5fb      	bpl.n	8003762 <_printf_i+0xb6>
 800376a:	680d      	ldr	r5, [r1, #0]
 800376c:	b2ad      	uxth	r5, r5
 800376e:	4b56      	ldr	r3, [pc, #344]	; (80038c8 <_printf_i+0x21c>)
 8003770:	2708      	movs	r7, #8
 8003772:	9303      	str	r3, [sp, #12]
 8003774:	2a6f      	cmp	r2, #111	; 0x6f
 8003776:	d000      	beq.n	800377a <_printf_i+0xce>
 8003778:	3702      	adds	r7, #2
 800377a:	0023      	movs	r3, r4
 800377c:	2200      	movs	r2, #0
 800377e:	3343      	adds	r3, #67	; 0x43
 8003780:	701a      	strb	r2, [r3, #0]
 8003782:	6863      	ldr	r3, [r4, #4]
 8003784:	60a3      	str	r3, [r4, #8]
 8003786:	2b00      	cmp	r3, #0
 8003788:	db03      	blt.n	8003792 <_printf_i+0xe6>
 800378a:	2204      	movs	r2, #4
 800378c:	6821      	ldr	r1, [r4, #0]
 800378e:	4391      	bics	r1, r2
 8003790:	6021      	str	r1, [r4, #0]
 8003792:	2d00      	cmp	r5, #0
 8003794:	d102      	bne.n	800379c <_printf_i+0xf0>
 8003796:	9e04      	ldr	r6, [sp, #16]
 8003798:	2b00      	cmp	r3, #0
 800379a:	d00c      	beq.n	80037b6 <_printf_i+0x10a>
 800379c:	9e04      	ldr	r6, [sp, #16]
 800379e:	0028      	movs	r0, r5
 80037a0:	0039      	movs	r1, r7
 80037a2:	f7fc fd53 	bl	800024c <__aeabi_uidivmod>
 80037a6:	9b03      	ldr	r3, [sp, #12]
 80037a8:	3e01      	subs	r6, #1
 80037aa:	5c5b      	ldrb	r3, [r3, r1]
 80037ac:	7033      	strb	r3, [r6, #0]
 80037ae:	002b      	movs	r3, r5
 80037b0:	0005      	movs	r5, r0
 80037b2:	429f      	cmp	r7, r3
 80037b4:	d9f3      	bls.n	800379e <_printf_i+0xf2>
 80037b6:	2f08      	cmp	r7, #8
 80037b8:	d109      	bne.n	80037ce <_printf_i+0x122>
 80037ba:	6823      	ldr	r3, [r4, #0]
 80037bc:	07db      	lsls	r3, r3, #31
 80037be:	d506      	bpl.n	80037ce <_printf_i+0x122>
 80037c0:	6863      	ldr	r3, [r4, #4]
 80037c2:	6922      	ldr	r2, [r4, #16]
 80037c4:	4293      	cmp	r3, r2
 80037c6:	dc02      	bgt.n	80037ce <_printf_i+0x122>
 80037c8:	2330      	movs	r3, #48	; 0x30
 80037ca:	3e01      	subs	r6, #1
 80037cc:	7033      	strb	r3, [r6, #0]
 80037ce:	9b04      	ldr	r3, [sp, #16]
 80037d0:	1b9b      	subs	r3, r3, r6
 80037d2:	6123      	str	r3, [r4, #16]
 80037d4:	9b07      	ldr	r3, [sp, #28]
 80037d6:	0021      	movs	r1, r4
 80037d8:	9300      	str	r3, [sp, #0]
 80037da:	9805      	ldr	r0, [sp, #20]
 80037dc:	9b06      	ldr	r3, [sp, #24]
 80037de:	aa09      	add	r2, sp, #36	; 0x24
 80037e0:	f7ff fef4 	bl	80035cc <_printf_common>
 80037e4:	1c43      	adds	r3, r0, #1
 80037e6:	d14c      	bne.n	8003882 <_printf_i+0x1d6>
 80037e8:	2001      	movs	r0, #1
 80037ea:	4240      	negs	r0, r0
 80037ec:	b00b      	add	sp, #44	; 0x2c
 80037ee:	bdf0      	pop	{r4, r5, r6, r7, pc}
 80037f0:	3145      	adds	r1, #69	; 0x45
 80037f2:	700a      	strb	r2, [r1, #0]
 80037f4:	4a34      	ldr	r2, [pc, #208]	; (80038c8 <_printf_i+0x21c>)
 80037f6:	9203      	str	r2, [sp, #12]
 80037f8:	681a      	ldr	r2, [r3, #0]
 80037fa:	6821      	ldr	r1, [r4, #0]
 80037fc:	ca20      	ldmia	r2!, {r5}
 80037fe:	601a      	str	r2, [r3, #0]
 8003800:	0608      	lsls	r0, r1, #24
 8003802:	d516      	bpl.n	8003832 <_printf_i+0x186>
 8003804:	07cb      	lsls	r3, r1, #31
 8003806:	d502      	bpl.n	800380e <_printf_i+0x162>
 8003808:	2320      	movs	r3, #32
 800380a:	4319      	orrs	r1, r3
 800380c:	6021      	str	r1, [r4, #0]
 800380e:	2710      	movs	r7, #16
 8003810:	2d00      	cmp	r5, #0
 8003812:	d1b2      	bne.n	800377a <_printf_i+0xce>
 8003814:	2320      	movs	r3, #32
 8003816:	6822      	ldr	r2, [r4, #0]
 8003818:	439a      	bics	r2, r3
 800381a:	6022      	str	r2, [r4, #0]
 800381c:	e7ad      	b.n	800377a <_printf_i+0xce>
 800381e:	2220      	movs	r2, #32
 8003820:	6809      	ldr	r1, [r1, #0]
 8003822:	430a      	orrs	r2, r1
 8003824:	6022      	str	r2, [r4, #0]
 8003826:	0022      	movs	r2, r4
 8003828:	2178      	movs	r1, #120	; 0x78
 800382a:	3245      	adds	r2, #69	; 0x45
 800382c:	7011      	strb	r1, [r2, #0]
 800382e:	4a27      	ldr	r2, [pc, #156]	; (80038cc <_printf_i+0x220>)
 8003830:	e7e1      	b.n	80037f6 <_printf_i+0x14a>
 8003832:	0648      	lsls	r0, r1, #25
 8003834:	d5e6      	bpl.n	8003804 <_printf_i+0x158>
 8003836:	b2ad      	uxth	r5, r5
 8003838:	e7e4      	b.n	8003804 <_printf_i+0x158>
 800383a:	681a      	ldr	r2, [r3, #0]
 800383c:	680d      	ldr	r5, [r1, #0]
 800383e:	1d10      	adds	r0, r2, #4
 8003840:	6949      	ldr	r1, [r1, #20]
 8003842:	6018      	str	r0, [r3, #0]
 8003844:	6813      	ldr	r3, [r2, #0]
 8003846:	062e      	lsls	r6, r5, #24
 8003848:	d501      	bpl.n	800384e <_printf_i+0x1a2>
 800384a:	6019      	str	r1, [r3, #0]
 800384c:	e002      	b.n	8003854 <_printf_i+0x1a8>
 800384e:	066d      	lsls	r5, r5, #25
 8003850:	d5fb      	bpl.n	800384a <_printf_i+0x19e>
 8003852:	8019      	strh	r1, [r3, #0]
 8003854:	2300      	movs	r3, #0
 8003856:	9e04      	ldr	r6, [sp, #16]
 8003858:	6123      	str	r3, [r4, #16]
 800385a:	e7bb      	b.n	80037d4 <_printf_i+0x128>
 800385c:	681a      	ldr	r2, [r3, #0]
 800385e:	1d11      	adds	r1, r2, #4
 8003860:	6019      	str	r1, [r3, #0]
 8003862:	6816      	ldr	r6, [r2, #0]
 8003864:	2100      	movs	r1, #0
 8003866:	0030      	movs	r0, r6
 8003868:	6862      	ldr	r2, [r4, #4]
 800386a:	f000 f831 	bl	80038d0 <memchr>
 800386e:	2800      	cmp	r0, #0
 8003870:	d001      	beq.n	8003876 <_printf_i+0x1ca>
 8003872:	1b80      	subs	r0, r0, r6
 8003874:	6060      	str	r0, [r4, #4]
 8003876:	6863      	ldr	r3, [r4, #4]
 8003878:	6123      	str	r3, [r4, #16]
 800387a:	2300      	movs	r3, #0
 800387c:	9a04      	ldr	r2, [sp, #16]
 800387e:	7013      	strb	r3, [r2, #0]
 8003880:	e7a8      	b.n	80037d4 <_printf_i+0x128>
 8003882:	6923      	ldr	r3, [r4, #16]
 8003884:	0032      	movs	r2, r6
 8003886:	9906      	ldr	r1, [sp, #24]
 8003888:	9805      	ldr	r0, [sp, #20]
 800388a:	9d07      	ldr	r5, [sp, #28]
 800388c:	47a8      	blx	r5
 800388e:	1c43      	adds	r3, r0, #1
 8003890:	d0aa      	beq.n	80037e8 <_printf_i+0x13c>
 8003892:	6823      	ldr	r3, [r4, #0]
 8003894:	079b      	lsls	r3, r3, #30
 8003896:	d415      	bmi.n	80038c4 <_printf_i+0x218>
 8003898:	9b09      	ldr	r3, [sp, #36]	; 0x24
 800389a:	68e0      	ldr	r0, [r4, #12]
 800389c:	4298      	cmp	r0, r3
 800389e:	daa5      	bge.n	80037ec <_printf_i+0x140>
 80038a0:	0018      	movs	r0, r3
 80038a2:	e7a3      	b.n	80037ec <_printf_i+0x140>
 80038a4:	0022      	movs	r2, r4
 80038a6:	2301      	movs	r3, #1
 80038a8:	9906      	ldr	r1, [sp, #24]
 80038aa:	9805      	ldr	r0, [sp, #20]
 80038ac:	9e07      	ldr	r6, [sp, #28]
 80038ae:	3219      	adds	r2, #25
 80038b0:	47b0      	blx	r6
 80038b2:	1c43      	adds	r3, r0, #1
 80038b4:	d098      	beq.n	80037e8 <_printf_i+0x13c>
 80038b6:	3501      	adds	r5, #1
 80038b8:	68e3      	ldr	r3, [r4, #12]
 80038ba:	9a09      	ldr	r2, [sp, #36]	; 0x24
 80038bc:	1a9b      	subs	r3, r3, r2
 80038be:	42ab      	cmp	r3, r5
 80038c0:	dcf0      	bgt.n	80038a4 <_printf_i+0x1f8>
 80038c2:	e7e9      	b.n	8003898 <_printf_i+0x1ec>
 80038c4:	2500      	movs	r5, #0
 80038c6:	e7f7      	b.n	80038b8 <_printf_i+0x20c>
 80038c8:	08003e98 	.word	0x08003e98
 80038cc:	08003ea9 	.word	0x08003ea9

080038d0 <memchr>:
 80038d0:	b2c9      	uxtb	r1, r1
 80038d2:	1882      	adds	r2, r0, r2
 80038d4:	4290      	cmp	r0, r2
 80038d6:	d101      	bne.n	80038dc <memchr+0xc>
 80038d8:	2000      	movs	r0, #0
 80038da:	4770      	bx	lr
 80038dc:	7803      	ldrb	r3, [r0, #0]
 80038de:	428b      	cmp	r3, r1
 80038e0:	d0fb      	beq.n	80038da <memchr+0xa>
 80038e2:	3001      	adds	r0, #1
 80038e4:	e7f6      	b.n	80038d4 <memchr+0x4>
	...

080038e8 <_free_r>:
 80038e8:	b570      	push	{r4, r5, r6, lr}
 80038ea:	0005      	movs	r5, r0
 80038ec:	2900      	cmp	r1, #0
 80038ee:	d010      	beq.n	8003912 <_free_r+0x2a>
 80038f0:	1f0c      	subs	r4, r1, #4
 80038f2:	6823      	ldr	r3, [r4, #0]
 80038f4:	2b00      	cmp	r3, #0
 80038f6:	da00      	bge.n	80038fa <_free_r+0x12>
 80038f8:	18e4      	adds	r4, r4, r3
 80038fa:	0028      	movs	r0, r5
 80038fc:	f000 f918 	bl	8003b30 <__malloc_lock>
 8003900:	4a1d      	ldr	r2, [pc, #116]	; (8003978 <_free_r+0x90>)
 8003902:	6813      	ldr	r3, [r2, #0]
 8003904:	2b00      	cmp	r3, #0
 8003906:	d105      	bne.n	8003914 <_free_r+0x2c>
 8003908:	6063      	str	r3, [r4, #4]
 800390a:	6014      	str	r4, [r2, #0]
 800390c:	0028      	movs	r0, r5
 800390e:	f000 f917 	bl	8003b40 <__malloc_unlock>
 8003912:	bd70      	pop	{r4, r5, r6, pc}
 8003914:	42a3      	cmp	r3, r4
 8003916:	d908      	bls.n	800392a <_free_r+0x42>
 8003918:	6821      	ldr	r1, [r4, #0]
 800391a:	1860      	adds	r0, r4, r1
 800391c:	4283      	cmp	r3, r0
 800391e:	d1f3      	bne.n	8003908 <_free_r+0x20>
 8003920:	6818      	ldr	r0, [r3, #0]
 8003922:	685b      	ldr	r3, [r3, #4]
 8003924:	1841      	adds	r1, r0, r1
 8003926:	6021      	str	r1, [r4, #0]
 8003928:	e7ee      	b.n	8003908 <_free_r+0x20>
 800392a:	001a      	movs	r2, r3
 800392c:	685b      	ldr	r3, [r3, #4]
 800392e:	2b00      	cmp	r3, #0
 8003930:	d001      	beq.n	8003936 <_free_r+0x4e>
 8003932:	42a3      	cmp	r3, r4
 8003934:	d9f9      	bls.n	800392a <_free_r+0x42>
 8003936:	6811      	ldr	r1, [r2, #0]
 8003938:	1850      	adds	r0, r2, r1
 800393a:	42a0      	cmp	r0, r4
 800393c:	d10b      	bne.n	8003956 <_free_r+0x6e>
 800393e:	6820      	ldr	r0, [r4, #0]
 8003940:	1809      	adds	r1, r1, r0
 8003942:	1850      	adds	r0, r2, r1
 8003944:	6011      	str	r1, [r2, #0]
 8003946:	4283      	cmp	r3, r0
 8003948:	d1e0      	bne.n	800390c <_free_r+0x24>
 800394a:	6818      	ldr	r0, [r3, #0]
 800394c:	685b      	ldr	r3, [r3, #4]
 800394e:	1841      	adds	r1, r0, r1
 8003950:	6011      	str	r1, [r2, #0]
 8003952:	6053      	str	r3, [r2, #4]
 8003954:	e7da      	b.n	800390c <_free_r+0x24>
 8003956:	42a0      	cmp	r0, r4
 8003958:	d902      	bls.n	8003960 <_free_r+0x78>
 800395a:	230c      	movs	r3, #12
 800395c:	602b      	str	r3, [r5, #0]
 800395e:	e7d5      	b.n	800390c <_free_r+0x24>
 8003960:	6821      	ldr	r1, [r4, #0]
 8003962:	1860      	adds	r0, r4, r1
 8003964:	4283      	cmp	r3, r0
 8003966:	d103      	bne.n	8003970 <_free_r+0x88>
 8003968:	6818      	ldr	r0, [r3, #0]
 800396a:	685b      	ldr	r3, [r3, #4]
 800396c:	1841      	adds	r1, r0, r1
 800396e:	6021      	str	r1, [r4, #0]
 8003970:	6063      	str	r3, [r4, #4]
 8003972:	6054      	str	r4, [r2, #4]
 8003974:	e7ca      	b.n	800390c <_free_r+0x24>
 8003976:	46c0      	nop			; (mov r8, r8)
 8003978:	2000032c 	.word	0x2000032c

0800397c <sbrk_aligned>:
 800397c:	b570      	push	{r4, r5, r6, lr}
 800397e:	4e0f      	ldr	r6, [pc, #60]	; (80039bc <sbrk_aligned+0x40>)
 8003980:	000d      	movs	r5, r1
 8003982:	6831      	ldr	r1, [r6, #0]
 8003984:	0004      	movs	r4, r0
 8003986:	2900      	cmp	r1, #0
 8003988:	d102      	bne.n	8003990 <sbrk_aligned+0x14>
 800398a:	f000 f8bf 	bl	8003b0c <_sbrk_r>
 800398e:	6030      	str	r0, [r6, #0]
 8003990:	0029      	movs	r1, r5
 8003992:	0020      	movs	r0, r4
 8003994:	f000 f8ba 	bl	8003b0c <_sbrk_r>
 8003998:	1c43      	adds	r3, r0, #1
 800399a:	d00a      	beq.n	80039b2 <sbrk_aligned+0x36>
 800399c:	2303      	movs	r3, #3
 800399e:	1cc5      	adds	r5, r0, #3
 80039a0:	439d      	bics	r5, r3
 80039a2:	42a8      	cmp	r0, r5
 80039a4:	d007      	beq.n	80039b6 <sbrk_aligned+0x3a>
 80039a6:	1a29      	subs	r1, r5, r0
 80039a8:	0020      	movs	r0, r4
 80039aa:	f000 f8af 	bl	8003b0c <_sbrk_r>
 80039ae:	1c43      	adds	r3, r0, #1
 80039b0:	d101      	bne.n	80039b6 <sbrk_aligned+0x3a>
 80039b2:	2501      	movs	r5, #1
 80039b4:	426d      	negs	r5, r5
 80039b6:	0028      	movs	r0, r5
 80039b8:	bd70      	pop	{r4, r5, r6, pc}
 80039ba:	46c0      	nop			; (mov r8, r8)
 80039bc:	20000330 	.word	0x20000330

080039c0 <_malloc_r>:
 80039c0:	b5f7      	push	{r0, r1, r2, r4, r5, r6, r7, lr}
 80039c2:	2203      	movs	r2, #3
 80039c4:	1ccb      	adds	r3, r1, #3
 80039c6:	4393      	bics	r3, r2
 80039c8:	3308      	adds	r3, #8
 80039ca:	0006      	movs	r6, r0
 80039cc:	001f      	movs	r7, r3
 80039ce:	2b0c      	cmp	r3, #12
 80039d0:	d232      	bcs.n	8003a38 <_malloc_r+0x78>
 80039d2:	270c      	movs	r7, #12
 80039d4:	42b9      	cmp	r1, r7
 80039d6:	d831      	bhi.n	8003a3c <_malloc_r+0x7c>
 80039d8:	0030      	movs	r0, r6
 80039da:	f000 f8a9 	bl	8003b30 <__malloc_lock>
 80039de:	4d32      	ldr	r5, [pc, #200]	; (8003aa8 <_malloc_r+0xe8>)
 80039e0:	682b      	ldr	r3, [r5, #0]
 80039e2:	001c      	movs	r4, r3
 80039e4:	2c00      	cmp	r4, #0
 80039e6:	d12e      	bne.n	8003a46 <_malloc_r+0x86>
 80039e8:	0039      	movs	r1, r7
 80039ea:	0030      	movs	r0, r6
 80039ec:	f7ff ffc6 	bl	800397c <sbrk_aligned>
 80039f0:	0004      	movs	r4, r0
 80039f2:	1c43      	adds	r3, r0, #1
 80039f4:	d11e      	bne.n	8003a34 <_malloc_r+0x74>
 80039f6:	682c      	ldr	r4, [r5, #0]
 80039f8:	0025      	movs	r5, r4
 80039fa:	2d00      	cmp	r5, #0
 80039fc:	d14a      	bne.n	8003a94 <_malloc_r+0xd4>
 80039fe:	6823      	ldr	r3, [r4, #0]
 8003a00:	0029      	movs	r1, r5
 8003a02:	18e3      	adds	r3, r4, r3
 8003a04:	0030      	movs	r0, r6
 8003a06:	9301      	str	r3, [sp, #4]
 8003a08:	f000 f880 	bl	8003b0c <_sbrk_r>
 8003a0c:	9b01      	ldr	r3, [sp, #4]
 8003a0e:	4283      	cmp	r3, r0
 8003a10:	d143      	bne.n	8003a9a <_malloc_r+0xda>
 8003a12:	6823      	ldr	r3, [r4, #0]
 8003a14:	3703      	adds	r7, #3
 8003a16:	1aff      	subs	r7, r7, r3
 8003a18:	2303      	movs	r3, #3
 8003a1a:	439f      	bics	r7, r3
 8003a1c:	3708      	adds	r7, #8
 8003a1e:	2f0c      	cmp	r7, #12
 8003a20:	d200      	bcs.n	8003a24 <_malloc_r+0x64>
 8003a22:	270c      	movs	r7, #12
 8003a24:	0039      	movs	r1, r7
 8003a26:	0030      	movs	r0, r6
 8003a28:	f7ff ffa8 	bl	800397c <sbrk_aligned>
 8003a2c:	1c43      	adds	r3, r0, #1
 8003a2e:	d034      	beq.n	8003a9a <_malloc_r+0xda>
 8003a30:	6823      	ldr	r3, [r4, #0]
 8003a32:	19df      	adds	r7, r3, r7
 8003a34:	6027      	str	r7, [r4, #0]
 8003a36:	e013      	b.n	8003a60 <_malloc_r+0xa0>
 8003a38:	2b00      	cmp	r3, #0
 8003a3a:	dacb      	bge.n	80039d4 <_malloc_r+0x14>
 8003a3c:	230c      	movs	r3, #12
 8003a3e:	2500      	movs	r5, #0
 8003a40:	6033      	str	r3, [r6, #0]
 8003a42:	0028      	movs	r0, r5
 8003a44:	bdfe      	pop	{r1, r2, r3, r4, r5, r6, r7, pc}
 8003a46:	6822      	ldr	r2, [r4, #0]
 8003a48:	1bd1      	subs	r1, r2, r7
 8003a4a:	d420      	bmi.n	8003a8e <_malloc_r+0xce>
 8003a4c:	290b      	cmp	r1, #11
 8003a4e:	d917      	bls.n	8003a80 <_malloc_r+0xc0>
 8003a50:	19e2      	adds	r2, r4, r7
 8003a52:	6027      	str	r7, [r4, #0]
 8003a54:	42a3      	cmp	r3, r4
 8003a56:	d111      	bne.n	8003a7c <_malloc_r+0xbc>
 8003a58:	602a      	str	r2, [r5, #0]
 8003a5a:	6863      	ldr	r3, [r4, #4]
 8003a5c:	6011      	str	r1, [r2, #0]
 8003a5e:	6053      	str	r3, [r2, #4]
 8003a60:	0030      	movs	r0, r6
 8003a62:	0025      	movs	r5, r4
 8003a64:	f000 f86c 	bl	8003b40 <__malloc_unlock>
 8003a68:	2207      	movs	r2, #7
 8003a6a:	350b      	adds	r5, #11
 8003a6c:	1d23      	adds	r3, r4, #4
 8003a6e:	4395      	bics	r5, r2
 8003a70:	1aea      	subs	r2, r5, r3
 8003a72:	429d      	cmp	r5, r3
 8003a74:	d0e5      	beq.n	8003a42 <_malloc_r+0x82>
 8003a76:	1b5b      	subs	r3, r3, r5
 8003a78:	50a3      	str	r3, [r4, r2]
 8003a7a:	e7e2      	b.n	8003a42 <_malloc_r+0x82>
 8003a7c:	605a      	str	r2, [r3, #4]
 8003a7e:	e7ec      	b.n	8003a5a <_malloc_r+0x9a>
 8003a80:	6862      	ldr	r2, [r4, #4]
 8003a82:	42a3      	cmp	r3, r4
 8003a84:	d101      	bne.n	8003a8a <_malloc_r+0xca>
 8003a86:	602a      	str	r2, [r5, #0]
 8003a88:	e7ea      	b.n	8003a60 <_malloc_r+0xa0>
 8003a8a:	605a      	str	r2, [r3, #4]
 8003a8c:	e7e8      	b.n	8003a60 <_malloc_r+0xa0>
 8003a8e:	0023      	movs	r3, r4
 8003a90:	6864      	ldr	r4, [r4, #4]
 8003a92:	e7a7      	b.n	80039e4 <_malloc_r+0x24>
 8003a94:	002c      	movs	r4, r5
 8003a96:	686d      	ldr	r5, [r5, #4]
 8003a98:	e7af      	b.n	80039fa <_malloc_r+0x3a>
 8003a9a:	230c      	movs	r3, #12
 8003a9c:	0030      	movs	r0, r6
 8003a9e:	6033      	str	r3, [r6, #0]
 8003aa0:	f000 f84e 	bl	8003b40 <__malloc_unlock>
 8003aa4:	e7cd      	b.n	8003a42 <_malloc_r+0x82>
 8003aa6:	46c0      	nop			; (mov r8, r8)
 8003aa8:	2000032c 	.word	0x2000032c

08003aac <_realloc_r>:
 8003aac:	b5f7      	push	{r0, r1, r2, r4, r5, r6, r7, lr}
 8003aae:	0007      	movs	r7, r0
 8003ab0:	000e      	movs	r6, r1
 8003ab2:	0014      	movs	r4, r2
 8003ab4:	2900      	cmp	r1, #0
 8003ab6:	d105      	bne.n	8003ac4 <_realloc_r+0x18>
 8003ab8:	0011      	movs	r1, r2
 8003aba:	f7ff ff81 	bl	80039c0 <_malloc_r>
 8003abe:	0005      	movs	r5, r0
 8003ac0:	0028      	movs	r0, r5
 8003ac2:	bdfe      	pop	{r1, r2, r3, r4, r5, r6, r7, pc}
 8003ac4:	2a00      	cmp	r2, #0
 8003ac6:	d103      	bne.n	8003ad0 <_realloc_r+0x24>
 8003ac8:	f7ff ff0e 	bl	80038e8 <_free_r>
 8003acc:	0025      	movs	r5, r4
 8003ace:	e7f7      	b.n	8003ac0 <_realloc_r+0x14>
 8003ad0:	f000 f83e 	bl	8003b50 <_malloc_usable_size_r>
 8003ad4:	9001      	str	r0, [sp, #4]
 8003ad6:	4284      	cmp	r4, r0
 8003ad8:	d803      	bhi.n	8003ae2 <_realloc_r+0x36>
 8003ada:	0035      	movs	r5, r6
 8003adc:	0843      	lsrs	r3, r0, #1
 8003ade:	42a3      	cmp	r3, r4
 8003ae0:	d3ee      	bcc.n	8003ac0 <_realloc_r+0x14>
 8003ae2:	0021      	movs	r1, r4
 8003ae4:	0038      	movs	r0, r7
 8003ae6:	f7ff ff6b 	bl	80039c0 <_malloc_r>
 8003aea:	1e05      	subs	r5, r0, #0
 8003aec:	d0e8      	beq.n	8003ac0 <_realloc_r+0x14>
 8003aee:	9b01      	ldr	r3, [sp, #4]
 8003af0:	0022      	movs	r2, r4
 8003af2:	429c      	cmp	r4, r3
 8003af4:	d900      	bls.n	8003af8 <_realloc_r+0x4c>
 8003af6:	001a      	movs	r2, r3
 8003af8:	0031      	movs	r1, r6
 8003afa:	0028      	movs	r0, r5
 8003afc:	f7ff fbc0 	bl	8003280 <memcpy>
 8003b00:	0031      	movs	r1, r6
 8003b02:	0038      	movs	r0, r7
 8003b04:	f7ff fef0 	bl	80038e8 <_free_r>
 8003b08:	e7da      	b.n	8003ac0 <_realloc_r+0x14>
	...

08003b0c <_sbrk_r>:
 8003b0c:	2300      	movs	r3, #0
 8003b0e:	b570      	push	{r4, r5, r6, lr}
 8003b10:	4d06      	ldr	r5, [pc, #24]	; (8003b2c <_sbrk_r+0x20>)
 8003b12:	0004      	movs	r4, r0
 8003b14:	0008      	movs	r0, r1
 8003b16:	602b      	str	r3, [r5, #0]
 8003b18:	f7fd fc96 	bl	8001448 <_sbrk>
 8003b1c:	1c43      	adds	r3, r0, #1
 8003b1e:	d103      	bne.n	8003b28 <_sbrk_r+0x1c>
 8003b20:	682b      	ldr	r3, [r5, #0]
 8003b22:	2b00      	cmp	r3, #0
 8003b24:	d000      	beq.n	8003b28 <_sbrk_r+0x1c>
 8003b26:	6023      	str	r3, [r4, #0]
 8003b28:	bd70      	pop	{r4, r5, r6, pc}
 8003b2a:	46c0      	nop			; (mov r8, r8)
 8003b2c:	20000334 	.word	0x20000334

08003b30 <__malloc_lock>:
 8003b30:	b510      	push	{r4, lr}
 8003b32:	4802      	ldr	r0, [pc, #8]	; (8003b3c <__malloc_lock+0xc>)
 8003b34:	f000 f814 	bl	8003b60 <__retarget_lock_acquire_recursive>
 8003b38:	bd10      	pop	{r4, pc}
 8003b3a:	46c0      	nop			; (mov r8, r8)
 8003b3c:	20000338 	.word	0x20000338

08003b40 <__malloc_unlock>:
 8003b40:	b510      	push	{r4, lr}
 8003b42:	4802      	ldr	r0, [pc, #8]	; (8003b4c <__malloc_unlock+0xc>)
 8003b44:	f000 f80d 	bl	8003b62 <__retarget_lock_release_recursive>
 8003b48:	bd10      	pop	{r4, pc}
 8003b4a:	46c0      	nop			; (mov r8, r8)
 8003b4c:	20000338 	.word	0x20000338

08003b50 <_malloc_usable_size_r>:
 8003b50:	1f0b      	subs	r3, r1, #4
 8003b52:	681b      	ldr	r3, [r3, #0]
 8003b54:	1f18      	subs	r0, r3, #4
 8003b56:	2b00      	cmp	r3, #0
 8003b58:	da01      	bge.n	8003b5e <_malloc_usable_size_r+0xe>
 8003b5a:	580b      	ldr	r3, [r1, r0]
 8003b5c:	18c0      	adds	r0, r0, r3
 8003b5e:	4770      	bx	lr

08003b60 <__retarget_lock_acquire_recursive>:
 8003b60:	4770      	bx	lr

08003b62 <__retarget_lock_release_recursive>:
 8003b62:	4770      	bx	lr

08003b64 <_init>:
 8003b64:	b5f8      	push	{r3, r4, r5, r6, r7, lr}
 8003b66:	46c0      	nop			; (mov r8, r8)
 8003b68:	bcf8      	pop	{r3, r4, r5, r6, r7}
 8003b6a:	bc08      	pop	{r3}
 8003b6c:	469e      	mov	lr, r3
 8003b6e:	4770      	bx	lr

08003b70 <_fini>:
 8003b70:	b5f8      	push	{r3, r4, r5, r6, r7, lr}
 8003b72:	46c0      	nop			; (mov r8, r8)
 8003b74:	bcf8      	pop	{r3, r4, r5, r6, r7}
 8003b76:	bc08      	pop	{r3}
 8003b78:	469e      	mov	lr, r3
 8003b7a:	4770      	bx	lr
